
duktapetest.gdb:     file format elf32-littleriscv


Disassembly of section .text:

00000000 <_start-0x4>:
       0:	0000                	.2byte	0x0
	...

00000004 <_start>:
       4:	02c000ef          	jal	ra,30 <.Lload_gp>
       8:	00050793          	mv	a5,a0
       c:	00050517          	auipc	a0,0x50
      10:	5d050513          	addi	a0,a0,1488 # 505dc <main>
      14:	00012583          	lw	a1,0(sp)
      18:	00410613          	addi	a2,sp,4
      1c:	ff017113          	andi	sp,sp,-16
      20:	00000693          	li	a3,0
      24:	00000713          	li	a4,0
      28:	00010813          	mv	a6,sp
      2c:	4e43a06f          	j	3a510 <__uClibc_main>

00000030 <.Lload_gp>:
      30:	00051197          	auipc	gp,0x51
      34:	61018193          	addi	gp,gp,1552 # 51640 <__global_pointer$>
      38:	00008067          	ret

0000003c <deregister_tm_clones>:
      3c:	00059517          	auipc	a0,0x59
      40:	40450513          	addi	a0,a0,1028 # 59440 <__TMC_END__>
      44:	00059797          	auipc	a5,0x59
      48:	3fc78793          	addi	a5,a5,1020 # 59440 <__TMC_END__>
      4c:	00a78a63          	beq	a5,a0,60 <.L1>
      50:	00051797          	auipc	a5,0x51
      54:	d987a783          	lw	a5,-616(a5) # 50de8 <_GLOBAL_OFFSET_TABLE_+0x40>
      58:	00078463          	beqz	a5,60 <.L1>
      5c:	00078067          	jr	a5

00000060 <.L1>:
      60:	00008067          	ret

00000064 <register_tm_clones>:
      64:	00059517          	auipc	a0,0x59
      68:	3dc50513          	addi	a0,a0,988 # 59440 <__TMC_END__>
      6c:	00059597          	auipc	a1,0x59
      70:	3d458593          	addi	a1,a1,980 # 59440 <__TMC_END__>
      74:	40a585b3          	sub	a1,a1,a0
      78:	4025d593          	srai	a1,a1,0x2
      7c:	00200793          	li	a5,2
      80:	02f5c5b3          	div	a1,a1,a5
      84:	00058a63          	beqz	a1,98 <.L6>
      88:	00051797          	auipc	a5,0x51
      8c:	d4c7a783          	lw	a5,-692(a5) # 50dd4 <_GLOBAL_OFFSET_TABLE_+0x2c>
      90:	00078463          	beqz	a5,98 <.L6>
      94:	00078067          	jr	a5

00000098 <.L6>:
      98:	00008067          	ret

0000009c <__do_global_dtors_aux>:
      9c:	ff010113          	addi	sp,sp,-16
      a0:	00812423          	sw	s0,8(sp)
      a4:	00059417          	auipc	s0,0x59
      a8:	40440413          	addi	s0,s0,1028 # 594a8 <completed.1>
      ac:	00044783          	lbu	a5,0(s0)
      b0:	00112623          	sw	ra,12(sp)
      b4:	02079463          	bnez	a5,dc <.L14>
      b8:	f85ff0ef          	jal	ra,3c <deregister_tm_clones>
      bc:	00051797          	auipc	a5,0x51
      c0:	d147a783          	lw	a5,-748(a5) # 50dd0 <_GLOBAL_OFFSET_TABLE_+0x28>
      c4:	00078863          	beqz	a5,d4 <.L16>
      c8:	00059517          	auipc	a0,0x59
      cc:	37850513          	addi	a0,a0,888 # 59440 <__TMC_END__>
      d0:	000780e7          	jalr	a5

000000d4 <.L16>:
      d4:	00100793          	li	a5,1
      d8:	00f40023          	sb	a5,0(s0)

000000dc <.L14>:
      dc:	00c12083          	lw	ra,12(sp)
      e0:	00812403          	lw	s0,8(sp)
      e4:	01010113          	addi	sp,sp,16
      e8:	00008067          	ret

000000ec <frame_dummy>:
      ec:	00051797          	auipc	a5,0x51
      f0:	d207a783          	lw	a5,-736(a5) # 50e0c <_GLOBAL_OFFSET_TABLE_+0x64>
      f4:	02078463          	beqz	a5,11c <.L27>
      f8:	ff010113          	addi	sp,sp,-16
      fc:	00112623          	sw	ra,12(sp)
     100:	00059597          	auipc	a1,0x59
     104:	3ac58593          	addi	a1,a1,940 # 594ac <object.0>
     108:	00059517          	auipc	a0,0x59
     10c:	33850513          	addi	a0,a0,824 # 59440 <__TMC_END__>
     110:	000780e7          	jalr	a5
     114:	00c12083          	lw	ra,12(sp)
     118:	01010113          	addi	sp,sp,16

0000011c <.L27>:
     11c:	f49ff06f          	j	64 <register_tm_clones>

00000120 <duk_repl_fpclassify>:
     120:	00008737          	lui	a4,0x8
     124:	ff070693          	addi	a3,a4,-16 # 7ff0 <.L2395+0x1c>
     128:	0105d793          	srli	a5,a1,0x10
     12c:	00d7f7b3          	and	a5,a5,a3
     130:	fff78693          	addi	a3,a5,-1
     134:	fee70713          	addi	a4,a4,-18
     138:	02d77863          	bgeu	a4,a3,168 <.L4>
     13c:	00c59593          	slli	a1,a1,0xc
     140:	00c5d593          	srli	a1,a1,0xc
     144:	00a5e533          	or	a0,a1,a0
     148:	00051863          	bnez	a0,158 <.L3>
     14c:	0017b513          	seqz	a0,a5
     150:	00150513          	addi	a0,a0,1
     154:	00008067          	ret

00000158 <.L3>:
     158:	00300513          	li	a0,3
     15c:	00078863          	beqz	a5,16c <.L1>
     160:	00000513          	li	a0,0
     164:	00008067          	ret

00000168 <.L4>:
     168:	00400513          	li	a0,4

0000016c <.L1>:
     16c:	00008067          	ret

00000170 <duk_repl_isfinite>:
     170:	ff010113          	addi	sp,sp,-16
     174:	00112623          	sw	ra,12(sp)
     178:	fa9ff0ef          	jal	ra,120 <duk_repl_fpclassify>
     17c:	00c12083          	lw	ra,12(sp)
     180:	00253513          	sltiu	a0,a0,2
     184:	00154513          	xori	a0,a0,1
     188:	01010113          	addi	sp,sp,16
     18c:	00008067          	ret

00000190 <duk_repl_isnan>:
     190:	ff010113          	addi	sp,sp,-16
     194:	00112623          	sw	ra,12(sp)
     198:	f89ff0ef          	jal	ra,120 <duk_repl_fpclassify>
     19c:	00c12083          	lw	ra,12(sp)
     1a0:	00153513          	seqz	a0,a0
     1a4:	01010113          	addi	sp,sp,16
     1a8:	00008067          	ret

000001ac <duk_unicode_encode_xutf8>:
     1ac:	00050793          	mv	a5,a0
     1b0:	07f00713          	li	a4,127
     1b4:	00100513          	li	a0,1
     1b8:	02f77e63          	bgeu	a4,a5,1f4 <.L13>
     1bc:	7ff00713          	li	a4,2047
     1c0:	00200513          	li	a0,2
     1c4:	02f77863          	bgeu	a4,a5,1f4 <.L13>
     1c8:	00010737          	lui	a4,0x10
     1cc:	00300513          	li	a0,3
     1d0:	02e7e263          	bltu	a5,a4,1f4 <.L13>
     1d4:	00200737          	lui	a4,0x200
     1d8:	00400513          	li	a0,4
     1dc:	00e7ec63          	bltu	a5,a4,1f4 <.L13>
     1e0:	04000737          	lui	a4,0x4000
     1e4:	00500513          	li	a0,5
     1e8:	00e7e663          	bltu	a5,a4,1f4 <.L13>
     1ec:	0007a513          	slti	a0,a5,0
     1f0:	00650513          	addi	a0,a0,6

000001f4 <.L13>:
     1f4:	48818713          	addi	a4,gp,1160 # 51ac8 <duk_unicode_xutf8_markers>
     1f8:	00a70733          	add	a4,a4,a0
     1fc:	fff74603          	lbu	a2,-1(a4) # 3ffffff <_ebss+0x3fa4a1f>
     200:	00a586b3          	add	a3,a1,a0

00000204 <.L15>:
     204:	fff68693          	addi	a3,a3,-1
     208:	0ff7f713          	zext.b	a4,a5
     20c:	00d58c63          	beq	a1,a3,224 <.L14>
     210:	03f77713          	andi	a4,a4,63
     214:	f8070713          	addi	a4,a4,-128
     218:	00e68023          	sb	a4,0(a3)
     21c:	0067d793          	srli	a5,a5,0x6
     220:	fe5ff06f          	j	204 <.L15>

00000224 <.L14>:
     224:	00e607b3          	add	a5,a2,a4
     228:	00f58023          	sb	a5,0(a1)
     22c:	00008067          	ret

00000230 <duk_unicode_is_whitespace>:
     230:	40855693          	srai	a3,a0,0x8
     234:	00050713          	mv	a4,a0
     238:	0ff57793          	zext.b	a5,a0
     23c:	02069e63          	bnez	a3,278 <.L23>
     240:	02000713          	li	a4,32
     244:	02f76463          	bltu	a4,a5,26c <.L24>
     248:	00800713          	li	a4,8
     24c:	00000513          	li	a0,0
     250:	08f77063          	bgeu	a4,a5,2d0 <.L22>
     254:	00800537          	lui	a0,0x800
     258:	ff778793          	addi	a5,a5,-9
     25c:	00d50513          	addi	a0,a0,13 # 80000d <_ebss+0x7a4a2d>
     260:	00f55533          	srl	a0,a0,a5
     264:	00157513          	andi	a0,a0,1
     268:	00008067          	ret

0000026c <.L24>:
     26c:	f6078793          	addi	a5,a5,-160

00000270 <.L33>:
     270:	0017b513          	seqz	a0,a5
     274:	00008067          	ret

00000278 <.L23>:
     278:	02000613          	li	a2,32
     27c:	02c69063          	bne	a3,a2,29c <.L26>
     280:	00a00713          	li	a4,10
     284:	00100513          	li	a0,1
     288:	04f77463          	bgeu	a4,a5,2d0 <.L22>
     28c:	02f00713          	li	a4,47
     290:	04e78063          	beq	a5,a4,2d0 <.L22>
     294:	fa178793          	addi	a5,a5,-95
     298:	fd9ff06f          	j	270 <.L33>

0000029c <.L26>:
     29c:	000017b7          	lui	a5,0x1
     2a0:	68078793          	addi	a5,a5,1664 # 1680 <.L390+0x10>
     2a4:	00100513          	li	a0,1
     2a8:	02f70463          	beq	a4,a5,2d0 <.L22>
     2ac:	000027b7          	lui	a5,0x2
     2b0:	80e78793          	addi	a5,a5,-2034 # 180e <duk__uni_decode_value+0x36>
     2b4:	00f70e63          	beq	a4,a5,2d0 <.L22>
     2b8:	000037b7          	lui	a5,0x3
     2bc:	00f70a63          	beq	a4,a5,2d0 <.L22>
     2c0:	ffff07b7          	lui	a5,0xffff0
     2c4:	10178793          	addi	a5,a5,257 # ffff0101 <_ebss+0xfff94b21>
     2c8:	00f70733          	add	a4,a4,a5
     2cc:	00173513          	seqz	a0,a4

000002d0 <.L22>:
     2d0:	00008067          	ret

000002d4 <duk_unicode_is_line_terminator>:
     2d4:	00a00713          	li	a4,10
     2d8:	00050793          	mv	a5,a0
     2dc:	02e50263          	beq	a0,a4,300 <.L36>
     2e0:	00d00713          	li	a4,13
     2e4:	00100513          	li	a0,1
     2e8:	00e78e63          	beq	a5,a4,304 <.L34>
     2ec:	ffffe737          	lui	a4,0xffffe
     2f0:	fd870713          	addi	a4,a4,-40 # ffffdfd8 <_ebss+0xfffa29f8>
     2f4:	00e787b3          	add	a5,a5,a4
     2f8:	0027b513          	sltiu	a0,a5,2
     2fc:	00008067          	ret

00000300 <.L36>:
     300:	00100513          	li	a0,1

00000304 <.L34>:
     304:	00008067          	ret

00000308 <duk_unicode_re_is_wordchar>:
     308:	fd050693          	addi	a3,a0,-48
     30c:	00900713          	li	a4,9
     310:	00050793          	mv	a5,a0
     314:	02d77263          	bgeu	a4,a3,338 <.L40>
     318:	fdf57713          	andi	a4,a0,-33
     31c:	fbf70713          	addi	a4,a4,-65
     320:	01900693          	li	a3,25
     324:	00100513          	li	a0,1
     328:	00e6fa63          	bgeu	a3,a4,33c <.L38>
     32c:	fa178793          	addi	a5,a5,-95
     330:	0017b513          	seqz	a0,a5
     334:	00008067          	ret

00000338 <.L40>:
     338:	00100513          	li	a0,1

0000033c <.L38>:
     33c:	00008067          	ret

00000340 <duk__known_heaphdr>:
     340:	00359793          	slli	a5,a1,0x3
     344:	0005da63          	bgez	a1,358 <.L43>
     348:	04452703          	lw	a4,68(a0)

0000034c <.L45>:
     34c:	00f707b3          	add	a5,a4,a5
     350:	0007a503          	lw	a0,0(a5)
     354:	00008067          	ret

00000358 <.L43>:
     358:	04052703          	lw	a4,64(a0)
     35c:	ff1ff06f          	j	34c <.L45>

00000360 <duk_bi_function_prototype>:
     360:	00000513          	li	a0,0
     364:	00008067          	ret

00000368 <duk_bi_function_prototype_apply>:
     368:	ffa00513          	li	a0,-6
     36c:	00008067          	ret

00000370 <duk__json_dec_get_nonwhite>:
     370:	00452783          	lw	a5,4(a0)
     374:	48818613          	addi	a2,gp,1160 # 51ac8 <duk_unicode_xutf8_markers>

00000378 <.L49>:
     378:	0007c703          	lbu	a4,0(a5)
     37c:	00e60733          	add	a4,a2,a4
     380:	00874683          	lbu	a3,8(a4)
     384:	00078713          	mv	a4,a5
     388:	00178793          	addi	a5,a5,1
     38c:	fe0696e3          	bnez	a3,378 <.L49>
     390:	00f52223          	sw	a5,4(a0)
     394:	00074503          	lbu	a0,0(a4)
     398:	00008067          	ret

0000039c <duk__fmin_fixed>:
     39c:	fe010113          	addi	sp,sp,-32
     3a0:	00812c23          	sw	s0,24(sp)
     3a4:	00912a23          	sw	s1,20(sp)
     3a8:	00068413          	mv	s0,a3
     3ac:	00060493          	mv	s1,a2
     3b0:	00000693          	li	a3,0
     3b4:	00000613          	li	a2,0
     3b8:	01212823          	sw	s2,16(sp)
     3bc:	01312623          	sw	s3,12(sp)
     3c0:	00112e23          	sw	ra,28(sp)
     3c4:	00050993          	mv	s3,a0
     3c8:	00058913          	mv	s2,a1
     3cc:	204330ef          	jal	ra,335d0 <__eqdf2>
     3d0:	06051063          	bnez	a0,430 <.L52>
     3d4:	00000613          	li	a2,0
     3d8:	00000693          	li	a3,0
     3dc:	00048513          	mv	a0,s1
     3e0:	00040593          	mv	a1,s0
     3e4:	1ec330ef          	jal	ra,335d0 <__eqdf2>
     3e8:	04051463          	bnez	a0,430 <.L52>
     3ec:	00896933          	or	s2,s2,s0
     3f0:	00000493          	li	s1,0
     3f4:	00000413          	li	s0,0
     3f8:	00090a63          	beqz	s2,40c <.L55>
     3fc:	00058797          	auipc	a5,0x58
     400:	88c78793          	addi	a5,a5,-1908 # 57c88 <.LC0>
     404:	0007a483          	lw	s1,0(a5)
     408:	0047a403          	lw	s0,4(a5)

0000040c <.L55>:
     40c:	01c12083          	lw	ra,28(sp)
     410:	00040593          	mv	a1,s0
     414:	01812403          	lw	s0,24(sp)
     418:	01012903          	lw	s2,16(sp)
     41c:	00c12983          	lw	s3,12(sp)
     420:	00048513          	mv	a0,s1
     424:	01412483          	lw	s1,20(sp)
     428:	02010113          	addi	sp,sp,32
     42c:	00008067          	ret

00000430 <.L52>:
     430:	00048613          	mv	a2,s1
     434:	00040693          	mv	a3,s0
     438:	00098513          	mv	a0,s3
     43c:	00090593          	mv	a1,s2
     440:	32c330ef          	jal	ra,3376c <__ledf2>
     444:	fc0554e3          	bgez	a0,40c <.L55>
     448:	00098493          	mv	s1,s3
     44c:	00090413          	mv	s0,s2
     450:	fbdff06f          	j	40c <.L55>

00000454 <duk__fmax_fixed>:
     454:	fe010113          	addi	sp,sp,-32
     458:	00812c23          	sw	s0,24(sp)
     45c:	00912a23          	sw	s1,20(sp)
     460:	00068413          	mv	s0,a3
     464:	00060493          	mv	s1,a2
     468:	00000693          	li	a3,0
     46c:	00000613          	li	a2,0
     470:	01212823          	sw	s2,16(sp)
     474:	01312623          	sw	s3,12(sp)
     478:	00112e23          	sw	ra,28(sp)
     47c:	00050993          	mv	s3,a0
     480:	00058913          	mv	s2,a1
     484:	14c330ef          	jal	ra,335d0 <__eqdf2>
     488:	02051863          	bnez	a0,4b8 <.L64>
     48c:	00000613          	li	a2,0
     490:	00000693          	li	a3,0
     494:	00048513          	mv	a0,s1
     498:	00040593          	mv	a1,s0
     49c:	134330ef          	jal	ra,335d0 <__eqdf2>
     4a0:	00051c63          	bnez	a0,4b8 <.L64>
     4a4:	00095463          	bgez	s2,4ac <.L69>
     4a8:	04044a63          	bltz	s0,4fc <.L70>

000004ac <.L69>:
     4ac:	00000493          	li	s1,0
     4b0:	00000413          	li	s0,0
     4b4:	0240006f          	j	4d8 <.L67>

000004b8 <.L64>:
     4b8:	00048613          	mv	a2,s1
     4bc:	00040693          	mv	a3,s0
     4c0:	00098513          	mv	a0,s3
     4c4:	00090593          	mv	a1,s2
     4c8:	194330ef          	jal	ra,3365c <__gedf2>
     4cc:	00a05663          	blez	a0,4d8 <.L67>
     4d0:	00098493          	mv	s1,s3
     4d4:	00090413          	mv	s0,s2

000004d8 <.L67>:
     4d8:	01c12083          	lw	ra,28(sp)
     4dc:	00040593          	mv	a1,s0
     4e0:	01812403          	lw	s0,24(sp)
     4e4:	01012903          	lw	s2,16(sp)
     4e8:	00c12983          	lw	s3,12(sp)
     4ec:	00048513          	mv	a0,s1
     4f0:	01412483          	lw	s1,20(sp)
     4f4:	02010113          	addi	sp,sp,32
     4f8:	00008067          	ret

000004fc <.L70>:
     4fc:	00057797          	auipc	a5,0x57
     500:	78c78793          	addi	a5,a5,1932 # 57c88 <.LC0>
     504:	0007a483          	lw	s1,0(a5)
     508:	0047a403          	lw	s0,4(a5)
     50c:	fcdff06f          	j	4d8 <.L67>

00000510 <duk__fabs>:
     510:	00159593          	slli	a1,a1,0x1
     514:	00050713          	mv	a4,a0
     518:	0015d793          	srli	a5,a1,0x1
     51c:	00070513          	mv	a0,a4
     520:	00078593          	mv	a1,a5
     524:	00008067          	ret

00000528 <duk_hbuffer_get_dynalloc_ptr>:
     528:	0145a503          	lw	a0,20(a1)
     52c:	00008067          	ret

00000530 <duk_free_hobject>:
     530:	fe010113          	addi	sp,sp,-32
     534:	00812c23          	sw	s0,24(sp)
     538:	00058413          	mv	s0,a1
     53c:	0105a583          	lw	a1,16(a1)
     540:	00912a23          	sw	s1,20(sp)
     544:	00112e23          	sw	ra,28(sp)
     548:	01212823          	sw	s2,16(sp)
     54c:	01312623          	sw	s3,12(sp)
     550:	00050493          	mv	s1,a0
     554:	7dc490ef          	jal	ra,49d30 <duk_heap_mem_free>
     558:	00042783          	lw	a5,0(s0)
     55c:	00002737          	lui	a4,0x2
     560:	80070713          	addi	a4,a4,-2048 # 1800 <duk__uni_decode_value+0x28>
     564:	00e7f733          	and	a4,a5,a4
     568:	02071263          	bnez	a4,58c <.L80>
     56c:	01b7d713          	srli	a4,a5,0x1b
     570:	01200693          	li	a3,18
     574:	06d71863          	bne	a4,a3,5e4 <.L81>
     578:	03442583          	lw	a1,52(s0)
     57c:	00048513          	mv	a0,s1
     580:	7b0490ef          	jal	ra,49d30 <duk_heap_mem_free>
     584:	04842903          	lw	s2,72(s0)

00000588 <.L82>:
     588:	02091463          	bnez	s2,5b0 <.L85>

0000058c <.L80>:
     58c:	00040593          	mv	a1,s0
     590:	01812403          	lw	s0,24(sp)
     594:	01c12083          	lw	ra,28(sp)
     598:	01012903          	lw	s2,16(sp)
     59c:	00c12983          	lw	s3,12(sp)
     5a0:	00048513          	mv	a0,s1
     5a4:	01412483          	lw	s1,20(sp)
     5a8:	02010113          	addi	sp,sp,32
     5ac:	7844906f          	j	49d30 <duk_heap_mem_free>

000005b0 <.L85>:
     5b0:	01892583          	lw	a1,24(s2)

000005b4 <.L83>:
     5b4:	00059e63          	bnez	a1,5d0 <.L84>
     5b8:	00c92983          	lw	s3,12(s2)
     5bc:	00090593          	mv	a1,s2
     5c0:	00048513          	mv	a0,s1
     5c4:	76c490ef          	jal	ra,49d30 <duk_heap_mem_free>
     5c8:	00098913          	mv	s2,s3
     5cc:	fbdff06f          	j	588 <.L82>

000005d0 <.L84>:
     5d0:	0005a983          	lw	s3,0(a1)
     5d4:	00048513          	mv	a0,s1
     5d8:	758490ef          	jal	ra,49d30 <duk_heap_mem_free>
     5dc:	00098593          	mv	a1,s3
     5e0:	fd5ff06f          	j	5b4 <.L83>

000005e4 <.L81>:
     5e4:	4007f793          	andi	a5,a5,1024
     5e8:	fa0782e3          	beqz	a5,58c <.L80>
     5ec:	03842583          	lw	a1,56(s0)
     5f0:	00048513          	mv	a0,s1
     5f4:	73c490ef          	jal	ra,49d30 <duk_heap_mem_free>
     5f8:	f95ff06f          	j	58c <.L80>

000005fc <duk_free_hbuffer>:
     5fc:	0005a783          	lw	a5,0(a1)
     600:	ff010113          	addi	sp,sp,-16
     604:	00812423          	sw	s0,8(sp)
     608:	00912223          	sw	s1,4(sp)
     60c:	00112623          	sw	ra,12(sp)
     610:	1807f793          	andi	a5,a5,384
     614:	08000713          	li	a4,128
     618:	00050493          	mv	s1,a0
     61c:	00058413          	mv	s0,a1
     620:	00e79663          	bne	a5,a4,62c <.L92>
     624:	0145a583          	lw	a1,20(a1)
     628:	708490ef          	jal	ra,49d30 <duk_heap_mem_free>

0000062c <.L92>:
     62c:	00040593          	mv	a1,s0
     630:	00812403          	lw	s0,8(sp)
     634:	00c12083          	lw	ra,12(sp)
     638:	00048513          	mv	a0,s1
     63c:	00412483          	lw	s1,4(sp)
     640:	01010113          	addi	sp,sp,16
     644:	6ec4906f          	j	49d30 <duk_heap_mem_free>

00000648 <duk_heap_free_heaphdr_raw>:
     648:	0005a783          	lw	a5,0(a1)
     64c:	0037f793          	andi	a5,a5,3
     650:	00078863          	beqz	a5,660 <.L95>
     654:	00100713          	li	a4,1
     658:	00e78663          	beq	a5,a4,664 <.L96>
     65c:	fa1ff06f          	j	5fc <duk_free_hbuffer>

00000660 <.L95>:
     660:	6d04906f          	j	49d30 <duk_heap_mem_free>

00000664 <.L96>:
     664:	ecdff06f          	j	530 <duk_free_hobject>

00000668 <duk_heap_insert_into_heap_allocated>:
     668:	01852783          	lw	a5,24(a0)
     66c:	00078463          	beqz	a5,674 <.L100>
     670:	00b7a623          	sw	a1,12(a5)

00000674 <.L100>:
     674:	0005a623          	sw	zero,12(a1)
     678:	00f5a423          	sw	a5,8(a1)
     67c:	00b52c23          	sw	a1,24(a0)
     680:	00008067          	ret

00000684 <duk_heap_remove_from_heap_allocated>:
     684:	00c5a703          	lw	a4,12(a1)
     688:	0085a783          	lw	a5,8(a1)
     68c:	00070a63          	beqz	a4,6a0 <.L105>
     690:	00f72423          	sw	a5,8(a4)

00000694 <.L106>:
     694:	00078463          	beqz	a5,69c <.L104>
     698:	00e7a623          	sw	a4,12(a5)

0000069c <.L104>:
     69c:	00008067          	ret

000006a0 <.L105>:
     6a0:	00f52c23          	sw	a5,24(a0)
     6a4:	ff1ff06f          	j	694 <.L106>

000006a8 <duk__refcount_refzero_hstring>:
     6a8:	0b450793          	addi	a5,a0,180
     6ac:	0e450713          	addi	a4,a0,228

000006b0 <.L113>:
     6b0:	0007a683          	lw	a3,0(a5)
     6b4:	00d59463          	bne	a1,a3,6bc <.L112>
     6b8:	0007a023          	sw	zero,0(a5)

000006bc <.L112>:
     6bc:	00c78793          	addi	a5,a5,12
     6c0:	fee798e3          	bne	a5,a4,6b0 <.L113>
     6c4:	0ac52783          	lw	a5,172(a0)
     6c8:	0a452703          	lw	a4,164(a0)
     6cc:	00000693          	li	a3,0
     6d0:	fff78793          	addi	a5,a5,-1
     6d4:	0af52623          	sw	a5,172(a0)
     6d8:	00c5a783          	lw	a5,12(a1)
     6dc:	00e7f7b3          	and	a5,a5,a4
     6e0:	0a052703          	lw	a4,160(a0)
     6e4:	00279793          	slli	a5,a5,0x2
     6e8:	00f707b3          	add	a5,a4,a5
     6ec:	0007a703          	lw	a4,0(a5)

000006f0 <.L114>:
     6f0:	00e59a63          	bne	a1,a4,704 <.L115>
     6f4:	0085a703          	lw	a4,8(a1)
     6f8:	00068c63          	beqz	a3,710 <.L116>
     6fc:	00e6a423          	sw	a4,8(a3)

00000700 <.L117>:
     700:	6304906f          	j	49d30 <duk_heap_mem_free>

00000704 <.L115>:
     704:	00070693          	mv	a3,a4
     708:	00872703          	lw	a4,8(a4)
     70c:	fe5ff06f          	j	6f0 <.L114>

00000710 <.L116>:
     710:	00e7a023          	sw	a4,0(a5)
     714:	fedff06f          	j	700 <.L117>

00000718 <duk__tval_number_to_arr_idx>:
     718:	00452683          	lw	a3,4(a0)
     71c:	00052603          	lw	a2,0(a0)
     720:	fe010113          	addi	sp,sp,-32
     724:	00068593          	mv	a1,a3
     728:	00060513          	mv	a0,a2
     72c:	00112e23          	sw	ra,28(sp)
     730:	00812c23          	sw	s0,24(sp)
     734:	00c12423          	sw	a2,8(sp)
     738:	00d12623          	sw	a3,12(sp)
     73c:	010340ef          	jal	ra,3474c <__fixunsdfsi>
     740:	00050413          	mv	s0,a0
     744:	128340ef          	jal	ra,3486c <__floatunsidf>
     748:	00812603          	lw	a2,8(sp)
     74c:	00c12683          	lw	a3,12(sp)
     750:	681320ef          	jal	ra,335d0 <__eqdf2>
     754:	00050463          	beqz	a0,75c <.L119>
     758:	fff00413          	li	s0,-1

0000075c <.L119>:
     75c:	01c12083          	lw	ra,28(sp)
     760:	00040513          	mv	a0,s0
     764:	01812403          	lw	s0,24(sp)
     768:	02010113          	addi	sp,sp,32
     76c:	00008067          	ret

00000770 <duk_hthread_get_valstack_ptr>:
     770:	0345a503          	lw	a0,52(a1)
     774:	00008067          	ret

00000778 <duk_hthread_sync_and_null_currpc>:
     778:	02852783          	lw	a5,40(a0)
     77c:	00078a63          	beqz	a5,790 <.L126>
     780:	0007a703          	lw	a4,0(a5)
     784:	04852783          	lw	a5,72(a0)
     788:	00e7ae23          	sw	a4,28(a5)
     78c:	02052423          	sw	zero,40(a0)

00000790 <.L126>:
     790:	00008067          	ret

00000794 <duk__patch_jump>:
     794:	0205c663          	bltz	a1,7c0 <.L131>
     798:	3d052703          	lw	a4,976(a0)
     79c:	00359793          	slli	a5,a1,0x3
     7a0:	008006b7          	lui	a3,0x800
     7a4:	00f70733          	add	a4,a4,a5
     7a8:	fff68693          	addi	a3,a3,-1 # 7fffff <_ebss+0x7a4a1f>
     7ac:	40b607b3          	sub	a5,a2,a1
     7b0:	00d787b3          	add	a5,a5,a3
     7b4:	00879793          	slli	a5,a5,0x8
     7b8:	0027e793          	ori	a5,a5,2
     7bc:	00f72023          	sw	a5,0(a4)

000007c0 <.L131>:
     7c0:	00008067          	ret

000007c4 <duk__patch_jump_here>:
     7c4:	3cc52603          	lw	a2,972(a0)
     7c8:	3d052783          	lw	a5,976(a0)
     7cc:	40f60633          	sub	a2,a2,a5
     7d0:	00365613          	srli	a2,a2,0x3
     7d4:	fc1ff06f          	j	794 <duk__patch_jump>

000007d8 <duk__bi_normalize>:
     7d8:	00052783          	lw	a5,0(a0)

000007dc <.L136>:
     7dc:	fff78793          	addi	a5,a5,-1
     7e0:	0007ca63          	bltz	a5,7f4 <.L138>
     7e4:	00279713          	slli	a4,a5,0x2
     7e8:	00e50733          	add	a4,a0,a4
     7ec:	00472703          	lw	a4,4(a4)
     7f0:	fe0706e3          	beqz	a4,7dc <.L136>

000007f4 <.L138>:
     7f4:	00178793          	addi	a5,a5,1
     7f8:	00f52023          	sw	a5,0(a0)
     7fc:	00008067          	ret

00000800 <duk__bi_compare>:
     800:	00052783          	lw	a5,0(a0)
     804:	0005a683          	lw	a3,0(a1)
     808:	00050713          	mv	a4,a0
     80c:	04f6c263          	blt	a3,a5,850 <.L147>
     810:	fff00513          	li	a0,-1
     814:	04d7c463          	blt	a5,a3,85c <.L140>
     818:	fff78693          	addi	a3,a5,-1
     81c:	00279793          	slli	a5,a5,0x2

00000820 <.L142>:
     820:	0006d663          	bgez	a3,82c <.L143>
     824:	00000513          	li	a0,0
     828:	00008067          	ret

0000082c <.L143>:
     82c:	00f70633          	add	a2,a4,a5
     830:	00062503          	lw	a0,0(a2)
     834:	00f58633          	add	a2,a1,a5
     838:	00062603          	lw	a2,0(a2)
     83c:	00a66a63          	bltu	a2,a0,850 <.L147>
     840:	ffc78793          	addi	a5,a5,-4
     844:	00c56a63          	bltu	a0,a2,858 <.L148>
     848:	fff68693          	addi	a3,a3,-1
     84c:	fd5ff06f          	j	820 <.L142>

00000850 <.L147>:
     850:	00100513          	li	a0,1
     854:	00008067          	ret

00000858 <.L148>:
     858:	fff00513          	li	a0,-1

0000085c <.L140>:
     85c:	00008067          	ret

00000860 <duk__bi_add>:
     860:	00062703          	lw	a4,0(a2)
     864:	0005a783          	lw	a5,0(a1)
     868:	00e7c863          	blt	a5,a4,878 <.L150>
     86c:	00060793          	mv	a5,a2
     870:	00058613          	mv	a2,a1
     874:	00078593          	mv	a1,a5

00000878 <.L150>:
     878:	00062783          	lw	a5,0(a2)
     87c:	0005ae03          	lw	t3,0(a1)
     880:	00400813          	li	a6,4
     884:	00000893          	li	a7,0
     888:	00000713          	li	a4,0

0000088c <.L151>:
     88c:	02f8c663          	blt	a7,a5,8b8 <.L153>
     890:	0007d463          	bgez	a5,898 <.L154>
     894:	00000793          	li	a5,0

00000898 <.L154>:
     898:	00070c63          	beqz	a4,8b0 <.L155>
     89c:	00279713          	slli	a4,a5,0x2
     8a0:	00e50733          	add	a4,a0,a4
     8a4:	00100693          	li	a3,1
     8a8:	00d72223          	sw	a3,4(a4)
     8ac:	00178793          	addi	a5,a5,1

000008b0 <.L155>:
     8b0:	00f52023          	sw	a5,0(a0)
     8b4:	00008067          	ret

000008b8 <.L153>:
     8b8:	010606b3          	add	a3,a2,a6
     8bc:	0006a303          	lw	t1,0(a3)
     8c0:	00e306b3          	add	a3,t1,a4
     8c4:	0066b733          	sltu	a4,a3,t1
     8c8:	01c8de63          	bge	a7,t3,8e4 <.L152>
     8cc:	01058333          	add	t1,a1,a6
     8d0:	00032303          	lw	t1,0(t1)
     8d4:	00668333          	add	t1,a3,t1
     8d8:	00d33eb3          	sltu	t4,t1,a3
     8dc:	00ee8733          	add	a4,t4,a4
     8e0:	00030693          	mv	a3,t1

000008e4 <.L152>:
     8e4:	01050333          	add	t1,a0,a6
     8e8:	00d32023          	sw	a3,0(t1)
     8ec:	00188893          	addi	a7,a7,1
     8f0:	00480813          	addi	a6,a6,4
     8f4:	f99ff06f          	j	88c <.L151>

000008f8 <duk_bd_decode>:
     8f8:	01052783          	lw	a5,16(a0)
     8fc:	00c52703          	lw	a4,12(a0)
     900:	02b7c263          	blt	a5,a1,924 <.L163>
     904:	40b787b3          	sub	a5,a5,a1
     908:	00f52823          	sw	a5,16(a0)
     90c:	fff00513          	li	a0,-1
     910:	00b51533          	sll	a0,a0,a1
     914:	00f75733          	srl	a4,a4,a5
     918:	fff54513          	not	a0,a0
     91c:	00e57533          	and	a0,a0,a4
     920:	00008067          	ret

00000924 <.L163>:
     924:	00452603          	lw	a2,4(a0)
     928:	00852683          	lw	a3,8(a0)
     92c:	00871713          	slli	a4,a4,0x8
     930:	00e52623          	sw	a4,12(a0)
     934:	02d67063          	bgeu	a2,a3,954 <.L162>
     938:	00052683          	lw	a3,0(a0)
     93c:	00160813          	addi	a6,a2,1
     940:	01052223          	sw	a6,4(a0)
     944:	00c686b3          	add	a3,a3,a2
     948:	0006c683          	lbu	a3,0(a3)
     94c:	00e6e733          	or	a4,a3,a4
     950:	00e52623          	sw	a4,12(a0)

00000954 <.L162>:
     954:	00878793          	addi	a5,a5,8
     958:	00f52823          	sw	a5,16(a0)
     95c:	f9dff06f          	j	8f8 <duk_bd_decode>

00000960 <duk_bd_decode_varuint>:
     960:	ff010113          	addi	sp,sp,-16
     964:	00200593          	li	a1,2
     968:	00812423          	sw	s0,8(sp)
     96c:	00112623          	sw	ra,12(sp)
     970:	00050413          	mv	s0,a0
     974:	f85ff0ef          	jal	ra,8f8 <duk_bd_decode>
     978:	00100793          	li	a5,1
     97c:	02f50063          	beq	a0,a5,99c <.L165>
     980:	00200793          	li	a5,2
     984:	02f50663          	beq	a0,a5,9b0 <.L166>
     988:	02051e63          	bnez	a0,9c4 <.L173>

0000098c <.L164>:
     98c:	00c12083          	lw	ra,12(sp)
     990:	00812403          	lw	s0,8(sp)
     994:	01010113          	addi	sp,sp,16
     998:	00008067          	ret

0000099c <.L165>:
     99c:	00200593          	li	a1,2
     9a0:	00040513          	mv	a0,s0
     9a4:	f55ff0ef          	jal	ra,8f8 <duk_bd_decode>
     9a8:	00150513          	addi	a0,a0,1
     9ac:	fe1ff06f          	j	98c <.L164>

000009b0 <.L166>:
     9b0:	00500593          	li	a1,5
     9b4:	00040513          	mv	a0,s0
     9b8:	f41ff0ef          	jal	ra,8f8 <duk_bd_decode>
     9bc:	00550513          	addi	a0,a0,5
     9c0:	fcdff06f          	j	98c <.L164>

000009c4 <.L173>:
     9c4:	00700593          	li	a1,7
     9c8:	00040513          	mv	a0,s0
     9cc:	f2dff0ef          	jal	ra,8f8 <duk_bd_decode>
     9d0:	00050793          	mv	a5,a0
     9d4:	02450513          	addi	a0,a0,36
     9d8:	fa079ae3          	bnez	a5,98c <.L164>
     9dc:	00040513          	mv	a0,s0
     9e0:	00812403          	lw	s0,8(sp)
     9e4:	00c12083          	lw	ra,12(sp)
     9e8:	01400593          	li	a1,20
     9ec:	01010113          	addi	sp,sp,16
     9f0:	f09ff06f          	j	8f8 <duk_bd_decode>

000009f4 <duk_bd_decode_bitpacked_string>:
     9f4:	fe010113          	addi	sp,sp,-32
     9f8:	01412423          	sw	s4,8(sp)
     9fc:	00058a13          	mv	s4,a1
     a00:	00500593          	li	a1,5
     a04:	00812c23          	sw	s0,24(sp)
     a08:	00112e23          	sw	ra,28(sp)
     a0c:	00912a23          	sw	s1,20(sp)
     a10:	01212823          	sw	s2,16(sp)
     a14:	01312623          	sw	s3,12(sp)
     a18:	01512223          	sw	s5,4(sp)
     a1c:	01612023          	sw	s6,0(sp)
     a20:	00050413          	mv	s0,a0
     a24:	ed5ff0ef          	jal	ra,8f8 <duk_bd_decode>
     a28:	01f00793          	li	a5,31
     a2c:	00f51863          	bne	a0,a5,a3c <.L187>
     a30:	00800593          	li	a1,8
     a34:	00040513          	mv	a0,s0
     a38:	ec1ff0ef          	jal	ra,8f8 <duk_bd_decode>

00000a3c <.L187>:
     a3c:	00050493          	mv	s1,a0
     a40:	00000993          	li	s3,0
     a44:	02000913          	li	s2,32
     a48:	01900b13          	li	s6,25
     a4c:	00050a97          	auipc	s5,0x50
     a50:	3f4a8a93          	addi	s5,s5,1012 # 50e40 <.L181>

00000a54 <.L177>:
     a54:	03349863          	bne	s1,s3,a84 <.L186>
     a58:	01c12083          	lw	ra,28(sp)
     a5c:	01812403          	lw	s0,24(sp)
     a60:	01012903          	lw	s2,16(sp)
     a64:	00c12983          	lw	s3,12(sp)
     a68:	00812a03          	lw	s4,8(sp)
     a6c:	00412a83          	lw	s5,4(sp)
     a70:	00012b03          	lw	s6,0(sp)
     a74:	00048513          	mv	a0,s1
     a78:	01412483          	lw	s1,20(sp)
     a7c:	02010113          	addi	sp,sp,32
     a80:	00008067          	ret

00000a84 <.L186>:
     a84:	00500593          	li	a1,5
     a88:	00040513          	mv	a0,s0
     a8c:	e6dff0ef          	jal	ra,8f8 <duk_bd_decode>
     a90:	00ab6663          	bltu	s6,a0,a9c <.L178>

00000a94 <.L190>:
     a94:	04190793          	addi	a5,s2,65
     a98:	07c0006f          	j	b14 <.L189>

00000a9c <.L178>:
     a9c:	fe650793          	addi	a5,a0,-26
     aa0:	00500713          	li	a4,5
     aa4:	02f76863          	bltu	a4,a5,ad4 <.L179>
     aa8:	00279793          	slli	a5,a5,0x2
     aac:	015787b3          	add	a5,a5,s5
     ab0:	0007a783          	lw	a5,0(a5)
     ab4:	015787b3          	add	a5,a5,s5
     ab8:	00078067          	jr	a5

00000abc <.L185>:
     abc:	00300593          	li	a1,3
     ac0:	00040513          	mv	a0,s0
     ac4:	e35ff0ef          	jal	ra,8f8 <duk_bd_decode>
     ac8:	48818793          	addi	a5,gp,1160 # 51ac8 <duk_unicode_xutf8_markers>
     acc:	00a787b3          	add	a5,a5,a0
     ad0:	1087c503          	lbu	a0,264(a5)

00000ad4 <.L179>:
     ad4:	013a07b3          	add	a5,s4,s3
     ad8:	00a78023          	sb	a0,0(a5)
     adc:	00198993          	addi	s3,s3,1
     ae0:	f75ff06f          	j	a54 <.L177>

00000ae4 <.L184>:
     ae4:	00300593          	li	a1,3
     ae8:	00040513          	mv	a0,s0
     aec:	e0dff0ef          	jal	ra,8f8 <duk_bd_decode>
     af0:	48818793          	addi	a5,gp,1160 # 51ac8 <duk_unicode_xutf8_markers>
     af4:	00a787b3          	add	a5,a5,a0
     af8:	1107c503          	lbu	a0,272(a5)
     afc:	fd9ff06f          	j	ad4 <.L179>

00000b00 <.L183>:
     b00:	00500593          	li	a1,5
     b04:	00040513          	mv	a0,s0
     b08:	df1ff0ef          	jal	ra,8f8 <duk_bd_decode>
     b0c:	02094793          	xori	a5,s2,32
     b10:	04178793          	addi	a5,a5,65

00000b14 <.L189>:
     b14:	00a78533          	add	a0,a5,a0
     b18:	fbdff06f          	j	ad4 <.L179>

00000b1c <.L182>:
     b1c:	00500593          	li	a1,5
     b20:	00040513          	mv	a0,s0
     b24:	02094913          	xori	s2,s2,32
     b28:	dd1ff0ef          	jal	ra,8f8 <duk_bd_decode>
     b2c:	f69ff06f          	j	a94 <.L190>

00000b30 <.L180>:
     b30:	00800593          	li	a1,8
     b34:	00040513          	mv	a0,s0
     b38:	dc1ff0ef          	jal	ra,8f8 <duk_bd_decode>
     b3c:	f99ff06f          	j	ad4 <.L179>

00000b40 <duk_be_encode>:
     b40:	00c52783          	lw	a5,12(a0)
     b44:	00100813          	li	a6,1
     b48:	00c797b3          	sll	a5,a5,a2
     b4c:	00b7e7b3          	or	a5,a5,a1
     b50:	00f52623          	sw	a5,12(a0)
     b54:	01052783          	lw	a5,16(a0)
     b58:	00700593          	li	a1,7
     b5c:	00f60633          	add	a2,a2,a5

00000b60 <.L192>:
     b60:	00c52823          	sw	a2,16(a0)
     b64:	00c5c463          	blt	a1,a2,b6c <.L195>
     b68:	00008067          	ret

00000b6c <.L195>:
     b6c:	00452683          	lw	a3,4(a0)
     b70:	00852783          	lw	a5,8(a0)
     b74:	02f6f863          	bgeu	a3,a5,ba4 <.L193>
     b78:	00c52703          	lw	a4,12(a0)
     b7c:	00052783          	lw	a5,0(a0)
     b80:	ff860613          	addi	a2,a2,-8
     b84:	00c75733          	srl	a4,a4,a2
     b88:	00168613          	addi	a2,a3,1
     b8c:	00c52223          	sw	a2,4(a0)
     b90:	00d787b3          	add	a5,a5,a3
     b94:	00e78023          	sb	a4,0(a5)

00000b98 <.L194>:
     b98:	01052603          	lw	a2,16(a0)
     b9c:	ff860613          	addi	a2,a2,-8
     ba0:	fc1ff06f          	j	b60 <.L192>

00000ba4 <.L193>:
     ba4:	01052a23          	sw	a6,20(a0)
     ba8:	ff1ff06f          	j	b98 <.L194>

00000bac <duk_double_is_nan>:
     bac:	7ff007b7          	lui	a5,0x7ff00
     bb0:	00b7f733          	and	a4,a5,a1
     bb4:	00f71c63          	bne	a4,a5,bcc <.L198>
     bb8:	00c59593          	slli	a1,a1,0xc
     bbc:	00c5d593          	srli	a1,a1,0xc
     bc0:	00a5e533          	or	a0,a1,a0
     bc4:	00a03533          	snez	a0,a0
     bc8:	00008067          	ret

00000bcc <.L198>:
     bcc:	00000513          	li	a0,0
     bd0:	00008067          	ret

00000bd4 <duk_js_toboolean>:
     bd4:	00655783          	lhu	a5,6(a0)
     bd8:	00700713          	li	a4,7
     bdc:	00d78793          	addi	a5,a5,13 # 7ff0000d <_ebss+0x7fea4a2d>
     be0:	01079793          	slli	a5,a5,0x10
     be4:	0107d793          	srli	a5,a5,0x10
     be8:	04f76263          	bltu	a4,a5,c2c <.L200>
     bec:	81818713          	addi	a4,gp,-2024 # 50e58 <.L202>
     bf0:	00279793          	slli	a5,a5,0x2
     bf4:	00e787b3          	add	a5,a5,a4
     bf8:	0007a783          	lw	a5,0(a5)
     bfc:	00e787b3          	add	a5,a5,a4
     c00:	00078067          	jr	a5

00000c04 <.L206>:
     c04:	00000513          	li	a0,0
     c08:	00008067          	ret

00000c0c <.L205>:
     c0c:	00455503          	lhu	a0,4(a0)
     c10:	00008067          	ret

00000c14 <.L203>:
     c14:	00052783          	lw	a5,0(a0)
     c18:	0147a503          	lw	a0,20(a5)

00000c1c <.L211>:
     c1c:	00a03533          	snez	a0,a0
     c20:	00008067          	ret

00000c24 <.L204>:
     c24:	00052503          	lw	a0,0(a0)
     c28:	ff5ff06f          	j	c1c <.L211>

00000c2c <.L200>:
     c2c:	00452783          	lw	a5,4(a0)
     c30:	7ff00737          	lui	a4,0x7ff00
     c34:	00052683          	lw	a3,0(a0)
     c38:	00f77633          	and	a2,a4,a5
     c3c:	00e61c63          	bne	a2,a4,c54 <.L207>
     c40:	00c79713          	slli	a4,a5,0xc
     c44:	00c75713          	srli	a4,a4,0xc
     c48:	00e6e733          	or	a4,a3,a4
     c4c:	00100513          	li	a0,1
     c50:	00071a63          	bnez	a4,c64 <.L208>

00000c54 <.L207>:
     c54:	00179793          	slli	a5,a5,0x1
     c58:	0017d793          	srli	a5,a5,0x1
     c5c:	00f6e6b3          	or	a3,a3,a5
     c60:	0016b513          	seqz	a0,a3

00000c64 <.L208>:
     c64:	00154513          	xori	a0,a0,1
     c68:	00008067          	ret

00000c6c <.L209>:
     c6c:	00100513          	li	a0,1
     c70:	00008067          	ret

00000c74 <duk_get_tval>:
     c74:	04052703          	lw	a4,64(a0)
     c78:	04452783          	lw	a5,68(a0)
     c7c:	40e787b3          	sub	a5,a5,a4
     c80:	4037d793          	srai	a5,a5,0x3
     c84:	0005d463          	bgez	a1,c8c <.L213>
     c88:	00f585b3          	add	a1,a1,a5

00000c8c <.L213>:
     c8c:	00000513          	li	a0,0
     c90:	00f5f663          	bgeu	a1,a5,c9c <.L212>
     c94:	00359593          	slli	a1,a1,0x3
     c98:	00b70533          	add	a0,a4,a1

00000c9c <.L212>:
     c9c:	00008067          	ret

00000ca0 <duk_get_tval_or_unused>:
     ca0:	ff010113          	addi	sp,sp,-16
     ca4:	00112623          	sw	ra,12(sp)
     ca8:	fcdff0ef          	jal	ra,c74 <duk_get_tval>
     cac:	00051463          	bnez	a0,cb4 <.L216>
     cb0:	5a018513          	addi	a0,gp,1440 # 51be0 <duk__const_tval_unused>

00000cb4 <.L216>:
     cb4:	00c12083          	lw	ra,12(sp)
     cb8:	01010113          	addi	sp,sp,16
     cbc:	00008067          	ret

00000cc0 <duk__get_tagged_heaphdr_raw>:
     cc0:	ff010113          	addi	sp,sp,-16
     cc4:	00812423          	sw	s0,8(sp)
     cc8:	00112623          	sw	ra,12(sp)
     ccc:	00060413          	mv	s0,a2
     cd0:	fd1ff0ef          	jal	ra,ca0 <duk_get_tval_or_unused>
     cd4:	00655783          	lhu	a5,6(a0)
     cd8:	00879c63          	bne	a5,s0,cf0 <.L222>
     cdc:	00052503          	lw	a0,0(a0)

00000ce0 <.L220>:
     ce0:	00c12083          	lw	ra,12(sp)
     ce4:	00812403          	lw	s0,8(sp)
     ce8:	01010113          	addi	sp,sp,16
     cec:	00008067          	ret

00000cf0 <.L222>:
     cf0:	00000513          	li	a0,0
     cf4:	fedff06f          	j	ce0 <.L220>

00000cf8 <duk_get_hstring>:
     cf8:	00010637          	lui	a2,0x10
     cfc:	ff860613          	addi	a2,a2,-8 # fff8 <duk__twodigit_year_fixup+0x30>
     d00:	fc1ff06f          	j	cc0 <duk__get_tagged_heaphdr_raw>

00000d04 <duk_get_hobject>:
     d04:	00010637          	lui	a2,0x10
     d08:	ff960613          	addi	a2,a2,-7 # fff9 <duk__twodigit_year_fixup+0x31>
     d0c:	fb5ff06f          	j	cc0 <duk__get_tagged_heaphdr_raw>

00000d10 <duk_get_hstring_notsymbol>:
     d10:	00010637          	lui	a2,0x10
     d14:	ff010113          	addi	sp,sp,-16
     d18:	ff860613          	addi	a2,a2,-8 # fff8 <duk__twodigit_year_fixup+0x30>
     d1c:	00112623          	sw	ra,12(sp)
     d20:	fa1ff0ef          	jal	ra,cc0 <duk__get_tagged_heaphdr_raw>
     d24:	00050a63          	beqz	a0,d38 <.L226>
     d28:	00052783          	lw	a5,0(a0)
     d2c:	2007f793          	andi	a5,a5,512
     d30:	00078463          	beqz	a5,d38 <.L226>
     d34:	00000513          	li	a0,0

00000d38 <.L226>:
     d38:	00c12083          	lw	ra,12(sp)
     d3c:	01010113          	addi	sp,sp,16
     d40:	00008067          	ret

00000d44 <duk_hobject_has_finalizer_fast_raw>:
     d44:	000027b7          	lui	a5,0x2
     d48:	00050713          	mv	a4,a0
     d4c:	002006b7          	lui	a3,0x200
     d50:	71178513          	addi	a0,a5,1809 # 2711 <.L666+0x1>

00000d54 <.L237>:
     d54:	00072783          	lw	a5,0(a4) # 7ff00000 <_ebss+0x7fea4a20>
     d58:	00f6f7b3          	and	a5,a3,a5
     d5c:	00079e63          	bnez	a5,d78 <.L238>
     d60:	fff50513          	addi	a0,a0,-1
     d64:	00050c63          	beqz	a0,d7c <.L235>
     d68:	01472703          	lw	a4,20(a4)
     d6c:	fe0714e3          	bnez	a4,d54 <.L237>
     d70:	00000513          	li	a0,0
     d74:	00008067          	ret

00000d78 <.L238>:
     d78:	00100513          	li	a0,1

00000d7c <.L235>:
     d7c:	00008067          	ret

00000d80 <duk_js_typeof_stridx>:
     d80:	00655783          	lhu	a5,6(a0)
     d84:	00700713          	li	a4,7
     d88:	00d78793          	addi	a5,a5,13
     d8c:	01079793          	slli	a5,a5,0x10
     d90:	0107d793          	srli	a5,a5,0x10
     d94:	06f76863          	bltu	a4,a5,e04 <.L264>
     d98:	83818713          	addi	a4,gp,-1992 # 50e78 <.L266>
     d9c:	00279793          	slli	a5,a5,0x2
     da0:	00e787b3          	add	a5,a5,a4
     da4:	0007a783          	lw	a5,0(a5)
     da8:	00e787b3          	add	a5,a5,a4
     dac:	00078067          	jr	a5

00000db0 <.L272>:
     db0:	03a00513          	li	a0,58
     db4:	00008067          	ret

00000db8 <.L271>:
     db8:	03500513          	li	a0,53
     dbc:	00008067          	ret

00000dc0 <.L270>:
     dc0:	05f00513          	li	a0,95
     dc4:	00008067          	ret

00000dc8 <.L268>:
     dc8:	00052783          	lw	a5,0(a0)
     dcc:	0007a503          	lw	a0,0(a5)
     dd0:	20057513          	andi	a0,a0,512
     dd4:	00a03533          	snez	a0,a0
     dd8:	03750513          	addi	a0,a0,55
     ddc:	00008067          	ret

00000de0 <.L267>:
     de0:	00052783          	lw	a5,0(a0)
     de4:	03900513          	li	a0,57
     de8:	0007a783          	lw	a5,0(a5)
     dec:	2007f793          	andi	a5,a5,512
     df0:	00078463          	beqz	a5,df8 <.L263>

00000df4 <.L273>:
     df4:	08500513          	li	a0,133

00000df8 <.L263>:
     df8:	00008067          	ret

00000dfc <.L265>:
     dfc:	03900513          	li	a0,57
     e00:	00008067          	ret

00000e04 <.L264>:
     e04:	03600513          	li	a0,54
     e08:	00008067          	ret

00000e0c <duk__emit_esc_auto_fast>:
     e0c:	0ff00793          	li	a5,255
     e10:	00260813          	addi	a6,a2,2
     e14:	04b7ec63          	bltu	a5,a1,e6c <.L278>
     e18:	03052783          	lw	a5,48(a0)
     e1c:	05c00693          	li	a3,92
     e20:	06078863          	beqz	a5,e90 <.L285>
     e24:	07800793          	li	a5,120
     e28:	00200713          	li	a4,2

00000e2c <.L279>:
     e2c:	00d60023          	sb	a3,0(a2)
     e30:	00f600a3          	sb	a5,1(a2)
     e34:	00070693          	mv	a3,a4
     e38:	00080613          	mv	a2,a6
     e3c:	48818513          	addi	a0,gp,1160 # 51ac8 <duk_unicode_xutf8_markers>

00000e40 <.L280>:
     e40:	fff68693          	addi	a3,a3,-1 # 1fffff <_ebss+0x1a4a1f>
     e44:	00269793          	slli	a5,a3,0x2
     e48:	00f5d7b3          	srl	a5,a1,a5
     e4c:	00f7f793          	andi	a5,a5,15
     e50:	00f507b3          	add	a5,a0,a5
     e54:	1207c783          	lbu	a5,288(a5)
     e58:	00160613          	addi	a2,a2,1
     e5c:	fef60fa3          	sb	a5,-1(a2)
     e60:	fe0690e3          	bnez	a3,e40 <.L280>
     e64:	00e80533          	add	a0,a6,a4
     e68:	00008067          	ret

00000e6c <.L278>:
     e6c:	000107b7          	lui	a5,0x10
     e70:	05c00693          	li	a3,92
     e74:	00f5ee63          	bltu	a1,a5,e90 <.L285>
     e78:	03052783          	lw	a5,48(a0)
     e7c:	02078063          	beqz	a5,e9c <.L283>
     e80:	05c00693          	li	a3,92
     e84:	05500793          	li	a5,85

00000e88 <.L286>:
     e88:	00800713          	li	a4,8
     e8c:	fa1ff06f          	j	e2c <.L279>

00000e90 <.L285>:
     e90:	07500793          	li	a5,117
     e94:	00400713          	li	a4,4
     e98:	f95ff06f          	j	e2c <.L279>

00000e9c <.L283>:
     e9c:	05500693          	li	a3,85
     ea0:	02b00793          	li	a5,43
     ea4:	fe5ff06f          	j	e88 <.L286>

00000ea8 <duk__utf8_encode_char>:
     ea8:	ff010113          	addi	sp,sp,-16
     eac:	00812423          	sw	s0,8(sp)
     eb0:	00112623          	sw	ra,12(sp)
     eb4:	07f00793          	li	a5,127
     eb8:	00050413          	mv	s0,a0
     ebc:	00058513          	mv	a0,a1
     ec0:	02b7c663          	blt	a5,a1,eec <.L288>
     ec4:	00442783          	lw	a5,4(s0)
     ec8:	0a079663          	bnez	a5,f74 <.L289>
     ecc:	00042783          	lw	a5,0(s0)
     ed0:	00178713          	addi	a4,a5,1 # 10001 <duk__twodigit_year_fixup+0x39>
     ed4:	00e42023          	sw	a4,0(s0)
     ed8:	00b78023          	sb	a1,0(a5)

00000edc <.L287>:
     edc:	00c12083          	lw	ra,12(sp)
     ee0:	00812403          	lw	s0,8(sp)
     ee4:	01010113          	addi	sp,sp,16
     ee8:	00008067          	ret

00000eec <.L288>:
     eec:	001107b7          	lui	a5,0x110
     ef0:	02f5c263          	blt	a1,a5,f14 <.L291>

00000ef4 <.L295>:
     ef4:	000105b7          	lui	a1,0x10
     ef8:	ffd58513          	addi	a0,a1,-3 # fffd <duk__twodigit_year_fixup+0x35>

00000efc <.L292>:
     efc:	00042583          	lw	a1,0(s0)
     f00:	aacff0ef          	jal	ra,1ac <duk_unicode_encode_xutf8>
     f04:	00042783          	lw	a5,0(s0)
     f08:	00a787b3          	add	a5,a5,a0
     f0c:	00f42023          	sw	a5,0(s0)
     f10:	fcdff06f          	j	edc <.L287>

00000f14 <.L291>:
     f14:	ffff3737          	lui	a4,0xffff3
     f18:	80070713          	addi	a4,a4,-2048 # ffff2800 <_ebss+0xfff97220>
     f1c:	00e58633          	add	a2,a1,a4
     f20:	7ff00693          	li	a3,2047
     f24:	00442783          	lw	a5,4(s0)
     f28:	04c6e463          	bltu	a3,a2,f70 <.L293>
     f2c:	0000e6b7          	lui	a3,0xe
     f30:	bff68693          	addi	a3,a3,-1025 # dbff <.L3803+0x7>
     f34:	00b6c863          	blt	a3,a1,f44 <.L294>
     f38:	00b42223          	sw	a1,4(s0)
     f3c:	fa079ce3          	bnez	a5,ef4 <.L295>
     f40:	f9dff06f          	j	edc <.L287>

00000f44 <.L294>:
     f44:	fa0788e3          	beqz	a5,ef4 <.L295>
     f48:	00e787b3          	add	a5,a5,a4
     f4c:	ffff26b7          	lui	a3,0xffff2
     f50:	40068693          	addi	a3,a3,1024 # ffff2400 <_ebss+0xfff96e20>
     f54:	00a79793          	slli	a5,a5,0xa
     f58:	00010737          	lui	a4,0x10
     f5c:	00d585b3          	add	a1,a1,a3
     f60:	00e787b3          	add	a5,a5,a4
     f64:	00b78533          	add	a0,a5,a1
     f68:	00042223          	sw	zero,4(s0)
     f6c:	f91ff06f          	j	efc <.L292>

00000f70 <.L293>:
     f70:	f80786e3          	beqz	a5,efc <.L292>

00000f74 <.L289>:
     f74:	00042783          	lw	a5,0(s0)
     f78:	00042223          	sw	zero,4(s0)
     f7c:	fef00713          	li	a4,-17
     f80:	00e78023          	sb	a4,0(a5) # 110000 <_ebss+0xb4a20>
     f84:	fbf00713          	li	a4,-65
     f88:	00e780a3          	sb	a4,1(a5)
     f8c:	fbd00713          	li	a4,-67
     f90:	00e78123          	sb	a4,2(a5)
     f94:	00378793          	addi	a5,a5,3
     f98:	00f42023          	sw	a5,0(s0)
     f9c:	f61ff06f          	j	efc <.L292>

00000fa0 <duk__decode_hex_escape>:
     fa0:	00050793          	mv	a5,a0
     fa4:	00b505b3          	add	a1,a0,a1
     fa8:	48818693          	addi	a3,gp,1160 # 51ac8 <duk_unicode_xutf8_markers>
     fac:	00000513          	li	a0,0

00000fb0 <.L309>:
     fb0:	0007c703          	lbu	a4,0(a5)
     fb4:	00178793          	addi	a5,a5,1
     fb8:	00451513          	slli	a0,a0,0x4
     fbc:	00e68733          	add	a4,a3,a4
     fc0:	14470703          	lb	a4,324(a4) # 10144 <.L4282+0x38>
     fc4:	00074863          	bltz	a4,fd4 <.L310>
     fc8:	00e50533          	add	a0,a0,a4
     fcc:	fef592e3          	bne	a1,a5,fb0 <.L309>
     fd0:	00008067          	ret

00000fd4 <.L310>:
     fd4:	fff00513          	li	a0,-1
     fd8:	00008067          	ret

00000fdc <duk__bi_mul>:
     fdc:	fe010113          	addi	sp,sp,-32
     fe0:	00062783          	lw	a5,0(a2)
     fe4:	01312623          	sw	s3,12(sp)
     fe8:	0005a983          	lw	s3,0(a1)
     fec:	00912a23          	sw	s1,20(sp)
     ff0:	00112e23          	sw	ra,28(sp)
     ff4:	00812c23          	sw	s0,24(sp)
     ff8:	01212823          	sw	s2,16(sp)
     ffc:	00f989b3          	add	s3,s3,a5
    1000:	00050493          	mv	s1,a0
    1004:	02099263          	bnez	s3,1028 <.L313>
    1008:	01c12083          	lw	ra,28(sp)
    100c:	01812403          	lw	s0,24(sp)
    1010:	00052023          	sw	zero,0(a0)
    1014:	01412483          	lw	s1,20(sp)
    1018:	01012903          	lw	s2,16(sp)
    101c:	00c12983          	lw	s3,12(sp)
    1020:	02010113          	addi	sp,sp,32
    1024:	00008067          	ret

00001028 <.L313>:
    1028:	00058413          	mv	s0,a1
    102c:	00060913          	mv	s2,a2
    1030:	00000593          	li	a1,0
    1034:	00299613          	slli	a2,s3,0x2
    1038:	00450513          	addi	a0,a0,4
    103c:	6e5370ef          	jal	ra,38f20 <__GI_memset>
    1040:	0134a023          	sw	s3,0(s1)
    1044:	00092303          	lw	t1,0(s2)
    1048:	00042e83          	lw	t4,0(s0)
    104c:	00000593          	li	a1,0
    1050:	00440413          	addi	s0,s0,4

00001054 <.L315>:
    1054:	09d5d463          	bge	a1,t4,10dc <.L320>
    1058:	00259713          	slli	a4,a1,0x2
    105c:	00490893          	addi	a7,s2,4
    1060:	00e48733          	add	a4,s1,a4
    1064:	00000793          	li	a5,0
    1068:	00000813          	li	a6,0
    106c:	03c0006f          	j	10a8 <.L321>

00001070 <.L316>:
    1070:	00072683          	lw	a3,0(a4)
    1074:	0008ae03          	lw	t3,0(a7)
    1078:	00180813          	addi	a6,a6,1
    107c:	00f687b3          	add	a5,a3,a5
    1080:	00d7b533          	sltu	a0,a5,a3
    1084:	00042683          	lw	a3,0(s0)
    1088:	00488893          	addi	a7,a7,4
    108c:	03c68633          	mul	a2,a3,t3
    1090:	03c6b6b3          	mulhu	a3,a3,t3
    1094:	00f607b3          	add	a5,a2,a5
    1098:	00c7b633          	sltu	a2,a5,a2
    109c:	00f72023          	sw	a5,0(a4)
    10a0:	00a686b3          	add	a3,a3,a0
    10a4:	00d607b3          	add	a5,a2,a3

000010a8 <.L321>:
    10a8:	00470713          	addi	a4,a4,4
    10ac:	fc6842e3          	blt	a6,t1,1070 <.L316>
    10b0:	02078063          	beqz	a5,10d0 <.L317>
    10b4:	00030713          	mv	a4,t1
    10b8:	00035463          	bgez	t1,10c0 <.L319>
    10bc:	00000713          	li	a4,0

000010c0 <.L319>:
    10c0:	00b70733          	add	a4,a4,a1
    10c4:	00271713          	slli	a4,a4,0x2
    10c8:	00e48733          	add	a4,s1,a4
    10cc:	00f72223          	sw	a5,4(a4)

000010d0 <.L317>:
    10d0:	00158593          	addi	a1,a1,1
    10d4:	00440413          	addi	s0,s0,4
    10d8:	f7dff06f          	j	1054 <.L315>

000010dc <.L320>:
    10dc:	01812403          	lw	s0,24(sp)
    10e0:	01c12083          	lw	ra,28(sp)
    10e4:	01012903          	lw	s2,16(sp)
    10e8:	00c12983          	lw	s3,12(sp)
    10ec:	00048513          	mv	a0,s1
    10f0:	01412483          	lw	s1,20(sp)
    10f4:	02010113          	addi	sp,sp,32
    10f8:	ee0ff06f          	j	7d8 <duk__bi_normalize>

000010fc <duk__bi_copy>:
    10fc:	0005a603          	lw	a2,0(a1)
    1100:	00450513          	addi	a0,a0,4
    1104:	00458593          	addi	a1,a1,4
    1108:	fec52e23          	sw	a2,-4(a0)
    110c:	00261613          	slli	a2,a2,0x2
    1110:	3413706f          	j	38c50 <__GI_memmove>

00001114 <duk__dragon4_fixed_format_round>:
    1114:	000017b7          	lui	a5,0x1
    1118:	00f507b3          	add	a5,a0,a5
    111c:	8647a783          	lw	a5,-1948(a5) # 864 <duk__bi_add+0x4>
    1120:	0af5de63          	bge	a1,a5,11dc <.L335>
    1124:	0a05cc63          	bltz	a1,11dc <.L335>
    1128:	44052783          	lw	a5,1088(a0)
    112c:	00200693          	li	a3,2
    1130:	ff010113          	addi	sp,sp,-16
    1134:	00178793          	addi	a5,a5,1
    1138:	02d7c7b3          	div	a5,a5,a3
    113c:	00812423          	sw	s0,8(sp)
    1140:	00112623          	sw	ra,12(sp)
    1144:	00912223          	sw	s1,4(sp)
    1148:	00b50733          	add	a4,a0,a1
    114c:	45474703          	lbu	a4,1108(a4)
    1150:	00050413          	mv	s0,a0
    1154:	0ff7f793          	zext.b	a5,a5
    1158:	06f76e63          	bltu	a4,a5,11d4 <.L329>
    115c:	45458593          	addi	a1,a1,1108
    1160:	00b507b3          	add	a5,a0,a1
    1164:	45450593          	addi	a1,a0,1108

00001168 <.L332>:
    1168:	00078023          	sb	zero,0(a5)
    116c:	04f59863          	bne	a1,a5,11bc <.L330>
    1170:	000014b7          	lui	s1,0x1
    1174:	009404b3          	add	s1,s0,s1
    1178:	8644a603          	lw	a2,-1948(s1) # 864 <duk__bi_add+0x4>
    117c:	45540513          	addi	a0,s0,1109
    1180:	2d1370ef          	jal	ra,38c50 <__GI_memmove>
    1184:	00100793          	li	a5,1
    1188:	44f40a23          	sb	a5,1108(s0)
    118c:	44442783          	lw	a5,1092(s0)
    1190:	00100513          	li	a0,1
    1194:	00178793          	addi	a5,a5,1
    1198:	44f42223          	sw	a5,1092(s0)
    119c:	8644a783          	lw	a5,-1948(s1)
    11a0:	00178793          	addi	a5,a5,1
    11a4:	86f4a223          	sw	a5,-1948(s1)

000011a8 <.L328>:
    11a8:	00c12083          	lw	ra,12(sp)
    11ac:	00812403          	lw	s0,8(sp)
    11b0:	00412483          	lw	s1,4(sp)
    11b4:	01010113          	addi	sp,sp,16
    11b8:	00008067          	ret

000011bc <.L330>:
    11bc:	fff7c703          	lbu	a4,-1(a5)
    11c0:	44042683          	lw	a3,1088(s0)
    11c4:	fff78793          	addi	a5,a5,-1
    11c8:	00170713          	addi	a4,a4,1
    11cc:	f8d75ee3          	bge	a4,a3,1168 <.L332>
    11d0:	00e78023          	sb	a4,0(a5)

000011d4 <.L329>:
    11d4:	00000513          	li	a0,0
    11d8:	fd1ff06f          	j	11a8 <.L328>

000011dc <.L335>:
    11dc:	00000513          	li	a0,0
    11e0:	00008067          	ret

000011e4 <duk__json_enc_buffer_data_hex>:
    11e4:	fe010113          	addi	sp,sp,-32
    11e8:	00912a23          	sw	s1,20(sp)
    11ec:	01312623          	sw	s3,12(sp)
    11f0:	00058493          	mv	s1,a1
    11f4:	00050993          	mv	s3,a0
    11f8:	00167593          	andi	a1,a2,1
    11fc:	00812c23          	sw	s0,24(sp)
    1200:	01212823          	sw	s2,16(sp)
    1204:	00060513          	mv	a0,a2
    1208:	00b60433          	add	s0,a2,a1
    120c:	00112e23          	sw	ra,28(sp)
    1210:	ffc4f613          	andi	a2,s1,-4
    1214:	00098793          	mv	a5,s3
    1218:	00000913          	li	s2,0
    121c:	48818693          	addi	a3,gp,1160 # 51ac8 <duk_unicode_xutf8_markers>

00001220 <.L341>:
    1220:	04c96c63          	bltu	s2,a2,1278 <.L342>
    1224:	00058a63          	beqz	a1,1238 <.L343>
    1228:	00161613          	slli	a2,a2,0x1
    122c:	00150593          	addi	a1,a0,1
    1230:	fff40413          	addi	s0,s0,-1
    1234:	21d370ef          	jal	ra,38c50 <__GI_memmove>

00001238 <.L343>:
    1238:	00090713          	mv	a4,s2
    123c:	00040693          	mv	a3,s0
    1240:	48818593          	addi	a1,gp,1160 # 51ac8 <duk_unicode_xutf8_markers>

00001244 <.L344>:
    1244:	08976a63          	bltu	a4,s1,12d8 <.L345>
    1248:	00000513          	li	a0,0
    124c:	0124e663          	bltu	s1,s2,1258 <.L347>
    1250:	412484b3          	sub	s1,s1,s2
    1254:	00149513          	slli	a0,s1,0x1

00001258 <.L347>:
    1258:	01c12083          	lw	ra,28(sp)
    125c:	00a40533          	add	a0,s0,a0
    1260:	01812403          	lw	s0,24(sp)
    1264:	01412483          	lw	s1,20(sp)
    1268:	01012903          	lw	s2,16(sp)
    126c:	00c12983          	lw	s3,12(sp)
    1270:	02010113          	addi	sp,sp,32
    1274:	00008067          	ret

00001278 <.L342>:
    1278:	0007c703          	lbu	a4,0(a5)
    127c:	00840413          	addi	s0,s0,8
    1280:	00490913          	addi	s2,s2,4
    1284:	00171713          	slli	a4,a4,0x1
    1288:	00e68733          	add	a4,a3,a4
    128c:	24475703          	lhu	a4,580(a4)
    1290:	00478793          	addi	a5,a5,4
    1294:	fee41c23          	sh	a4,-8(s0)
    1298:	ffd7c703          	lbu	a4,-3(a5)
    129c:	00171713          	slli	a4,a4,0x1
    12a0:	00e68733          	add	a4,a3,a4
    12a4:	24475703          	lhu	a4,580(a4)
    12a8:	fee41d23          	sh	a4,-6(s0)
    12ac:	ffe7c703          	lbu	a4,-2(a5)
    12b0:	00171713          	slli	a4,a4,0x1
    12b4:	00e68733          	add	a4,a3,a4
    12b8:	24475703          	lhu	a4,580(a4)
    12bc:	fee41e23          	sh	a4,-4(s0)
    12c0:	fff7c703          	lbu	a4,-1(a5)
    12c4:	00171713          	slli	a4,a4,0x1
    12c8:	00e68733          	add	a4,a3,a4
    12cc:	24475703          	lhu	a4,580(a4)
    12d0:	fee41f23          	sh	a4,-2(s0)
    12d4:	f4dff06f          	j	1220 <.L341>

000012d8 <.L345>:
    12d8:	00e987b3          	add	a5,s3,a4
    12dc:	0007c783          	lbu	a5,0(a5)
    12e0:	00268693          	addi	a3,a3,2
    12e4:	00170713          	addi	a4,a4,1
    12e8:	0047d613          	srli	a2,a5,0x4
    12ec:	00c58633          	add	a2,a1,a2
    12f0:	00f7f793          	andi	a5,a5,15
    12f4:	12064603          	lbu	a2,288(a2)
    12f8:	00f587b3          	add	a5,a1,a5
    12fc:	1207c783          	lbu	a5,288(a5)
    1300:	fec68f23          	sb	a2,-2(a3)
    1304:	fef68fa3          	sb	a5,-1(a3)
    1308:	f3dff06f          	j	1244 <.L344>

0000130c <duk__dragon4_format_uint32>:
    130c:	ff010113          	addi	sp,sp,-16
    1310:	00812423          	sw	s0,8(sp)
    1314:	02050413          	addi	s0,a0,32
    1318:	00058793          	mv	a5,a1
    131c:	00112623          	sw	ra,12(sp)
    1320:	00040593          	mv	a1,s0
    1324:	48818813          	addi	a6,gp,1160 # 51ac8 <duk_unicode_xutf8_markers>

00001328 <.L354>:
    1328:	00078693          	mv	a3,a5
    132c:	02c6f733          	remu	a4,a3,a2
    1330:	fff58593          	addi	a1,a1,-1
    1334:	00e80733          	add	a4,a6,a4
    1338:	12074703          	lbu	a4,288(a4)
    133c:	02c7d7b3          	divu	a5,a5,a2
    1340:	00e58023          	sb	a4,0(a1)
    1344:	fec6f2e3          	bgeu	a3,a2,1328 <.L354>
    1348:	40b40433          	sub	s0,s0,a1
    134c:	00040613          	mv	a2,s0
    1350:	101370ef          	jal	ra,38c50 <__GI_memmove>
    1354:	00c12083          	lw	ra,12(sp)
    1358:	00040513          	mv	a0,s0
    135c:	00812403          	lw	s0,8(sp)
    1360:	01010113          	addi	sp,sp,16
    1364:	00008067          	ret

00001368 <duk_js_data_compare>:
    1368:	ff010113          	addi	sp,sp,-16
    136c:	00812423          	sw	s0,8(sp)
    1370:	00912223          	sw	s1,4(sp)
    1374:	00112623          	sw	ra,12(sp)
    1378:	00060493          	mv	s1,a2
    137c:	00068413          	mv	s0,a3
    1380:	00c6f463          	bgeu	a3,a2,1388 <.L358>
    1384:	00068613          	mv	a2,a3

00001388 <.L358>:
    1388:	00060e63          	beqz	a2,13a4 <.L359>
    138c:	39c370ef          	jal	ra,38728 <__GI_memcmp>
    1390:	00050793          	mv	a5,a0
    1394:	fff00513          	li	a0,-1
    1398:	0007cc63          	bltz	a5,13b0 <.L357>
    139c:	00100513          	li	a0,1
    13a0:	00079863          	bnez	a5,13b0 <.L357>

000013a4 <.L359>:
    13a4:	fff00513          	li	a0,-1
    13a8:	0084e463          	bltu	s1,s0,13b0 <.L357>
    13ac:	00943533          	sltu	a0,s0,s1

000013b0 <.L357>:
    13b0:	00c12083          	lw	ra,12(sp)
    13b4:	00812403          	lw	s0,8(sp)
    13b8:	00412483          	lw	s1,4(sp)
    13bc:	01010113          	addi	sp,sp,16
    13c0:	00008067          	ret

000013c4 <duk__cbor_encode_uint32>:
    13c4:	ff010113          	addi	sp,sp,-16
    13c8:	00812423          	sw	s0,8(sp)
    13cc:	00912223          	sw	s1,4(sp)
    13d0:	00112623          	sw	ra,12(sp)
    13d4:	00050493          	mv	s1,a0
    13d8:	01700793          	li	a5,23
    13dc:	0044a403          	lw	s0,4(s1)
    13e0:	00058513          	mv	a0,a1
    13e4:	02b7e463          	bltu	a5,a1,140c <.L369>
    13e8:	00b60633          	add	a2,a2,a1
    13ec:	00140793          	addi	a5,s0,1
    13f0:	00c40023          	sb	a2,0(s0)

000013f4 <.L370>:
    13f4:	00c12083          	lw	ra,12(sp)
    13f8:	00812403          	lw	s0,8(sp)
    13fc:	00f4a223          	sw	a5,4(s1)
    1400:	00412483          	lw	s1,4(sp)
    1404:	01010113          	addi	sp,sp,16
    1408:	00008067          	ret

0000140c <.L369>:
    140c:	0ff00793          	li	a5,255
    1410:	00b7ec63          	bltu	a5,a1,1428 <.L371>
    1414:	01860613          	addi	a2,a2,24
    1418:	00c40023          	sb	a2,0(s0)
    141c:	00240793          	addi	a5,s0,2
    1420:	00b400a3          	sb	a1,1(s0)
    1424:	fd1ff06f          	j	13f4 <.L370>

00001428 <.L371>:
    1428:	000107b7          	lui	a5,0x10
    142c:	02f5fe63          	bgeu	a1,a5,1468 <.L372>
    1430:	00859793          	slli	a5,a1,0x8
    1434:	01059593          	slli	a1,a1,0x10
    1438:	0105d593          	srli	a1,a1,0x10
    143c:	0085d593          	srli	a1,a1,0x8
    1440:	00b7e7b3          	or	a5,a5,a1
    1444:	01079713          	slli	a4,a5,0x10
    1448:	01075713          	srli	a4,a4,0x10
    144c:	01960613          	addi	a2,a2,25
    1450:	00f400a3          	sb	a5,1(s0)
    1454:	00875793          	srli	a5,a4,0x8
    1458:	00f40123          	sb	a5,2(s0)
    145c:	00c40023          	sb	a2,0(s0)
    1460:	00340793          	addi	a5,s0,3
    1464:	f91ff06f          	j	13f4 <.L370>

00001468 <.L372>:
    1468:	01a60613          	addi	a2,a2,26
    146c:	00c40023          	sb	a2,0(s0)
    1470:	210310ef          	jal	ra,32680 <__bswapsi2>
    1474:	00855793          	srli	a5,a0,0x8
    1478:	00f40123          	sb	a5,2(s0)
    147c:	01055793          	srli	a5,a0,0x10
    1480:	00f401a3          	sb	a5,3(s0)
    1484:	01855793          	srli	a5,a0,0x18
    1488:	00f40223          	sb	a5,4(s0)
    148c:	00a400a3          	sb	a0,1(s0)
    1490:	00540793          	addi	a5,s0,5
    1494:	f61ff06f          	j	13f4 <.L370>

00001498 <duk__dump_hstring_raw>:
    1498:	ff010113          	addi	sp,sp,-16
    149c:	01212023          	sw	s2,0(sp)
    14a0:	0145a903          	lw	s2,20(a1)
    14a4:	00812423          	sw	s0,8(sp)
    14a8:	00050413          	mv	s0,a0
    14ac:	00090513          	mv	a0,s2
    14b0:	00112623          	sw	ra,12(sp)
    14b4:	00912223          	sw	s1,4(sp)
    14b8:	00058493          	mv	s1,a1
    14bc:	1c4310ef          	jal	ra,32680 <__bswapsi2>
    14c0:	00855793          	srli	a5,a0,0x8
    14c4:	00a40023          	sb	a0,0(s0)
    14c8:	00f400a3          	sb	a5,1(s0)
    14cc:	01055793          	srli	a5,a0,0x10
    14d0:	01855513          	srli	a0,a0,0x18
    14d4:	00f40123          	sb	a5,2(s0)
    14d8:	00a401a3          	sb	a0,3(s0)
    14dc:	00440413          	addi	s0,s0,4
    14e0:	00090613          	mv	a2,s2
    14e4:	01c48593          	addi	a1,s1,28
    14e8:	00040513          	mv	a0,s0
    14ec:	764370ef          	jal	ra,38c50 <__GI_memmove>
    14f0:	01240533          	add	a0,s0,s2
    14f4:	00c12083          	lw	ra,12(sp)
    14f8:	00812403          	lw	s0,8(sp)
    14fc:	00412483          	lw	s1,4(sp)
    1500:	00012903          	lw	s2,0(sp)
    1504:	01010113          	addi	sp,sp,16
    1508:	00008067          	ret

0000150c <duk_js_arith_pow>:
    150c:	fe010113          	addi	sp,sp,-32
    1510:	00812c23          	sw	s0,24(sp)
    1514:	00912a23          	sw	s1,20(sp)
    1518:	00058413          	mv	s0,a1
    151c:	00050493          	mv	s1,a0
    1520:	00068593          	mv	a1,a3
    1524:	00060513          	mv	a0,a2
    1528:	01212823          	sw	s2,16(sp)
    152c:	01312623          	sw	s3,12(sp)
    1530:	00112e23          	sw	ra,28(sp)
    1534:	01412423          	sw	s4,8(sp)
    1538:	00060993          	mv	s3,a2
    153c:	00068913          	mv	s2,a3
    1540:	be1fe0ef          	jal	ra,120 <duk_repl_fpclassify>
    1544:	06050463          	beqz	a0,15ac <.L381>
    1548:	00056717          	auipc	a4,0x56
    154c:	75070713          	addi	a4,a4,1872 # 57c98 <.LC0>
    1550:	00072603          	lw	a2,0(a4)
    1554:	00472683          	lw	a3,4(a4)
    1558:	00141793          	slli	a5,s0,0x1
    155c:	0017d713          	srli	a4,a5,0x1
    1560:	00050a13          	mv	s4,a0
    1564:	00070593          	mv	a1,a4
    1568:	00048513          	mv	a0,s1
    156c:	064320ef          	jal	ra,335d0 <__eqdf2>
    1570:	00051663          	bnez	a0,157c <.L378>
    1574:	00100793          	li	a5,1
    1578:	02fa0a63          	beq	s4,a5,15ac <.L381>

0000157c <.L378>:
    157c:	00040593          	mv	a1,s0
    1580:	01812403          	lw	s0,24(sp)
    1584:	01c12083          	lw	ra,28(sp)
    1588:	00812a03          	lw	s4,8(sp)
    158c:	00098613          	mv	a2,s3
    1590:	00090693          	mv	a3,s2
    1594:	00c12983          	lw	s3,12(sp)
    1598:	01012903          	lw	s2,16(sp)
    159c:	00048513          	mv	a0,s1
    15a0:	01412483          	lw	s1,20(sp)
    15a4:	02010113          	addi	sp,sp,32
    15a8:	6e93906f          	j	3b490 <__GI_pow>

000015ac <.L381>:
    15ac:	01c12083          	lw	ra,28(sp)
    15b0:	01812403          	lw	s0,24(sp)
    15b4:	00056797          	auipc	a5,0x56
    15b8:	6dc78793          	addi	a5,a5,1756 # 57c90 <.LC1>
    15bc:	0007a503          	lw	a0,0(a5)
    15c0:	0047a583          	lw	a1,4(a5)
    15c4:	01412483          	lw	s1,20(sp)
    15c8:	01012903          	lw	s2,16(sp)
    15cc:	00c12983          	lw	s3,12(sp)
    15d0:	00812a03          	lw	s4,8(sp)
    15d4:	02010113          	addi	sp,sp,32
    15d8:	00008067          	ret

000015dc <duk__floor>:
    15dc:	2e93906f          	j	3b0c4 <__GI_floor>

000015e0 <duk_default_free_function>:
    15e0:	00058513          	mv	a0,a1
    15e4:	2cc3806f          	j	398b0 <free>

000015e8 <duk_default_realloc_function>:
    15e8:	00058513          	mv	a0,a1
    15ec:	00060593          	mv	a1,a2
    15f0:	2cc3806f          	j	398bc <realloc>

000015f4 <duk_default_alloc_function>:
    15f4:	00058513          	mv	a0,a1
    15f8:	0a03806f          	j	39698 <malloc>

000015fc <duk_bi_date_get_now_gettimeofday>:
    15fc:	fe010113          	addi	sp,sp,-32
    1600:	00000593          	li	a1,0
    1604:	00810513          	addi	a0,sp,8
    1608:	00112e23          	sw	ra,28(sp)
    160c:	00812c23          	sw	s0,24(sp)
    1610:	00912a23          	sw	s1,20(sp)
    1614:	01212823          	sw	s2,16(sp)
    1618:	185330ef          	jal	ra,34f9c <__GI_gettimeofday>
    161c:	06051863          	bnez	a0,168c <.L393>
    1620:	00812503          	lw	a0,8(sp)
    1624:	00056917          	auipc	s2,0x56
    1628:	67c90913          	addi	s2,s2,1660 # 57ca0 <.LC3>
    162c:	198330ef          	jal	ra,347c4 <__floatsidf>
    1630:	00092603          	lw	a2,0(s2)
    1634:	00492683          	lw	a3,4(s2)
    1638:	244320ef          	jal	ra,3387c <__muldf3>
    163c:	00050493          	mv	s1,a0
    1640:	00c12503          	lw	a0,12(sp)
    1644:	00058413          	mv	s0,a1
    1648:	17c330ef          	jal	ra,347c4 <__floatsidf>
    164c:	00092603          	lw	a2,0(s2)
    1650:	00492683          	lw	a3,4(s2)
    1654:	0b1310ef          	jal	ra,32f04 <__divdf3>
    1658:	00050613          	mv	a2,a0
    165c:	00058693          	mv	a3,a1
    1660:	00048513          	mv	a0,s1
    1664:	00040593          	mv	a1,s0
    1668:	0b0310ef          	jal	ra,32718 <__adddf3>
    166c:	00050793          	mv	a5,a0

00001670 <.L390>:
    1670:	01c12083          	lw	ra,28(sp)
    1674:	01812403          	lw	s0,24(sp)
    1678:	01412483          	lw	s1,20(sp)
    167c:	01012903          	lw	s2,16(sp)
    1680:	00078513          	mv	a0,a5
    1684:	02010113          	addi	sp,sp,32
    1688:	00008067          	ret

0000168c <.L393>:
    168c:	00000793          	li	a5,0
    1690:	00000593          	li	a1,0
    1694:	fddff06f          	j	1670 <.L390>

00001698 <duk__atan2_fixed>:
    1698:	5e53906f          	j	3b47c <__GI_atan2>

0000169c <duk__trunc>:
    169c:	5293906f          	j	3b3c4 <__GI_trunc>

000016a0 <duk__log10>:
    16a0:	5ed3906f          	j	3b48c <__GI_log10>

000016a4 <duk__log2>:
    16a4:	5e53906f          	j	3b488 <__GI_log2>

000016a8 <duk__cbrt>:
    16a8:	5103906f          	j	3abb8 <__GI_cbrt>

000016ac <duk__tan>:
    16ac:	49d3906f          	j	3b348 <__GI_tan>

000016b0 <duk__sqrt>:
    16b0:	5e93906f          	j	3b498 <__GI_sqrt>

000016b4 <duk__sin>:
    16b4:	3d53906f          	j	3b288 <__GI_sin>

000016b8 <duk__log>:
    16b8:	5cd3906f          	j	3b484 <__GI_log>

000016bc <duk__exp>:
    16bc:	5c53906f          	j	3b480 <__GI_exp>

000016c0 <duk__cos>:
    16c0:	1313906f          	j	3aff0 <__GI_cos>

000016c4 <duk__ceil>:
    16c4:	7743906f          	j	3ae38 <__GI_ceil>

000016c8 <duk__atan>:
    16c8:	0643906f          	j	3a72c <__GI_atan>

000016cc <duk__asin>:
    16cc:	5ad3906f          	j	3b478 <__GI_asin>

000016d0 <duk__acos>:
    16d0:	5a53906f          	j	3b474 <__GI_acos>

000016d4 <duk_unicode_encode_cesu8>:
    16d4:	07f00793          	li	a5,127
    16d8:	00a7e863          	bltu	a5,a0,16e8 <.L411>
    16dc:	00a58023          	sb	a0,0(a1)
    16e0:	00100513          	li	a0,1
    16e4:	00008067          	ret

000016e8 <.L411>:
    16e8:	7ff00793          	li	a5,2047
    16ec:	02a7e263          	bltu	a5,a0,1710 <.L413>
    16f0:	00655793          	srli	a5,a0,0x6
    16f4:	03f57513          	andi	a0,a0,63
    16f8:	fc078793          	addi	a5,a5,-64
    16fc:	f8050513          	addi	a0,a0,-128
    1700:	00a580a3          	sb	a0,1(a1)
    1704:	00f58023          	sb	a5,0(a1)
    1708:	00200513          	li	a0,2
    170c:	00008067          	ret

00001710 <.L413>:
    1710:	000107b7          	lui	a5,0x10
    1714:	02f57a63          	bgeu	a0,a5,1748 <.L414>
    1718:	00c55793          	srli	a5,a0,0xc
    171c:	fe078793          	addi	a5,a5,-32 # ffe0 <duk__twodigit_year_fixup+0x18>
    1720:	00f58023          	sb	a5,0(a1)
    1724:	00655793          	srli	a5,a0,0x6
    1728:	03f7f793          	andi	a5,a5,63
    172c:	03f57513          	andi	a0,a0,63
    1730:	f8078793          	addi	a5,a5,-128
    1734:	f8050513          	addi	a0,a0,-128
    1738:	00a58123          	sb	a0,2(a1)
    173c:	00f580a3          	sb	a5,1(a1)
    1740:	00300513          	li	a0,3
    1744:	00008067          	ret

00001748 <.L414>:
    1748:	40f50533          	sub	a0,a0,a5
    174c:	01055793          	srli	a5,a0,0x10
    1750:	00f7f793          	andi	a5,a5,15
    1754:	fa078793          	addi	a5,a5,-96
    1758:	00f580a3          	sb	a5,1(a1)
    175c:	00a55793          	srli	a5,a0,0xa
    1760:	03f7f793          	andi	a5,a5,63
    1764:	f8078793          	addi	a5,a5,-128
    1768:	00f58123          	sb	a5,2(a1)
    176c:	00655793          	srli	a5,a0,0x6
    1770:	00f7f793          	andi	a5,a5,15
    1774:	03f57513          	andi	a0,a0,63
    1778:	fed00713          	li	a4,-19
    177c:	fb078793          	addi	a5,a5,-80
    1780:	f8050513          	addi	a0,a0,-128
    1784:	00a582a3          	sb	a0,5(a1)
    1788:	00e58023          	sb	a4,0(a1)
    178c:	00e581a3          	sb	a4,3(a1)
    1790:	00f58223          	sb	a5,4(a1)
    1794:	00600513          	li	a0,6
    1798:	00008067          	ret

0000179c <duk__get_default_h_size>:
    179c:	00700713          	li	a4,7
    17a0:	00050793          	mv	a5,a0
    17a4:	02a76463          	bltu	a4,a0,17cc <.L420>
    17a8:	00000513          	li	a0,0
    17ac:	00008067          	ret

000017b0 <.L418>:
    17b0:	0067d793          	srli	a5,a5,0x6
    17b4:	00651513          	slli	a0,a0,0x6

000017b8 <.L416>:
    17b8:	fef76ce3          	bltu	a4,a5,17b0 <.L418>

000017bc <.L419>:
    17bc:	0017d793          	srli	a5,a5,0x1
    17c0:	00151513          	slli	a0,a0,0x1
    17c4:	fe079ce3          	bnez	a5,17bc <.L419>
    17c8:	00008067          	ret

000017cc <.L420>:
    17cc:	00200513          	li	a0,2
    17d0:	03f00713          	li	a4,63
    17d4:	fe5ff06f          	j	17b8 <.L416>

000017d8 <duk__uni_decode_value>:
    17d8:	ff010113          	addi	sp,sp,-16
    17dc:	00400593          	li	a1,4
    17e0:	00812423          	sw	s0,8(sp)
    17e4:	00112623          	sw	ra,12(sp)
    17e8:	00050413          	mv	s0,a0
    17ec:	90cff0ef          	jal	ra,8f8 <duk_bd_decode>
    17f0:	00e00793          	li	a5,14
    17f4:	00a7fe63          	bgeu	a5,a0,1810 <.L422>
    17f8:	00800593          	li	a1,8
    17fc:	00040513          	mv	a0,s0
    1800:	8f8ff0ef          	jal	ra,8f8 <duk_bd_decode>
    1804:	0fd00793          	li	a5,253
    1808:	00a7ec63          	bltu	a5,a0,1820 <.L424>
    180c:	00f50513          	addi	a0,a0,15

00001810 <.L422>:
    1810:	00c12083          	lw	ra,12(sp)
    1814:	00812403          	lw	s0,8(sp)
    1818:	01010113          	addi	sp,sp,16
    181c:	00008067          	ret

00001820 <.L424>:
    1820:	0fe00793          	li	a5,254
    1824:	00f51c63          	bne	a0,a5,183c <.L425>
    1828:	00c00593          	li	a1,12
    182c:	00040513          	mv	a0,s0
    1830:	8c8ff0ef          	jal	ra,8f8 <duk_bd_decode>
    1834:	10d50513          	addi	a0,a0,269
    1838:	fd9ff06f          	j	1810 <.L422>

0000183c <.L425>:
    183c:	01800593          	li	a1,24
    1840:	00040513          	mv	a0,s0
    1844:	8b4ff0ef          	jal	ra,8f8 <duk_bd_decode>
    1848:	000017b7          	lui	a5,0x1
    184c:	10d78793          	addi	a5,a5,269 # 110d <duk__bi_copy+0x11>
    1850:	00f50533          	add	a0,a0,a5
    1854:	fbdff06f          	j	1810 <.L422>

00001858 <duk__uni_range_match>:
    1858:	fc010113          	addi	sp,sp,-64
    185c:	02912a23          	sw	s1,52(sp)
    1860:	03212823          	sw	s2,48(sp)
    1864:	03312623          	sw	s3,44(sp)
    1868:	02112e23          	sw	ra,60(sp)
    186c:	02812c23          	sw	s0,56(sp)
    1870:	00060493          	mv	s1,a2
    1874:	00012823          	sw	zero,16(sp)
    1878:	00012c23          	sw	zero,24(sp)
    187c:	00012e23          	sw	zero,28(sp)
    1880:	00a12623          	sw	a0,12(sp)
    1884:	00b12a23          	sw	a1,20(sp)
    1888:	00000913          	li	s2,0
    188c:	00c10993          	addi	s3,sp,12

00001890 <.L432>:
    1890:	00098513          	mv	a0,s3
    1894:	f45ff0ef          	jal	ra,17d8 <duk__uni_decode_value>
    1898:	00050413          	mv	s0,a0
    189c:	02050063          	beqz	a0,18bc <.L427>
    18a0:	00098513          	mv	a0,s3
    18a4:	f35ff0ef          	jal	ra,17d8 <duk__uni_decode_value>
    18a8:	00890433          	add	s0,s2,s0
    18ac:	00850933          	add	s2,a0,s0
    18b0:	fe84c0e3          	blt	s1,s0,1890 <.L432>
    18b4:	fc994ee3          	blt	s2,s1,1890 <.L432>
    18b8:	00100413          	li	s0,1

000018bc <.L427>:
    18bc:	03c12083          	lw	ra,60(sp)
    18c0:	00040513          	mv	a0,s0
    18c4:	03812403          	lw	s0,56(sp)
    18c8:	03412483          	lw	s1,52(sp)
    18cc:	03012903          	lw	s2,48(sp)
    18d0:	02c12983          	lw	s3,44(sp)
    18d4:	04010113          	addi	sp,sp,64
    18d8:	00008067          	ret

000018dc <duk_unicode_is_letter>:
    18dc:	07f00793          	li	a5,127
    18e0:	00050613          	mv	a2,a0
    18e4:	00a7ca63          	blt	a5,a0,18f8 <.L436>
    18e8:	fdf57613          	andi	a2,a0,-33
    18ec:	fbf60513          	addi	a0,a2,-65
    18f0:	01a53513          	sltiu	a0,a0,26
    18f4:	00008067          	ret

000018f8 <.L436>:
    18f8:	fe010113          	addi	sp,sp,-32
    18fc:	00a12623          	sw	a0,12(sp)
    1900:	45c00593          	li	a1,1116
    1904:	00050517          	auipc	a0,0x50
    1908:	60850513          	addi	a0,a0,1544 # 51f0c <duk_unicode_ids_noa>
    190c:	00112e23          	sw	ra,28(sp)
    1910:	f49ff0ef          	jal	ra,1858 <duk__uni_range_match>
    1914:	00c12603          	lw	a2,12(sp)
    1918:	00050c63          	beqz	a0,1930 <.L435>
    191c:	02a00593          	li	a1,42
    1920:	00051517          	auipc	a0,0x51
    1924:	a4850513          	addi	a0,a0,-1464 # 52368 <duk_unicode_ids_m_let_noa>
    1928:	f31ff0ef          	jal	ra,1858 <duk__uni_range_match>
    192c:	00153513          	seqz	a0,a0

00001930 <.L435>:
    1930:	01c12083          	lw	ra,28(sp)
    1934:	02010113          	addi	sp,sp,32
    1938:	00008067          	ret

0000193c <duk_double_div>:
    193c:	fe010113          	addi	sp,sp,-32
    1940:	00812c23          	sw	s0,24(sp)
    1944:	01312623          	sw	s3,12(sp)
    1948:	00068413          	mv	s0,a3
    194c:	00060993          	mv	s3,a2
    1950:	00912a23          	sw	s1,20(sp)
    1954:	01212823          	sw	s2,16(sp)
    1958:	00058493          	mv	s1,a1
    195c:	00050913          	mv	s2,a0
    1960:	00000613          	li	a2,0
    1964:	00000693          	li	a3,0
    1968:	00098513          	mv	a0,s3
    196c:	00040593          	mv	a1,s0
    1970:	00112e23          	sw	ra,28(sp)
    1974:	45d310ef          	jal	ra,335d0 <__eqdf2>
    1978:	06051263          	bnez	a0,19dc <.L457>
    197c:	00000613          	li	a2,0
    1980:	00000693          	li	a3,0
    1984:	00090513          	mv	a0,s2
    1988:	00048593          	mv	a1,s1
    198c:	4d1310ef          	jal	ra,3365c <__gedf2>
    1990:	00a05a63          	blez	a0,19a4 <.L458>
    1994:	02045a63          	bgez	s0,19c8 <.L451>

00001998 <.L453>:
    1998:	00056717          	auipc	a4,0x56
    199c:	31870713          	addi	a4,a4,792 # 57cb0 <.LC5>
    19a0:	0300006f          	j	19d0 <.L461>

000019a4 <.L458>:
    19a4:	00000613          	li	a2,0
    19a8:	00000693          	li	a3,0
    19ac:	00090513          	mv	a0,s2
    19b0:	00048593          	mv	a1,s1
    19b4:	5b9310ef          	jal	ra,3376c <__ledf2>
    19b8:	00056717          	auipc	a4,0x56
    19bc:	2d870713          	addi	a4,a4,728 # 57c90 <.LC1>
    19c0:	00055863          	bgez	a0,19d0 <.L461>
    19c4:	fc045ae3          	bgez	s0,1998 <.L453>

000019c8 <.L451>:
    19c8:	00056717          	auipc	a4,0x56
    19cc:	2e070713          	addi	a4,a4,736 # 57ca8 <.LC4>

000019d0 <.L461>:
    19d0:	00072783          	lw	a5,0(a4)
    19d4:	00472583          	lw	a1,4(a4)
    19d8:	01c0006f          	j	19f4 <.L444>

000019dc <.L457>:
    19dc:	00098613          	mv	a2,s3
    19e0:	00040693          	mv	a3,s0
    19e4:	00090513          	mv	a0,s2
    19e8:	00048593          	mv	a1,s1
    19ec:	518310ef          	jal	ra,32f04 <__divdf3>
    19f0:	00050793          	mv	a5,a0

000019f4 <.L444>:
    19f4:	01c12083          	lw	ra,28(sp)
    19f8:	01812403          	lw	s0,24(sp)
    19fc:	01412483          	lw	s1,20(sp)
    1a00:	01012903          	lw	s2,16(sp)
    1a04:	00c12983          	lw	s3,12(sp)
    1a08:	00078513          	mv	a0,a5
    1a0c:	02010113          	addi	sp,sp,32
    1a10:	00008067          	ret

00001a14 <duk_unicode_is_identifier_start>:
    1a14:	07f00793          	li	a5,127
    1a18:	00050613          	mv	a2,a0
    1a1c:	02a7c263          	blt	a5,a0,1a40 <.L463>
    1a20:	00000513          	li	a0,0
    1a24:	04064263          	bltz	a2,1a68 <.L467>
    1a28:	00051797          	auipc	a5,0x51
    1a2c:	0a078793          	addi	a5,a5,160 # 52ac8 <.LANCHOR1>
    1a30:	00c787b3          	add	a5,a5,a2
    1a34:	8cc78503          	lb	a0,-1844(a5)
    1a38:	00a02533          	sgtz	a0,a0
    1a3c:	00008067          	ret

00001a40 <.L463>:
    1a40:	ff010113          	addi	sp,sp,-16
    1a44:	45c00593          	li	a1,1116
    1a48:	00050517          	auipc	a0,0x50
    1a4c:	4c450513          	addi	a0,a0,1220 # 51f0c <duk_unicode_ids_noa>
    1a50:	00112623          	sw	ra,12(sp)
    1a54:	e05ff0ef          	jal	ra,1858 <duk__uni_range_match>
    1a58:	00c12083          	lw	ra,12(sp)
    1a5c:	00a03533          	snez	a0,a0
    1a60:	01010113          	addi	sp,sp,16
    1a64:	00008067          	ret

00001a68 <.L467>:
    1a68:	00008067          	ret

00001a6c <duk_unicode_is_identifier_part>:
    1a6c:	07f00793          	li	a5,127
    1a70:	00050613          	mv	a2,a0
    1a74:	02a7c463          	blt	a5,a0,1a9c <.L470>
    1a78:	00000793          	li	a5,0
    1a7c:	00054c63          	bltz	a0,1a94 <.L475>
    1a80:	00051797          	auipc	a5,0x51
    1a84:	04878793          	addi	a5,a5,72 # 52ac8 <.LANCHOR1>
    1a88:	00a787b3          	add	a5,a5,a0
    1a8c:	8cc78783          	lb	a5,-1844(a5)
    1a90:	00f037b3          	snez	a5,a5

00001a94 <.L475>:
    1a94:	00078513          	mv	a0,a5
    1a98:	00008067          	ret

00001a9c <.L470>:
    1a9c:	fe010113          	addi	sp,sp,-32
    1aa0:	00a12623          	sw	a0,12(sp)
    1aa4:	45c00593          	li	a1,1116
    1aa8:	00050517          	auipc	a0,0x50
    1aac:	46450513          	addi	a0,a0,1124 # 51f0c <duk_unicode_ids_noa>
    1ab0:	00112e23          	sw	ra,28(sp)
    1ab4:	da5ff0ef          	jal	ra,1858 <duk__uni_range_match>
    1ab8:	00100793          	li	a5,1
    1abc:	00051e63          	bnez	a0,1ad8 <.L469>
    1ac0:	00c12603          	lw	a2,12(sp)
    1ac4:	24000593          	li	a1,576
    1ac8:	00051517          	auipc	a0,0x51
    1acc:	94c50513          	addi	a0,a0,-1716 # 52414 <duk_unicode_idp_m_ids_noa>
    1ad0:	d89ff0ef          	jal	ra,1858 <duk__uni_range_match>
    1ad4:	00a037b3          	snez	a5,a0

00001ad8 <.L469>:
    1ad8:	01c12083          	lw	ra,28(sp)
    1adc:	00078513          	mv	a0,a5
    1ae0:	02010113          	addi	sp,sp,32
    1ae4:	00008067          	ret

00001ae8 <duk_js_tointeger_number>:
    1ae8:	fe010113          	addi	sp,sp,-32
    1aec:	7ff007b7          	lui	a5,0x7ff00
    1af0:	00812c23          	sw	s0,24(sp)
    1af4:	00912a23          	sw	s1,20(sp)
    1af8:	00112e23          	sw	ra,28(sp)
    1afc:	01212823          	sw	s2,16(sp)
    1b00:	01312623          	sw	s3,12(sp)
    1b04:	00b7f733          	and	a4,a5,a1
    1b08:	00050493          	mv	s1,a0
    1b0c:	00058413          	mv	s0,a1
    1b10:	04f71063          	bne	a4,a5,1b50 <.L478>
    1b14:	00048513          	mv	a0,s1
    1b18:	00040593          	mv	a1,s0
    1b1c:	890ff0ef          	jal	ra,bac <duk_double_is_nan>
    1b20:	00050663          	beqz	a0,1b2c <.L479>
    1b24:	00000493          	li	s1,0
    1b28:	00000413          	li	s0,0

00001b2c <.L479>:
    1b2c:	01c12083          	lw	ra,28(sp)
    1b30:	00040593          	mv	a1,s0
    1b34:	01812403          	lw	s0,24(sp)
    1b38:	01012903          	lw	s2,16(sp)
    1b3c:	00c12983          	lw	s3,12(sp)
    1b40:	00048513          	mv	a0,s1
    1b44:	01412483          	lw	s1,20(sp)
    1b48:	02010113          	addi	sp,sp,32
    1b4c:	00008067          	ret

00001b50 <.L478>:
    1b50:	80000937          	lui	s2,0x80000
    1b54:	fff94693          	not	a3,s2
    1b58:	00d5f7b3          	and	a5,a1,a3
    1b5c:	00048513          	mv	a0,s1
    1b60:	00058993          	mv	s3,a1
    1b64:	00078593          	mv	a1,a5
    1b68:	05d390ef          	jal	ra,3b3c4 <__GI_trunc>
    1b6c:	00050493          	mv	s1,a0
    1b70:	00058413          	mv	s0,a1
    1b74:	fa09dce3          	bgez	s3,1b2c <.L479>
    1b78:	00b94433          	xor	s0,s2,a1
    1b7c:	fb1ff06f          	j	1b2c <.L479>

00001b80 <duk__timeclip>:
    1b80:	ff010113          	addi	sp,sp,-16
    1b84:	00812423          	sw	s0,8(sp)
    1b88:	00912223          	sw	s1,4(sp)
    1b8c:	00112623          	sw	ra,12(sp)
    1b90:	00050493          	mv	s1,a0
    1b94:	00058413          	mv	s0,a1
    1b98:	dd8fe0ef          	jal	ra,170 <duk_repl_isfinite>
    1b9c:	06050063          	beqz	a0,1bfc <.L497>
    1ba0:	00056797          	auipc	a5,0x56
    1ba4:	11878793          	addi	a5,a5,280 # 57cb8 <.LC6>
    1ba8:	0007a603          	lw	a2,0(a5)
    1bac:	0047a683          	lw	a3,4(a5)
    1bb0:	00048513          	mv	a0,s1
    1bb4:	00040593          	mv	a1,s0
    1bb8:	2a5310ef          	jal	ra,3365c <__gedf2>
    1bbc:	04054063          	bltz	a0,1bfc <.L497>
    1bc0:	00056797          	auipc	a5,0x56
    1bc4:	10078793          	addi	a5,a5,256 # 57cc0 <.LC7>
    1bc8:	0007a603          	lw	a2,0(a5)
    1bcc:	0047a683          	lw	a3,4(a5)
    1bd0:	00048513          	mv	a0,s1
    1bd4:	00040593          	mv	a1,s0
    1bd8:	395310ef          	jal	ra,3376c <__ledf2>
    1bdc:	02a04063          	bgtz	a0,1bfc <.L497>
    1be0:	00040593          	mv	a1,s0
    1be4:	00812403          	lw	s0,8(sp)
    1be8:	00c12083          	lw	ra,12(sp)
    1bec:	00048513          	mv	a0,s1
    1bf0:	00412483          	lw	s1,4(sp)
    1bf4:	01010113          	addi	sp,sp,16
    1bf8:	ef1ff06f          	j	1ae8 <duk_js_tointeger_number>

00001bfc <.L497>:
    1bfc:	00c12083          	lw	ra,12(sp)
    1c00:	00812403          	lw	s0,8(sp)
    1c04:	00056797          	auipc	a5,0x56
    1c08:	08c78793          	addi	a5,a5,140 # 57c90 <.LC1>
    1c0c:	0007a503          	lw	a0,0(a5)
    1c10:	0047a583          	lw	a1,4(a5)
    1c14:	00412483          	lw	s1,4(sp)
    1c18:	01010113          	addi	sp,sp,16
    1c1c:	00008067          	ret

00001c20 <duk__round_fixed>:
    1c20:	ff010113          	addi	sp,sp,-16
    1c24:	00812423          	sw	s0,8(sp)
    1c28:	00912223          	sw	s1,4(sp)
    1c2c:	00112623          	sw	ra,12(sp)
    1c30:	01212023          	sw	s2,0(sp)
    1c34:	00050493          	mv	s1,a0
    1c38:	00058413          	mv	s0,a1
    1c3c:	ce4fe0ef          	jal	ra,120 <duk_repl_fpclassify>
    1c40:	00200793          	li	a5,2
    1c44:	06a7f663          	bgeu	a5,a0,1cb0 <.L500>
    1c48:	00056797          	auipc	a5,0x56
    1c4c:	08078793          	addi	a5,a5,128 # 57cc8 <.LC8>
    1c50:	0007a603          	lw	a2,0(a5)
    1c54:	0047a683          	lw	a3,4(a5)
    1c58:	00048513          	mv	a0,s1
    1c5c:	00040593          	mv	a1,s0
    1c60:	1fd310ef          	jal	ra,3365c <__gedf2>
    1c64:	00056917          	auipc	s2,0x56
    1c68:	06c90913          	addi	s2,s2,108 # 57cd0 <.LC14>
    1c6c:	06054263          	bltz	a0,1cd0 <.L501>
    1c70:	00092603          	lw	a2,0(s2)
    1c74:	00492683          	lw	a3,4(s2)
    1c78:	00048513          	mv	a0,s1
    1c7c:	00040593          	mv	a1,s0
    1c80:	2ed310ef          	jal	ra,3376c <__ledf2>
    1c84:	04055663          	bgez	a0,1cd0 <.L501>
    1c88:	00000613          	li	a2,0
    1c8c:	00000693          	li	a3,0
    1c90:	00048513          	mv	a0,s1
    1c94:	00040593          	mv	a1,s0
    1c98:	2d5310ef          	jal	ra,3376c <__ledf2>
    1c9c:	06055063          	bgez	a0,1cfc <.L509>
    1ca0:	00056797          	auipc	a5,0x56
    1ca4:	fe878793          	addi	a5,a5,-24 # 57c88 <.LC0>
    1ca8:	0007a483          	lw	s1,0(a5)
    1cac:	0047a403          	lw	s0,4(a5)

00001cb0 <.L500>:
    1cb0:	00c12083          	lw	ra,12(sp)
    1cb4:	00040593          	mv	a1,s0
    1cb8:	00812403          	lw	s0,8(sp)
    1cbc:	00012903          	lw	s2,0(sp)
    1cc0:	00048513          	mv	a0,s1
    1cc4:	00412483          	lw	s1,4(sp)
    1cc8:	01010113          	addi	sp,sp,16
    1ccc:	00008067          	ret

00001cd0 <.L501>:
    1cd0:	00092603          	lw	a2,0(s2)
    1cd4:	00492683          	lw	a3,4(s2)
    1cd8:	00048513          	mv	a0,s1
    1cdc:	00040593          	mv	a1,s0
    1ce0:	239300ef          	jal	ra,32718 <__adddf3>
    1ce4:	00812403          	lw	s0,8(sp)
    1ce8:	00c12083          	lw	ra,12(sp)
    1cec:	00412483          	lw	s1,4(sp)
    1cf0:	00012903          	lw	s2,0(sp)
    1cf4:	01010113          	addi	sp,sp,16
    1cf8:	3cc3906f          	j	3b0c4 <__GI_floor>

00001cfc <.L509>:
    1cfc:	00000493          	li	s1,0
    1d00:	00000413          	li	s0,0
    1d04:	fadff06f          	j	1cb0 <.L500>

00001d08 <duk__lexer_parse_legacy_octal.constprop.0>:
    1d08:	00052883          	lw	a7,0(a0)
    1d0c:	00000713          	li	a4,0
    1d10:	00100793          	li	a5,1
    1d14:	00c00313          	li	t1,12
    1d18:	00700e13          	li	t3,7
    1d1c:	0ff00e93          	li	t4,255
    1d20:	00400813          	li	a6,4

00001d24 <.L513>:
    1d24:	026786b3          	mul	a3,a5,t1
    1d28:	00d886b3          	add	a3,a7,a3
    1d2c:	0006a503          	lw	a0,0(a3)
    1d30:	fd050693          	addi	a3,a0,-48
    1d34:	02de6663          	bltu	t3,a3,1d60 <.L512>
    1d38:	00371513          	slli	a0,a4,0x3
    1d3c:	00d50533          	add	a0,a0,a3
    1d40:	02aec063          	blt	t4,a0,1d60 <.L512>
    1d44:	00178793          	addi	a5,a5,1
    1d48:	00050713          	mv	a4,a0
    1d4c:	fd079ce3          	bne	a5,a6,1d24 <.L513>

00001d50 <.L514>:
    1d50:	fff00513          	li	a0,-1
    1d54:	02061263          	bnez	a2,1d78 <.L515>
    1d58:	00070513          	mv	a0,a4
    1d5c:	01c0006f          	j	1d78 <.L515>

00001d60 <.L512>:
    1d60:	00100693          	li	a3,1
    1d64:	02d78263          	beq	a5,a3,1d88 <.L517>
    1d68:	00200693          	li	a3,2
    1d6c:	00d79a63          	bne	a5,a3,1d80 <.L518>
    1d70:	00000513          	li	a0,0
    1d74:	fc071ee3          	bnez	a4,1d50 <.L514>

00001d78 <.L515>:
    1d78:	00f5a023          	sw	a5,0(a1)
    1d7c:	00008067          	ret

00001d80 <.L518>:
    1d80:	00300793          	li	a5,3
    1d84:	fcdff06f          	j	1d50 <.L514>

00001d88 <.L517>:
    1d88:	00200793          	li	a5,2
    1d8c:	fedff06f          	j	1d78 <.L515>

00001d90 <duk_bi_reflect_construct>:
    1d90:	ffa00513          	li	a0,-6
    1d94:	00008067          	ret

00001d98 <duk_get_hobject_with_class.constprop.0>:
    1d98:	00010637          	lui	a2,0x10
    1d9c:	ff010113          	addi	sp,sp,-16
    1da0:	ff960613          	addi	a2,a2,-7 # fff9 <duk__twodigit_year_fixup+0x31>
    1da4:	00000593          	li	a1,0
    1da8:	00112623          	sw	ra,12(sp)
    1dac:	f15fe0ef          	jal	ra,cc0 <duk__get_tagged_heaphdr_raw>
    1db0:	00050c63          	beqz	a0,1dc8 <.L523>
    1db4:	00052783          	lw	a5,0(a0)
    1db8:	00b00713          	li	a4,11
    1dbc:	01b7d793          	srli	a5,a5,0x1b
    1dc0:	00e78463          	beq	a5,a4,1dc8 <.L523>
    1dc4:	00000513          	li	a0,0

00001dc8 <.L523>:
    1dc8:	00c12083          	lw	ra,12(sp)
    1dcc:	01010113          	addi	sp,sp,16
    1dd0:	00008067          	ret

00001dd4 <duk__slow_case_conversion.constprop.0>:
    1dd4:	fd010113          	addi	sp,sp,-48
    1dd8:	02812423          	sw	s0,40(sp)
    1ddc:	02912223          	sw	s1,36(sp)
    1de0:	03212023          	sw	s2,32(sp)
    1de4:	01512a23          	sw	s5,20(sp)
    1de8:	01612823          	sw	s6,16(sp)
    1dec:	02112623          	sw	ra,44(sp)
    1df0:	01312e23          	sw	s3,28(sp)
    1df4:	01412c23          	sw	s4,24(sp)
    1df8:	01712623          	sw	s7,12(sp)
    1dfc:	00050913          	mv	s2,a0
    1e00:	00058493          	mv	s1,a1
    1e04:	00060413          	mv	s0,a2
    1e08:	00000b13          	li	s6,0
    1e0c:	03f00a93          	li	s5,63

00001e10 <.L535>:
    1e10:	00600593          	li	a1,6
    1e14:	00040513          	mv	a0,s0
    1e18:	ae1fe0ef          	jal	ra,8f8 <duk_bd_decode>
    1e1c:	001b0b13          	addi	s6,s6,1
    1e20:	00050a13          	mv	s4,a0
    1e24:	09551663          	bne	a0,s5,1eb0 <.L531>
    1e28:	00700593          	li	a1,7
    1e2c:	00040513          	mv	a0,s0
    1e30:	ac9fe0ef          	jal	ra,8f8 <duk_bd_decode>
    1e34:	00050993          	mv	s3,a0

00001e38 <.L536>:
    1e38:	0e099263          	bnez	s3,1f1c <.L537>
    1e3c:	00700593          	li	a1,7
    1e40:	00040513          	mv	a0,s0
    1e44:	ab5fe0ef          	jal	ra,8f8 <duk_bd_decode>
    1e48:	00050a13          	mv	s4,a0

00001e4c <.L538>:
    1e4c:	0a0a0863          	beqz	s4,1efc <.L533>
    1e50:	01000593          	li	a1,16
    1e54:	00040513          	mv	a0,s0
    1e58:	aa1fe0ef          	jal	ra,8f8 <duk_bd_decode>
    1e5c:	00050a93          	mv	s5,a0
    1e60:	00200593          	li	a1,2
    1e64:	00040513          	mv	a0,s0
    1e68:	a91fe0ef          	jal	ra,8f8 <duk_bd_decode>
    1e6c:	00050993          	mv	s3,a0
    1e70:	11549a63          	bne	s1,s5,1f84 <.L539>
    1e74:	0e091c63          	bnez	s2,1f6c <.L540>

00001e78 <.L543>:
    1e78:	fff00493          	li	s1,-1

00001e7c <.L541>:
    1e7c:	02c12083          	lw	ra,44(sp)
    1e80:	02812403          	lw	s0,40(sp)
    1e84:	02012903          	lw	s2,32(sp)
    1e88:	01c12983          	lw	s3,28(sp)
    1e8c:	01812a03          	lw	s4,24(sp)
    1e90:	01412a83          	lw	s5,20(sp)
    1e94:	01012b03          	lw	s6,16(sp)
    1e98:	00c12b83          	lw	s7,12(sp)
    1e9c:	00048513          	mv	a0,s1
    1ea0:	02412483          	lw	s1,36(sp)
    1ea4:	03010113          	addi	sp,sp,48
    1ea8:	00008067          	ret

00001eac <.L532>:
    1eac:	fffa0a13          	addi	s4,s4,-1

00001eb0 <.L531>:
    1eb0:	f60a00e3          	beqz	s4,1e10 <.L535>
    1eb4:	01000593          	li	a1,16
    1eb8:	00040513          	mv	a0,s0
    1ebc:	a3dfe0ef          	jal	ra,8f8 <duk_bd_decode>
    1ec0:	00050993          	mv	s3,a0
    1ec4:	01000593          	li	a1,16
    1ec8:	00040513          	mv	a0,s0
    1ecc:	a2dfe0ef          	jal	ra,8f8 <duk_bd_decode>
    1ed0:	00050b93          	mv	s7,a0
    1ed4:	00700593          	li	a1,7
    1ed8:	00040513          	mv	a0,s0
    1edc:	a1dfe0ef          	jal	ra,8f8 <duk_bd_decode>
    1ee0:	fd34c6e3          	blt	s1,s3,1eac <.L532>
    1ee4:	03650733          	mul	a4,a0,s6
    1ee8:	413487b3          	sub	a5,s1,s3
    1eec:	fce7d0e3          	bge	a5,a4,1eac <.L532>
    1ef0:	0367e733          	rem	a4,a5,s6
    1ef4:	fa071ce3          	bnez	a4,1eac <.L532>
    1ef8:	00fb84b3          	add	s1,s7,a5

00001efc <.L533>:
    1efc:	f80900e3          	beqz	s2,1e7c <.L541>
    1f00:	00092583          	lw	a1,0(s2)
    1f04:	00048513          	mv	a0,s1
    1f08:	aa4fe0ef          	jal	ra,1ac <duk_unicode_encode_xutf8>
    1f0c:	00092783          	lw	a5,0(s2)
    1f10:	00a787b3          	add	a5,a5,a0
    1f14:	00f92023          	sw	a5,0(s2)
    1f18:	f65ff06f          	j	1e7c <.L541>

00001f1c <.L537>:
    1f1c:	01000593          	li	a1,16
    1f20:	00040513          	mv	a0,s0
    1f24:	9d5fe0ef          	jal	ra,8f8 <duk_bd_decode>
    1f28:	00050a13          	mv	s4,a0
    1f2c:	01000593          	li	a1,16
    1f30:	00040513          	mv	a0,s0
    1f34:	9c5fe0ef          	jal	ra,8f8 <duk_bd_decode>
    1f38:	fff98993          	addi	s3,s3,-1
    1f3c:	ef449ee3          	bne	s1,s4,1e38 <.L536>
    1f40:	00050493          	mv	s1,a0
    1f44:	fb9ff06f          	j	1efc <.L533>

00001f48 <.L542>:
    1f48:	01000593          	li	a1,16
    1f4c:	00040513          	mv	a0,s0
    1f50:	9a9fe0ef          	jal	ra,8f8 <duk_bd_decode>
    1f54:	00092583          	lw	a1,0(s2)
    1f58:	fff98993          	addi	s3,s3,-1
    1f5c:	a50fe0ef          	jal	ra,1ac <duk_unicode_encode_xutf8>
    1f60:	00092783          	lw	a5,0(s2)
    1f64:	00a787b3          	add	a5,a5,a0
    1f68:	00f92023          	sw	a5,0(s2)

00001f6c <.L540>:
    1f6c:	fc099ee3          	bnez	s3,1f48 <.L542>
    1f70:	f09ff06f          	j	1e78 <.L543>

00001f74 <.L544>:
    1f74:	01000593          	li	a1,16
    1f78:	00040513          	mv	a0,s0
    1f7c:	97dfe0ef          	jal	ra,8f8 <duk_bd_decode>
    1f80:	fff98993          	addi	s3,s3,-1

00001f84 <.L539>:
    1f84:	fe0998e3          	bnez	s3,1f74 <.L544>
    1f88:	fffa0a13          	addi	s4,s4,-1
    1f8c:	ec1ff06f          	j	1e4c <.L538>

00001f90 <duk_unicode_decode_xutf8.constprop.0>:
    1f90:	00052703          	lw	a4,0(a0)
    1f94:	00050813          	mv	a6,a0
    1f98:	00000513          	li	a0,0
    1f9c:	02b76863          	bltu	a4,a1,1fcc <.L554>
    1fa0:	02c77663          	bgeu	a4,a2,1fcc <.L554>
    1fa4:	00074783          	lbu	a5,0(a4)
    1fa8:	01879593          	slli	a1,a5,0x18
    1fac:	4185d593          	srai	a1,a1,0x18
    1fb0:	0205c063          	bltz	a1,1fd0 <.L556>
    1fb4:	00000593          	li	a1,0

00001fb8 <.L557>:
    1fb8:	00158893          	addi	a7,a1,1
    1fbc:	011708b3          	add	a7,a4,a7
    1fc0:	00000513          	li	a0,0
    1fc4:	00b705b3          	add	a1,a4,a1
    1fc8:	0b167263          	bgeu	a2,a7,206c <.L563>

00001fcc <.L554>:
    1fcc:	00008067          	ret

00001fd0 <.L556>:
    1fd0:	0bf00593          	li	a1,191
    1fd4:	00000513          	li	a0,0
    1fd8:	fef5fae3          	bgeu	a1,a5,1fcc <.L554>
    1fdc:	0df00593          	li	a1,223
    1fe0:	00f5e863          	bltu	a1,a5,1ff0 <.L558>
    1fe4:	01f7f793          	andi	a5,a5,31
    1fe8:	00100593          	li	a1,1
    1fec:	fcdff06f          	j	1fb8 <.L557>

00001ff0 <.L558>:
    1ff0:	0ef00593          	li	a1,239
    1ff4:	00f5e863          	bltu	a1,a5,2004 <.L559>
    1ff8:	00f7f793          	andi	a5,a5,15
    1ffc:	00200593          	li	a1,2
    2000:	fb9ff06f          	j	1fb8 <.L557>

00002004 <.L559>:
    2004:	0f700593          	li	a1,247
    2008:	00f5e863          	bltu	a1,a5,2018 <.L560>
    200c:	0077f793          	andi	a5,a5,7
    2010:	00300593          	li	a1,3
    2014:	fa5ff06f          	j	1fb8 <.L557>

00002018 <.L560>:
    2018:	0fb00593          	li	a1,251
    201c:	00f5e863          	bltu	a1,a5,202c <.L561>
    2020:	0037f793          	andi	a5,a5,3
    2024:	00400593          	li	a1,4
    2028:	f91ff06f          	j	1fb8 <.L557>

0000202c <.L561>:
    202c:	0fd00593          	li	a1,253
    2030:	00f5e863          	bltu	a1,a5,2040 <.L562>
    2034:	0017f793          	andi	a5,a5,1
    2038:	00500593          	li	a1,5
    203c:	f7dff06f          	j	1fb8 <.L557>

00002040 <.L562>:
    2040:	0ff00593          	li	a1,255
    2044:	00000513          	li	a0,0
    2048:	f8b782e3          	beq	a5,a1,1fcc <.L554>
    204c:	00600593          	li	a1,6
    2050:	00000793          	li	a5,0
    2054:	f65ff06f          	j	1fb8 <.L557>

00002058 <.L564>:
    2058:	00174603          	lbu	a2,1(a4)
    205c:	00679793          	slli	a5,a5,0x6
    2060:	00170713          	addi	a4,a4,1
    2064:	03f67613          	andi	a2,a2,63
    2068:	00f607b3          	add	a5,a2,a5

0000206c <.L563>:
    206c:	fee596e3          	bne	a1,a4,2058 <.L564>
    2070:	01182023          	sw	a7,0(a6)
    2074:	00f6a023          	sw	a5,0(a3)
    2078:	00100513          	li	a0,1
    207c:	00008067          	ret

00002080 <duk_copy_tvals_incref.constprop.0>:
    2080:	ff010113          	addi	sp,sp,-16
    2084:	00812423          	sw	s0,8(sp)
    2088:	00912223          	sw	s1,4(sp)
    208c:	00060413          	mv	s0,a2
    2090:	00112623          	sw	ra,12(sp)
    2094:	00361613          	slli	a2,a2,0x3
    2098:	00050493          	mv	s1,a0
    209c:	00060463          	beqz	a2,20a4 <.L571>
    20a0:	3b1360ef          	jal	ra,38c50 <__GI_memmove>

000020a4 <.L571>:
    20a4:	000107b7          	lui	a5,0x10
    20a8:	fff00613          	li	a2,-1
    20ac:	ff778793          	addi	a5,a5,-9 # fff7 <duk__twodigit_year_fixup+0x2f>

000020b0 <.L572>:
    20b0:	fff40413          	addi	s0,s0,-1
    20b4:	00c41c63          	bne	s0,a2,20cc <.L574>
    20b8:	00c12083          	lw	ra,12(sp)
    20bc:	00812403          	lw	s0,8(sp)
    20c0:	00412483          	lw	s1,4(sp)
    20c4:	01010113          	addi	sp,sp,16
    20c8:	00008067          	ret

000020cc <.L574>:
    20cc:	0064d703          	lhu	a4,6(s1)
    20d0:	00e7fa63          	bgeu	a5,a4,20e4 <.L573>
    20d4:	0004a683          	lw	a3,0(s1)
    20d8:	0046a703          	lw	a4,4(a3)
    20dc:	00170713          	addi	a4,a4,1
    20e0:	00e6a223          	sw	a4,4(a3)

000020e4 <.L573>:
    20e4:	00848493          	addi	s1,s1,8
    20e8:	fc9ff06f          	j	20b0 <.L572>

000020ec <duk_hthread_get_act_prev_pc.constprop.0>:
    20ec:	00852683          	lw	a3,8(a0)
    20f0:	00050713          	mv	a4,a0
    20f4:	02068a63          	beqz	a3,2128 <.L581>
    20f8:	0006a783          	lw	a5,0(a3)
    20fc:	00001637          	lui	a2,0x1
    2100:	80060613          	addi	a2,a2,-2048 # 800 <duk__bi_compare>
    2104:	00c7f533          	and	a0,a5,a2
    2108:	02050263          	beqz	a0,212c <.L579>
    210c:	01c72503          	lw	a0,28(a4)
    2110:	0306a783          	lw	a5,48(a3)
    2114:	40f50533          	sub	a0,a0,a5
    2118:	40255513          	srai	a0,a0,0x2
    211c:	00050863          	beqz	a0,212c <.L579>
    2120:	fff50513          	addi	a0,a0,-1
    2124:	00008067          	ret

00002128 <.L581>:
    2128:	00000513          	li	a0,0

0000212c <.L579>:
    212c:	00008067          	ret

00002130 <duk_hobject_find_entry.constprop.0>:
    2130:	00050713          	mv	a4,a0
    2134:	02452503          	lw	a0,36(a0)
    2138:	01072e03          	lw	t3,16(a4)
    213c:	01872783          	lw	a5,24(a4)
    2140:	04051263          	bnez	a0,2184 <.L589>
    2144:	00379793          	slli	a5,a5,0x3
    2148:	01c72803          	lw	a6,28(a4)
    214c:	00fe0733          	add	a4,t3,a5
    2150:	00000793          	li	a5,0

00002154 <.L590>:
    2154:	00f81463          	bne	a6,a5,215c <.L593>
    2158:	00008067          	ret

0000215c <.L593>:
    215c:	00072883          	lw	a7,0(a4)
    2160:	00470713          	addi	a4,a4,4
    2164:	00b89c63          	bne	a7,a1,217c <.L591>
    2168:	fff00813          	li	a6,-1

0000216c <.L592>:
    216c:	00f62023          	sw	a5,0(a2)
    2170:	0106a023          	sw	a6,0(a3)
    2174:	00100513          	li	a0,1
    2178:	00008067          	ret

0000217c <.L591>:
    217c:	00178793          	addi	a5,a5,1
    2180:	fd5ff06f          	j	2154 <.L590>

00002184 <.L589>:
    2184:	02072883          	lw	a7,32(a4)
    2188:	00d00713          	li	a4,13
    218c:	02e78733          	mul	a4,a5,a4
    2190:	00c5a803          	lw	a6,12(a1)
    2194:	00389893          	slli	a7,a7,0x3
    2198:	fff50513          	addi	a0,a0,-1
    219c:	01057833          	and	a6,a0,a6
    21a0:	fff00e93          	li	t4,-1
    21a4:	ffe00f13          	li	t5,-2
    21a8:	00e888b3          	add	a7,a7,a4
    21ac:	40f00733          	neg	a4,a5
    21b0:	00777713          	andi	a4,a4,7
    21b4:	00e888b3          	add	a7,a7,a4
    21b8:	00179713          	slli	a4,a5,0x1

000021bc <.L596>:
    21bc:	00281793          	slli	a5,a6,0x2
    21c0:	00fe07b3          	add	a5,t3,a5
    21c4:	011787b3          	add	a5,a5,a7
    21c8:	0007a783          	lw	a5,0(a5)
    21cc:	03d78463          	beq	a5,t4,21f4 <.L597>
    21d0:	01e78c63          	beq	a5,t5,21e8 <.L595>
    21d4:	00e78333          	add	t1,a5,a4
    21d8:	00231313          	slli	t1,t1,0x2
    21dc:	006e0333          	add	t1,t3,t1
    21e0:	00032303          	lw	t1,0(t1)
    21e4:	f86584e3          	beq	a1,t1,216c <.L592>

000021e8 <.L595>:
    21e8:	00180813          	addi	a6,a6,1
    21ec:	01057833          	and	a6,a0,a6
    21f0:	fcdff06f          	j	21bc <.L596>

000021f4 <.L597>:
    21f4:	00000513          	li	a0,0
    21f8:	00008067          	ret

000021fc <duk__compute_a_stats.constprop.0>:
    21fc:	01852783          	lw	a5,24(a0)
    2200:	00d00693          	li	a3,13
    2204:	00010837          	lui	a6,0x10
    2208:	40f00733          	neg	a4,a5
    220c:	02d787b3          	mul	a5,a5,a3
    2210:	00777713          	andi	a4,a4,7
    2214:	02052883          	lw	a7,32(a0)
    2218:	00000693          	li	a3,0
    221c:	ff280813          	addi	a6,a6,-14 # fff2 <duk__twodigit_year_fixup+0x2a>
    2220:	00f70733          	add	a4,a4,a5
    2224:	01052783          	lw	a5,16(a0)
    2228:	00000513          	li	a0,0
    222c:	00e787b3          	add	a5,a5,a4
    2230:	fff00713          	li	a4,-1

00002234 <.L599>:
    2234:	01169a63          	bne	a3,a7,2248 <.L601>
    2238:	00a5a023          	sw	a0,0(a1)
    223c:	00170713          	addi	a4,a4,1
    2240:	00e62023          	sw	a4,0(a2)
    2244:	00008067          	ret

00002248 <.L601>:
    2248:	0067d303          	lhu	t1,6(a5)
    224c:	00878793          	addi	a5,a5,8
    2250:	01030663          	beq	t1,a6,225c <.L600>
    2254:	00150513          	addi	a0,a0,1
    2258:	00068713          	mv	a4,a3

0000225c <.L600>:
    225c:	00168693          	addi	a3,a3,1
    2260:	fd5ff06f          	j	2234 <.L599>

00002264 <duk__count_used_e_keys.constprop.0>:
    2264:	01852683          	lw	a3,24(a0)
    2268:	01052583          	lw	a1,16(a0)
    226c:	01c52603          	lw	a2,28(a0)
    2270:	00369693          	slli	a3,a3,0x3
    2274:	00000513          	li	a0,0
    2278:	00000713          	li	a4,0

0000227c <.L603>:
    227c:	00c71463          	bne	a4,a2,2284 <.L605>
    2280:	00008067          	ret

00002284 <.L605>:
    2284:	00271793          	slli	a5,a4,0x2
    2288:	00d787b3          	add	a5,a5,a3
    228c:	00f587b3          	add	a5,a1,a5
    2290:	0007a783          	lw	a5,0(a5)
    2294:	00078463          	beqz	a5,229c <.L604>
    2298:	00150513          	addi	a0,a0,1

0000229c <.L604>:
    229c:	00170713          	addi	a4,a4,1
    22a0:	fddff06f          	j	227c <.L603>

000022a4 <duk__mark_tval>:
    22a4:	00058e63          	beqz	a1,22c0 <.L609>
    22a8:	0065d703          	lhu	a4,6(a1)
    22ac:	000107b7          	lui	a5,0x10
    22b0:	ff778793          	addi	a5,a5,-9 # fff7 <duk__twodigit_year_fixup+0x2f>
    22b4:	00e7f663          	bgeu	a5,a4,22c0 <.L609>
    22b8:	0005a583          	lw	a1,0(a1)
    22bc:	0080006f          	j	22c4 <duk__mark_heaphdr>

000022c0 <.L609>:
    22c0:	00008067          	ret

000022c4 <duk__mark_heaphdr>:
    22c4:	32058c63          	beqz	a1,25fc <.L656>
    22c8:	0005a783          	lw	a5,0(a1)
    22cc:	fe010113          	addi	sp,sp,-32
    22d0:	00812c23          	sw	s0,24(sp)
    22d4:	01212823          	sw	s2,16(sp)
    22d8:	00112e23          	sw	ra,28(sp)
    22dc:	00912a23          	sw	s1,20(sp)
    22e0:	01312623          	sw	s3,12(sp)
    22e4:	01412423          	sw	s4,8(sp)
    22e8:	01512223          	sw	s5,4(sp)
    22ec:	01612023          	sw	s6,0(sp)
    22f0:	0047f913          	andi	s2,a5,4
    22f4:	00058413          	mv	s0,a1
    22f8:	02091863          	bnez	s2,2328 <.L614>
    22fc:	0047e713          	ori	a4,a5,4
    2300:	00e5a023          	sw	a4,0(a1)
    2304:	03052703          	lw	a4,48(a0)
    2308:	0ff00693          	li	a3,255
    230c:	00050493          	mv	s1,a0
    2310:	04e6f063          	bgeu	a3,a4,2350 <.L616>
    2314:	00052703          	lw	a4,0(a0)
    2318:	00c7e793          	ori	a5,a5,12
    231c:	00176713          	ori	a4,a4,1
    2320:	00e52023          	sw	a4,0(a0)
    2324:	00f5a023          	sw	a5,0(a1)

00002328 <.L614>:
    2328:	01c12083          	lw	ra,28(sp)
    232c:	01812403          	lw	s0,24(sp)
    2330:	01412483          	lw	s1,20(sp)
    2334:	01012903          	lw	s2,16(sp)
    2338:	00c12983          	lw	s3,12(sp)
    233c:	00812a03          	lw	s4,8(sp)
    2340:	00412a83          	lw	s5,4(sp)
    2344:	00012b03          	lw	s6,0(sp)
    2348:	02010113          	addi	sp,sp,32
    234c:	00008067          	ret

00002350 <.L616>:
    2350:	00170713          	addi	a4,a4,1
    2354:	02e52823          	sw	a4,48(a0)
    2358:	0037f793          	andi	a5,a5,3
    235c:	00100713          	li	a4,1
    2360:	0ee79a63          	bne	a5,a4,2454 <.L618>
    2364:	00000a93          	li	s5,0
    2368:	00c00a13          	li	s4,12
    236c:	06c0006f          	j	23d8 <.L617>

00002370 <.L621>:
    2370:	01842783          	lw	a5,24(s0)
    2374:	01042983          	lw	s3,16(s0)
    2378:	00179793          	slli	a5,a5,0x1
    237c:	015787b3          	add	a5,a5,s5
    2380:	00279793          	slli	a5,a5,0x2
    2384:	00f987b3          	add	a5,s3,a5
    2388:	0007a583          	lw	a1,0(a5)
    238c:	04058463          	beqz	a1,23d4 <.L619>
    2390:	00048513          	mv	a0,s1
    2394:	f31ff0ef          	jal	ra,22c4 <duk__mark_heaphdr>
    2398:	01842783          	lw	a5,24(s0)
    239c:	003a9b13          	slli	s6,s5,0x3
    23a0:	01698b33          	add	s6,s3,s6
    23a4:	034787b3          	mul	a5,a5,s4
    23a8:	00f989b3          	add	s3,s3,a5
    23ac:	015989b3          	add	s3,s3,s5
    23b0:	0009c783          	lbu	a5,0(s3)
    23b4:	0087f793          	andi	a5,a5,8
    23b8:	0a078663          	beqz	a5,2464 <.L620>
    23bc:	000b2583          	lw	a1,0(s6)
    23c0:	00048513          	mv	a0,s1
    23c4:	f01ff0ef          	jal	ra,22c4 <duk__mark_heaphdr>
    23c8:	004b2583          	lw	a1,4(s6)
    23cc:	00048513          	mv	a0,s1
    23d0:	ef5ff0ef          	jal	ra,22c4 <duk__mark_heaphdr>

000023d4 <.L619>:
    23d4:	001a8a93          	addi	s5,s5,1

000023d8 <.L617>:
    23d8:	01c42783          	lw	a5,28(s0)
    23dc:	f8faeae3          	bltu	s5,a5,2370 <.L621>
    23e0:	00d00993          	li	s3,13

000023e4 <.L622>:
    23e4:	02042783          	lw	a5,32(s0)
    23e8:	08f96663          	bltu	s2,a5,2474 <.L623>
    23ec:	01442583          	lw	a1,20(s0)
    23f0:	00048513          	mv	a0,s1
    23f4:	ed1ff0ef          	jal	ra,22c4 <duk__mark_heaphdr>
    23f8:	00042783          	lw	a5,0(s0)
    23fc:	00004737          	lui	a4,0x4
    2400:	00e7f733          	and	a4,a5,a4
    2404:	04071863          	bnez	a4,2454 <.L618>
    2408:	00b7d713          	srli	a4,a5,0xb
    240c:	00177713          	andi	a4,a4,1
    2410:	0c070063          	beqz	a4,24d0 <.L625>
    2414:	02842903          	lw	s2,40(s0)
    2418:	00048513          	mv	a0,s1
    241c:	00090593          	mv	a1,s2
    2420:	ea5ff0ef          	jal	ra,22c4 <duk__mark_heaphdr>
    2424:	03442583          	lw	a1,52(s0)
    2428:	00048513          	mv	a0,s1
    242c:	e99ff0ef          	jal	ra,22c4 <duk__mark_heaphdr>
    2430:	03842583          	lw	a1,56(s0)
    2434:	00048513          	mv	a0,s1
    2438:	e8dff0ef          	jal	ra,22c4 <duk__mark_heaphdr>
    243c:	00090c63          	beqz	s2,2454 <.L618>
    2440:	02c42983          	lw	s3,44(s0)
    2444:	01890913          	addi	s2,s2,24

00002448 <.L627>:
    2448:	07396063          	bltu	s2,s3,24a8 <.L628>
    244c:	03042403          	lw	s0,48(s0)

00002450 <.L629>:
    2450:	0689e663          	bltu	s3,s0,24bc <.L630>

00002454 <.L618>:
    2454:	0304a783          	lw	a5,48(s1)
    2458:	fff78793          	addi	a5,a5,-1
    245c:	02f4a823          	sw	a5,48(s1)
    2460:	ec9ff06f          	j	2328 <.L614>

00002464 <.L620>:
    2464:	000b0593          	mv	a1,s6
    2468:	00048513          	mv	a0,s1
    246c:	e39ff0ef          	jal	ra,22a4 <duk__mark_tval>
    2470:	f65ff06f          	j	23d4 <.L619>

00002474 <.L623>:
    2474:	01842703          	lw	a4,24(s0)
    2478:	01042583          	lw	a1,16(s0)
    247c:	00048513          	mv	a0,s1
    2480:	40e007b3          	neg	a5,a4
    2484:	03370733          	mul	a4,a4,s3
    2488:	0077f793          	andi	a5,a5,7
    248c:	00e787b3          	add	a5,a5,a4
    2490:	00391713          	slli	a4,s2,0x3
    2494:	00e787b3          	add	a5,a5,a4
    2498:	00f585b3          	add	a1,a1,a5
    249c:	e09ff0ef          	jal	ra,22a4 <duk__mark_tval>
    24a0:	00190913          	addi	s2,s2,1
    24a4:	f41ff06f          	j	23e4 <.L622>

000024a8 <.L628>:
    24a8:	00090593          	mv	a1,s2
    24ac:	00048513          	mv	a0,s1
    24b0:	df5ff0ef          	jal	ra,22a4 <duk__mark_tval>
    24b4:	00890913          	addi	s2,s2,8
    24b8:	f91ff06f          	j	2448 <.L627>

000024bc <.L630>:
    24bc:	0009a583          	lw	a1,0(s3)
    24c0:	00048513          	mv	a0,s1
    24c4:	00498993          	addi	s3,s3,4
    24c8:	dfdff0ef          	jal	ra,22c4 <duk__mark_heaphdr>
    24cc:	f85ff06f          	j	2450 <.L629>

000024d0 <.L625>:
    24d0:	01b7d713          	srli	a4,a5,0x1b
    24d4:	01000693          	li	a3,16
    24d8:	00d71c63          	bne	a4,a3,24f0 <.L631>

000024dc <.L660>:
    24dc:	02842583          	lw	a1,40(s0)
    24e0:	00048513          	mv	a0,s1
    24e4:	de1ff0ef          	jal	ra,22c4 <duk__mark_heaphdr>
    24e8:	02c42583          	lw	a1,44(s0)
    24ec:	0100006f          	j	24fc <.L659>

000024f0 <.L631>:
    24f0:	00f00693          	li	a3,15
    24f4:	00d71a63          	bne	a4,a3,2508 <.L632>
    24f8:	02842583          	lw	a1,40(s0)

000024fc <.L659>:
    24fc:	00048513          	mv	a0,s1
    2500:	dc5ff0ef          	jal	ra,22c4 <duk__mark_heaphdr>
    2504:	f51ff06f          	j	2454 <.L618>

00002508 <.L632>:
    2508:	000026b7          	lui	a3,0x2
    250c:	00d7f6b3          	and	a3,a5,a3
    2510:	fc0696e3          	bnez	a3,24dc <.L660>
    2514:	4007f693          	andi	a3,a5,1024
    2518:	04068863          	beqz	a3,2568 <.L634>
    251c:	02840593          	addi	a1,s0,40
    2520:	00048513          	mv	a0,s1
    2524:	d81ff0ef          	jal	ra,22a4 <duk__mark_tval>
    2528:	03040593          	addi	a1,s0,48
    252c:	00048513          	mv	a0,s1
    2530:	d75ff0ef          	jal	ra,22a4 <duk__mark_tval>
    2534:	03842903          	lw	s2,56(s0)
    2538:	03c42403          	lw	s0,60(s0)
    253c:	000109b7          	lui	s3,0x10
    2540:	ff798993          	addi	s3,s3,-9 # fff7 <duk__twodigit_year_fixup+0x2f>

00002544 <.L635>:
    2544:	f08058e3          	blez	s0,2454 <.L618>
    2548:	00695783          	lhu	a5,6(s2)
    254c:	00f9f863          	bgeu	s3,a5,255c <.L636>
    2550:	00092583          	lw	a1,0(s2)
    2554:	00048513          	mv	a0,s1
    2558:	d6dff0ef          	jal	ra,22c4 <duk__mark_heaphdr>

0000255c <.L636>:
    255c:	00890913          	addi	s2,s2,8
    2560:	fff40413          	addi	s0,s0,-1
    2564:	fe1ff06f          	j	2544 <.L635>

00002568 <.L634>:
    2568:	020006b7          	lui	a3,0x2000
    256c:	00d7f7b3          	and	a5,a5,a3
    2570:	f60796e3          	bnez	a5,24dc <.L660>
    2574:	01200793          	li	a5,18
    2578:	ecf71ee3          	bne	a4,a5,2454 <.L618>
    257c:	03442903          	lw	s2,52(s0)

00002580 <.L639>:
    2580:	04442783          	lw	a5,68(s0)
    2584:	02f96c63          	bltu	s2,a5,25bc <.L640>
    2588:	04842903          	lw	s2,72(s0)

0000258c <.L641>:
    258c:	04091263          	bnez	s2,25d0 <.L642>
    2590:	05442583          	lw	a1,84(s0)
    2594:	00048513          	mv	a0,s1
    2598:	05c40913          	addi	s2,s0,92
    259c:	d29ff0ef          	jal	ra,22c4 <duk__mark_heaphdr>
    25a0:	12840413          	addi	s0,s0,296

000025a4 <.L643>:
    25a4:	00092583          	lw	a1,0(s2)
    25a8:	00048513          	mv	a0,s1
    25ac:	00490913          	addi	s2,s2,4
    25b0:	d15ff0ef          	jal	ra,22c4 <duk__mark_heaphdr>
    25b4:	ff2418e3          	bne	s0,s2,25a4 <.L643>
    25b8:	e9dff06f          	j	2454 <.L618>

000025bc <.L640>:
    25bc:	00090593          	mv	a1,s2
    25c0:	00048513          	mv	a0,s1
    25c4:	ce1ff0ef          	jal	ra,22a4 <duk__mark_tval>
    25c8:	00890913          	addi	s2,s2,8
    25cc:	fb5ff06f          	j	2580 <.L639>

000025d0 <.L642>:
    25d0:	00892583          	lw	a1,8(s2)
    25d4:	00048513          	mv	a0,s1
    25d8:	cedff0ef          	jal	ra,22c4 <duk__mark_heaphdr>
    25dc:	01092583          	lw	a1,16(s2)
    25e0:	00048513          	mv	a0,s1
    25e4:	ce1ff0ef          	jal	ra,22c4 <duk__mark_heaphdr>
    25e8:	01492583          	lw	a1,20(s2)
    25ec:	00048513          	mv	a0,s1
    25f0:	cd5ff0ef          	jal	ra,22c4 <duk__mark_heaphdr>
    25f4:	00c92903          	lw	s2,12(s2)
    25f8:	f95ff06f          	j	258c <.L641>

000025fc <.L656>:
    25fc:	00008067          	ret

00002600 <duk_is_callable_tval.constprop.0>:
    2600:	00655783          	lhu	a5,6(a0)
    2604:	00010737          	lui	a4,0x10
    2608:	ff970713          	addi	a4,a4,-7 # fff9 <duk__twodigit_year_fixup+0x31>
    260c:	00e79c63          	bne	a5,a4,2624 <.L662>
    2610:	00052783          	lw	a5,0(a0)
    2614:	0007a503          	lw	a0,0(a5)
    2618:	00955513          	srli	a0,a0,0x9
    261c:	00157513          	andi	a0,a0,1
    2620:	00008067          	ret

00002624 <.L662>:
    2624:	ffff0737          	lui	a4,0xffff0
    2628:	00970713          	addi	a4,a4,9 # ffff0009 <_ebss+0xfff94a29>
    262c:	00e78533          	add	a0,a5,a4
    2630:	00153513          	seqz	a0,a0
    2634:	00008067          	ret

00002638 <duk_util_tinyrandom_get_double.isra.0>:
    2638:	08852783          	lw	a5,136(a0)
    263c:	08c52803          	lw	a6,140(a0)
    2640:	09052683          	lw	a3,144(a0)
    2644:	09452e03          	lw	t3,148(a0)
    2648:	0097d613          	srli	a2,a5,0x9
    264c:	01781593          	slli	a1,a6,0x17
    2650:	00d7c733          	xor	a4,a5,a3
    2654:	01c848b3          	xor	a7,a6,t3
    2658:	00985313          	srli	t1,a6,0x9
    265c:	00c5e5b3          	or	a1,a1,a2
    2660:	01779613          	slli	a2,a5,0x17
    2664:	01275e93          	srli	t4,a4,0x12
    2668:	00666633          	or	a2,a2,t1
    266c:	00e89313          	slli	t1,a7,0xe
    2670:	ff010113          	addi	sp,sp,-16
    2674:	006ee333          	or	t1,t4,t1
    2678:	00e5c5b3          	xor	a1,a1,a4
    267c:	00e71e93          	slli	t4,a4,0xe
    2680:	01164633          	xor	a2,a2,a7
    2684:	00112623          	sw	ra,12(sp)
    2688:	01d5c5b3          	xor	a1,a1,t4
    268c:	00664633          	xor	a2,a2,t1
    2690:	08b52423          	sw	a1,136(a0)
    2694:	08c52623          	sw	a2,140(a0)
    2698:	01c75593          	srli	a1,a4,0x1c
    269c:	00489613          	slli	a2,a7,0x4
    26a0:	00471713          	slli	a4,a4,0x4
    26a4:	01c8d893          	srli	a7,a7,0x1c
    26a8:	01176733          	or	a4,a4,a7
    26ac:	08e52a23          	sw	a4,148(a0)
    26b0:	00d78733          	add	a4,a5,a3
    26b4:	00b66633          	or	a2,a2,a1
    26b8:	01c80833          	add	a6,a6,t3
    26bc:	00f737b3          	sltu	a5,a4,a5
    26c0:	00055697          	auipc	a3,0x55
    26c4:	5d868693          	addi	a3,a3,1496 # 57c98 <.LC0>
    26c8:	08c52823          	sw	a2,144(a0)
    26cc:	010787b3          	add	a5,a5,a6
    26d0:	0006a603          	lw	a2,0(a3)
    26d4:	0046a683          	lw	a3,4(a3)
    26d8:	01479813          	slli	a6,a5,0x14
    26dc:	00c75713          	srli	a4,a4,0xc
    26e0:	00c7d793          	srli	a5,a5,0xc
    26e4:	3ff005b7          	lui	a1,0x3ff00
    26e8:	00e86533          	or	a0,a6,a4
    26ec:	00f5e5b3          	or	a1,a1,a5
    26f0:	788310ef          	jal	ra,33e78 <__subdf3>
    26f4:	00c12083          	lw	ra,12(sp)
    26f8:	01010113          	addi	sp,sp,16
    26fc:	00008067          	ret

00002700 <duk__update_label_flags.isra.0>:
    2700:	01452703          	lw	a4,20(a0)
    2704:	01052783          	lw	a5,16(a0)
    2708:	00f707b3          	add	a5,a4,a5

0000270c <.L667>:
    270c:	00f76463          	bltu	a4,a5,2714 <.L669>

00002710 <.L666>:
    2710:	00008067          	ret

00002714 <.L669>:
    2714:	ff07a683          	lw	a3,-16(a5)
    2718:	fec78793          	addi	a5,a5,-20
    271c:	feb69ae3          	bne	a3,a1,2710 <.L666>
    2720:	00c7a023          	sw	a2,0(a5)
    2724:	fe9ff06f          	j	270c <.L667>

00002728 <duk_hobject_find_entry_tval_ptr.isra.0>:
    2728:	fe010113          	addi	sp,sp,-32
    272c:	00c10693          	addi	a3,sp,12
    2730:	00810613          	addi	a2,sp,8
    2734:	00812c23          	sw	s0,24(sp)
    2738:	00112e23          	sw	ra,28(sp)
    273c:	00050413          	mv	s0,a0
    2740:	9f1ff0ef          	jal	ra,2130 <duk_hobject_find_entry.constprop.0>
    2744:	04050463          	beqz	a0,278c <.L672>
    2748:	01842783          	lw	a5,24(s0)
    274c:	00c00613          	li	a2,12
    2750:	01042683          	lw	a3,16(s0)
    2754:	02c787b3          	mul	a5,a5,a2
    2758:	00812703          	lw	a4,8(sp)
    275c:	00000513          	li	a0,0
    2760:	00f687b3          	add	a5,a3,a5
    2764:	00e787b3          	add	a5,a5,a4
    2768:	0007c783          	lbu	a5,0(a5)
    276c:	0087f793          	andi	a5,a5,8
    2770:	00079663          	bnez	a5,277c <.L670>
    2774:	00371713          	slli	a4,a4,0x3
    2778:	00e68533          	add	a0,a3,a4

0000277c <.L670>:
    277c:	01c12083          	lw	ra,28(sp)
    2780:	01812403          	lw	s0,24(sp)
    2784:	02010113          	addi	sp,sp,32
    2788:	00008067          	ret

0000278c <.L672>:
    278c:	00000513          	li	a0,0
    2790:	fedff06f          	j	277c <.L670>

00002794 <duk_hobject_find_entry_tval_ptr_stridx>:
    2794:	23860613          	addi	a2,a2,568
    2798:	00050793          	mv	a5,a0
    279c:	00261613          	slli	a2,a2,0x2
    27a0:	00c787b3          	add	a5,a5,a2
    27a4:	00058513          	mv	a0,a1
    27a8:	0047a583          	lw	a1,4(a5)
    27ac:	f7dff06f          	j	2728 <duk_hobject_find_entry_tval_ptr.isra.0>

000027b0 <duk__hobject_get_entry_object_stridx>:
    27b0:	ff010113          	addi	sp,sp,-16
    27b4:	00112623          	sw	ra,12(sp)
    27b8:	fddff0ef          	jal	ra,2794 <duk_hobject_find_entry_tval_ptr_stridx>
    27bc:	00050c63          	beqz	a0,27d4 <.L676>
    27c0:	00655703          	lhu	a4,6(a0)
    27c4:	000107b7          	lui	a5,0x10
    27c8:	ff978793          	addi	a5,a5,-7 # fff9 <duk__twodigit_year_fixup+0x31>
    27cc:	00f71a63          	bne	a4,a5,27e0 <.L678>
    27d0:	00052503          	lw	a0,0(a0)

000027d4 <.L676>:
    27d4:	00c12083          	lw	ra,12(sp)
    27d8:	01010113          	addi	sp,sp,16
    27dc:	00008067          	ret

000027e0 <.L678>:
    27e0:	00000513          	li	a0,0
    27e4:	ff1ff06f          	j	27d4 <.L676>

000027e8 <duk__auto_unbox_symbol>:
    27e8:	0065d683          	lhu	a3,6(a1) # 3ff00006 <_ebss+0x3fea4a26>
    27ec:	00010737          	lui	a4,0x10
    27f0:	ff970713          	addi	a4,a4,-7 # fff9 <duk__twodigit_year_fixup+0x31>
    27f4:	00050793          	mv	a5,a0
    27f8:	06e69263          	bne	a3,a4,285c <.L692>
    27fc:	0005a583          	lw	a1,0(a1)
    2800:	00e00693          	li	a3,14
    2804:	00000513          	li	a0,0
    2808:	0005a703          	lw	a4,0(a1)
    280c:	01b75713          	srli	a4,a4,0x1b
    2810:	06d71a63          	bne	a4,a3,2884 <.L693>
    2814:	02c7a503          	lw	a0,44(a5)
    2818:	ff010113          	addi	sp,sp,-16
    281c:	06a00613          	li	a2,106
    2820:	00112623          	sw	ra,12(sp)
    2824:	f71ff0ef          	jal	ra,2794 <duk_hobject_find_entry_tval_ptr_stridx>
    2828:	02050463          	beqz	a0,2850 <.L685>
    282c:	00655703          	lhu	a4,6(a0)
    2830:	000107b7          	lui	a5,0x10
    2834:	ff878793          	addi	a5,a5,-8 # fff8 <duk__twodigit_year_fixup+0x30>
    2838:	00f71a63          	bne	a4,a5,284c <.L687>
    283c:	00052503          	lw	a0,0(a0)
    2840:	00052783          	lw	a5,0(a0)
    2844:	2007f793          	andi	a5,a5,512
    2848:	00079463          	bnez	a5,2850 <.L685>

0000284c <.L687>:
    284c:	00000513          	li	a0,0

00002850 <.L685>:
    2850:	00c12083          	lw	ra,12(sp)
    2854:	01010113          	addi	sp,sp,16
    2858:	00008067          	ret

0000285c <.L692>:
    285c:	0065d703          	lhu	a4,6(a1)
    2860:	000107b7          	lui	a5,0x10
    2864:	ff878793          	addi	a5,a5,-8 # fff8 <duk__twodigit_year_fixup+0x30>
    2868:	00f71a63          	bne	a4,a5,287c <.L694>
    286c:	0005a503          	lw	a0,0(a1)
    2870:	00052783          	lw	a5,0(a0)
    2874:	2007f793          	andi	a5,a5,512
    2878:	00079663          	bnez	a5,2884 <.L693>

0000287c <.L694>:
    287c:	00000513          	li	a0,0
    2880:	00008067          	ret

00002884 <.L693>:
    2884:	00008067          	ret

00002888 <duk_hbuffer_refzero.isra.0>:
    2888:	03852783          	lw	a5,56(a0)
    288c:	02079e63          	bnez	a5,28c8 <.L699>
    2890:	ff010113          	addi	sp,sp,-16
    2894:	00812423          	sw	s0,8(sp)
    2898:	00912223          	sw	s1,4(sp)
    289c:	00112623          	sw	ra,12(sp)
    28a0:	00050413          	mv	s0,a0
    28a4:	00058493          	mv	s1,a1
    28a8:	dddfd0ef          	jal	ra,684 <duk_heap_remove_from_heap_allocated>
    28ac:	00040513          	mv	a0,s0
    28b0:	00812403          	lw	s0,8(sp)
    28b4:	00c12083          	lw	ra,12(sp)
    28b8:	00048593          	mv	a1,s1
    28bc:	00412483          	lw	s1,4(sp)
    28c0:	01010113          	addi	sp,sp,16
    28c4:	d39fd06f          	j	5fc <duk_free_hbuffer>

000028c8 <.L699>:
    28c8:	00008067          	ret

000028cc <duk_hstring_refzero.isra.0>:
    28cc:	03852783          	lw	a5,56(a0)
    28d0:	00079463          	bnez	a5,28d8 <.L704>
    28d4:	dd5fd06f          	j	6a8 <duk__refcount_refzero_hstring>

000028d8 <.L704>:
    28d8:	00008067          	ret

000028dc <duk_heap_free_freelists>:
    28dc:	02452583          	lw	a1,36(a0)
    28e0:	ff010113          	addi	sp,sp,-16
    28e4:	00812423          	sw	s0,8(sp)
    28e8:	00112623          	sw	ra,12(sp)
    28ec:	00912223          	sw	s1,4(sp)
    28f0:	00050413          	mv	s0,a0

000028f4 <.L707>:
    28f4:	02059463          	bnez	a1,291c <.L708>
    28f8:	02842583          	lw	a1,40(s0)
    28fc:	02042223          	sw	zero,36(s0)

00002900 <.L709>:
    2900:	02059863          	bnez	a1,2930 <.L710>
    2904:	00c12083          	lw	ra,12(sp)
    2908:	02042423          	sw	zero,40(s0)
    290c:	00812403          	lw	s0,8(sp)
    2910:	00412483          	lw	s1,4(sp)
    2914:	01010113          	addi	sp,sp,16
    2918:	00008067          	ret

0000291c <.L708>:
    291c:	00c5a483          	lw	s1,12(a1)
    2920:	00040513          	mv	a0,s0
    2924:	40c470ef          	jal	ra,49d30 <duk_heap_mem_free>
    2928:	00048593          	mv	a1,s1
    292c:	fc9ff06f          	j	28f4 <.L707>

00002930 <.L710>:
    2930:	0005a483          	lw	s1,0(a1)
    2934:	00040513          	mv	a0,s0
    2938:	3f8470ef          	jal	ra,49d30 <duk_heap_mem_free>
    293c:	00048593          	mv	a1,s1
    2940:	fc1ff06f          	j	2900 <.L709>

00002944 <duk__arraypart_fastpath_this.isra.0>:
    2944:	ffe55703          	lhu	a4,-2(a0)
    2948:	000107b7          	lui	a5,0x10
    294c:	ff978793          	addi	a5,a5,-7 # fff9 <duk__twodigit_year_fixup+0x31>
    2950:	02f71463          	bne	a4,a5,2978 <.L715>
    2954:	ff852503          	lw	a0,-8(a0)
    2958:	00408737          	lui	a4,0x408
    295c:	04070693          	addi	a3,a4,64 # 408040 <_ebss+0x3aca60>
    2960:	00052783          	lw	a5,0(a0)
    2964:	00d7f7b3          	and	a5,a5,a3
    2968:	00e79863          	bne	a5,a4,2978 <.L715>
    296c:	02852703          	lw	a4,40(a0)
    2970:	02052783          	lw	a5,32(a0)
    2974:	00e7f463          	bgeu	a5,a4,297c <.L712>

00002978 <.L715>:
    2978:	00000513          	li	a0,0

0000297c <.L712>:
    297c:	00008067          	ret

00002980 <duk_unicode_re_canonicalize_char.isra.0>:
    2980:	fd010113          	addi	sp,sp,-48
    2984:	02812423          	sw	s0,40(sp)
    2988:	02912223          	sw	s1,36(sp)
    298c:	02112623          	sw	ra,44(sp)
    2990:	07f00493          	li	s1,127
    2994:	00050413          	mv	s0,a0
    2998:	00a4ce63          	blt	s1,a0,29b4 <.L717>
    299c:	f9f50793          	addi	a5,a0,-97
    29a0:	01900713          	li	a4,25
    29a4:	fe050513          	addi	a0,a0,-32
    29a8:	04f77063          	bgeu	a4,a5,29e8 <.L716>

000029ac <.L718>:
    29ac:	00040513          	mv	a0,s0
    29b0:	0380006f          	j	29e8 <.L716>

000029b4 <.L717>:
    29b4:	00050797          	auipc	a5,0x50
    29b8:	ca078793          	addi	a5,a5,-864 # 52654 <duk_unicode_caseconv_uc>
    29bc:	00f12623          	sw	a5,12(sp)
    29c0:	00050593          	mv	a1,a0
    29c4:	58300793          	li	a5,1411
    29c8:	00c10613          	addi	a2,sp,12
    29cc:	00000513          	li	a0,0
    29d0:	00012823          	sw	zero,16(sp)
    29d4:	00012c23          	sw	zero,24(sp)
    29d8:	00012e23          	sw	zero,28(sp)
    29dc:	00f12a23          	sw	a5,20(sp)
    29e0:	bf4ff0ef          	jal	ra,1dd4 <duk__slow_case_conversion.constprop.0>
    29e4:	fca4d4e3          	bge	s1,a0,29ac <.L718>

000029e8 <.L716>:
    29e8:	02c12083          	lw	ra,44(sp)
    29ec:	02812403          	lw	s0,40(sp)
    29f0:	02412483          	lw	s1,36(sp)
    29f4:	03010113          	addi	sp,sp,48
    29f8:	00008067          	ret

000029fc <duk_bi_function_prototype_call>:
    29fc:	ffa00513          	li	a0,-6
    2a00:	00008067          	ret

00002a04 <duk_bi_reflect_apply>:
    2a04:	ffa00513          	li	a0,-6
    2a08:	00008067          	ret

00002a0c <duk_hobject_get_internal_value_heaphdr>:
    2a0c:	ff010113          	addi	sp,sp,-16
    2a10:	06a00613          	li	a2,106
    2a14:	00112623          	sw	ra,12(sp)
    2a18:	d7dff0ef          	jal	ra,2794 <duk_hobject_find_entry_tval_ptr_stridx>
    2a1c:	00050463          	beqz	a0,2a24 <.L723>
    2a20:	00052503          	lw	a0,0(a0)

00002a24 <.L723>:
    2a24:	00c12083          	lw	ra,12(sp)
    2a28:	01010113          	addi	sp,sp,16
    2a2c:	00008067          	ret

00002a30 <duk_js_isarray_hobject>:
    2a30:	020006b7          	lui	a3,0x2000

00002a34 <.L730>:
    2a34:	00052783          	lw	a5,0(a0)
    2a38:	00d7f733          	and	a4,a5,a3
    2a3c:	00071a63          	bnez	a4,2a50 <.L731>
    2a40:	01b7d513          	srli	a0,a5,0x1b
    2a44:	ffe50513          	addi	a0,a0,-2
    2a48:	00153513          	seqz	a0,a0
    2a4c:	00008067          	ret

00002a50 <.L731>:
    2a50:	02852503          	lw	a0,40(a0)
    2a54:	fe1ff06f          	j	2a34 <.L730>

00002a58 <duk_err_setup_ljstate1.isra.0>:
    2a58:	00062703          	lw	a4,0(a2)
    2a5c:	00462783          	lw	a5,4(a2)
    2a60:	04b52a23          	sw	a1,84(a0)
    2a64:	06e52023          	sw	a4,96(a0)
    2a68:	06f52223          	sw	a5,100(a0)
    2a6c:	00665703          	lhu	a4,6(a2)
    2a70:	000107b7          	lui	a5,0x10
    2a74:	ff778793          	addi	a5,a5,-9 # fff7 <duk__twodigit_year_fixup+0x2f>
    2a78:	00e7fa63          	bgeu	a5,a4,2a8c <.L732>
    2a7c:	00062703          	lw	a4,0(a2)
    2a80:	00472783          	lw	a5,4(a4)
    2a84:	00178793          	addi	a5,a5,1
    2a88:	00f72223          	sw	a5,4(a4)

00002a8c <.L732>:
    2a8c:	00008067          	ret

00002a90 <duk__toint32_touint32_helper>:
    2a90:	fe010113          	addi	sp,sp,-32
    2a94:	7ff007b7          	lui	a5,0x7ff00
    2a98:	01212823          	sw	s2,16(sp)
    2a9c:	01412423          	sw	s4,8(sp)
    2aa0:	00112e23          	sw	ra,28(sp)
    2aa4:	00812c23          	sw	s0,24(sp)
    2aa8:	00912a23          	sw	s1,20(sp)
    2aac:	01312623          	sw	s3,12(sp)
    2ab0:	01512223          	sw	s5,4(sp)
    2ab4:	00b7f733          	and	a4,a5,a1
    2ab8:	00058913          	mv	s2,a1
    2abc:	00060a13          	mv	s4,a2
    2ac0:	02071a63          	bnez	a4,2af4 <.L735>
    2ac4:	00000493          	li	s1,0
    2ac8:	00000413          	li	s0,0
    2acc:	0e05d463          	bgez	a1,2bb4 <.L734>
    2ad0:	00159913          	slli	s2,a1,0x1
    2ad4:	00050713          	mv	a4,a0
    2ad8:	00195793          	srli	a5,s2,0x1
    2adc:	00070513          	mv	a0,a4
    2ae0:	00078593          	mv	a1,a5
    2ae4:	0e1380ef          	jal	ra,3b3c4 <__GI_trunc>

00002ae8 <.L738>:
    2ae8:	800007b7          	lui	a5,0x80000
    2aec:	00b7c5b3          	xor	a1,a5,a1
    2af0:	0240006f          	j	2b14 <.L740>

00002af4 <.L735>:
    2af4:	0ef70663          	beq	a4,a5,2be0 <.L755>
    2af8:	00159693          	slli	a3,a1,0x1
    2afc:	00050713          	mv	a4,a0
    2b00:	0016d793          	srli	a5,a3,0x1
    2b04:	00070513          	mv	a0,a4
    2b08:	00078593          	mv	a1,a5
    2b0c:	0b9380ef          	jal	ra,3b3c4 <__GI_trunc>
    2b10:	fc094ce3          	bltz	s2,2ae8 <.L738>

00002b14 <.L740>:
    2b14:	00055a97          	auipc	s5,0x55
    2b18:	1c4a8a93          	addi	s5,s5,452 # 57cd8 <.LC10>
    2b1c:	000aa903          	lw	s2,0(s5)
    2b20:	004aa983          	lw	s3,4(s5)
    2b24:	00050713          	mv	a4,a0
    2b28:	00058793          	mv	a5,a1
    2b2c:	00090613          	mv	a2,s2
    2b30:	00098693          	mv	a3,s3
    2b34:	00070513          	mv	a0,a4
    2b38:	00078593          	mv	a1,a5
    2b3c:	159380ef          	jal	ra,3b494 <__GI_fmod>
    2b40:	00000613          	li	a2,0
    2b44:	00000693          	li	a3,0
    2b48:	00050493          	mv	s1,a0
    2b4c:	00058413          	mv	s0,a1
    2b50:	41d300ef          	jal	ra,3376c <__ledf2>
    2b54:	02055063          	bgez	a0,2b74 <.L741>
    2b58:	00048513          	mv	a0,s1
    2b5c:	00040593          	mv	a1,s0
    2b60:	00090613          	mv	a2,s2
    2b64:	00098693          	mv	a3,s3
    2b68:	3b12f0ef          	jal	ra,32718 <__adddf3>
    2b6c:	00050493          	mv	s1,a0
    2b70:	00058413          	mv	s0,a1

00002b74 <.L741>:
    2b74:	040a0063          	beqz	s4,2bb4 <.L734>
    2b78:	00055797          	auipc	a5,0x55
    2b7c:	16878793          	addi	a5,a5,360 # 57ce0 <.LC11>
    2b80:	0007a603          	lw	a2,0(a5)
    2b84:	0047a683          	lw	a3,4(a5)
    2b88:	00048513          	mv	a0,s1
    2b8c:	00040593          	mv	a1,s0
    2b90:	2cd300ef          	jal	ra,3365c <__gedf2>
    2b94:	02054063          	bltz	a0,2bb4 <.L734>
    2b98:	000aa603          	lw	a2,0(s5)
    2b9c:	004aa683          	lw	a3,4(s5)
    2ba0:	00048513          	mv	a0,s1
    2ba4:	00040593          	mv	a1,s0
    2ba8:	2d0310ef          	jal	ra,33e78 <__subdf3>
    2bac:	00050493          	mv	s1,a0
    2bb0:	00058413          	mv	s0,a1

00002bb4 <.L734>:
    2bb4:	01c12083          	lw	ra,28(sp)
    2bb8:	00040593          	mv	a1,s0
    2bbc:	01812403          	lw	s0,24(sp)
    2bc0:	01012903          	lw	s2,16(sp)
    2bc4:	00c12983          	lw	s3,12(sp)
    2bc8:	00812a03          	lw	s4,8(sp)
    2bcc:	00412a83          	lw	s5,4(sp)
    2bd0:	00048513          	mv	a0,s1
    2bd4:	01412483          	lw	s1,20(sp)
    2bd8:	02010113          	addi	sp,sp,32
    2bdc:	00008067          	ret

00002be0 <.L755>:
    2be0:	00000493          	li	s1,0
    2be4:	00000413          	li	s0,0
    2be8:	fcdff06f          	j	2bb4 <.L734>

00002bec <duk_bd_decode_flagged.constprop.0>:
    2bec:	ff010113          	addi	sp,sp,-16
    2bf0:	00812423          	sw	s0,8(sp)
    2bf4:	00058413          	mv	s0,a1
    2bf8:	00100593          	li	a1,1
    2bfc:	00912223          	sw	s1,4(sp)
    2c00:	00112623          	sw	ra,12(sp)
    2c04:	00050493          	mv	s1,a0
    2c08:	cf1fd0ef          	jal	ra,8f8 <duk_bd_decode>
    2c0c:	02050063          	beqz	a0,2c2c <.L758>
    2c10:	00812403          	lw	s0,8(sp)
    2c14:	00c12083          	lw	ra,12(sp)
    2c18:	00048513          	mv	a0,s1
    2c1c:	00412483          	lw	s1,4(sp)
    2c20:	00300593          	li	a1,3
    2c24:	01010113          	addi	sp,sp,16
    2c28:	cd1fd06f          	j	8f8 <duk_bd_decode>

00002c2c <.L758>:
    2c2c:	00c12083          	lw	ra,12(sp)
    2c30:	00040513          	mv	a0,s0
    2c34:	00812403          	lw	s0,8(sp)
    2c38:	00412483          	lw	s1,4(sp)
    2c3c:	01010113          	addi	sp,sp,16
    2c40:	00008067          	ret

00002c44 <duk__bi_exp_small>:
    2c44:	fe010113          	addi	sp,sp,-32
    2c48:	00912a23          	sw	s1,20(sp)
    2c4c:	01212823          	sw	s2,16(sp)
    2c50:	00112e23          	sw	ra,28(sp)
    2c54:	00812c23          	sw	s0,24(sp)
    2c58:	01312623          	sw	s3,12(sp)
    2c5c:	00200793          	li	a5,2
    2c60:	00050493          	mv	s1,a0
    2c64:	00060913          	mv	s2,a2
    2c68:	04f59a63          	bne	a1,a5,2cbc <.L761>
    2c6c:	02000413          	li	s0,32
    2c70:	02864433          	div	s0,a2,s0
    2c74:	00000593          	li	a1,0
    2c78:	00450513          	addi	a0,a0,4
    2c7c:	00140993          	addi	s3,s0,1
    2c80:	00299613          	slli	a2,s3,0x2
    2c84:	29c360ef          	jal	ra,38f20 <__GI_memset>
    2c88:	00241413          	slli	s0,s0,0x2
    2c8c:	00100793          	li	a5,1
    2c90:	0134a023          	sw	s3,0(s1)
    2c94:	00848433          	add	s0,s1,s0
    2c98:	012797b3          	sll	a5,a5,s2
    2c9c:	00f42223          	sw	a5,4(s0)

00002ca0 <.L760>:
    2ca0:	01c12083          	lw	ra,28(sp)
    2ca4:	01812403          	lw	s0,24(sp)
    2ca8:	01412483          	lw	s1,20(sp)
    2cac:	01012903          	lw	s2,16(sp)
    2cb0:	00c12983          	lw	s3,12(sp)
    2cb4:	02010113          	addi	sp,sp,32
    2cb8:	00008067          	ret

00002cbc <.L761>:
    2cbc:	00100793          	li	a5,1
    2cc0:	00f52023          	sw	a5,0(a0)
    2cc4:	00f52223          	sw	a5,4(a0)
    2cc8:	00068413          	mv	s0,a3
    2ccc:	00070993          	mv	s3,a4
    2cd0:	04059a63          	bnez	a1,2d24 <.L763>
    2cd4:	0006a023          	sw	zero,0(a3) # 2000000 <_ebss+0x1fa4a20>

00002cd8 <.L766>:
    2cd8:	00197793          	andi	a5,s2,1
    2cdc:	02078063          	beqz	a5,2cfc <.L765>
    2ce0:	00048593          	mv	a1,s1
    2ce4:	00098513          	mv	a0,s3
    2ce8:	00040613          	mv	a2,s0
    2cec:	af0fe0ef          	jal	ra,fdc <duk__bi_mul>
    2cf0:	00098593          	mv	a1,s3
    2cf4:	00048513          	mv	a0,s1
    2cf8:	c04fe0ef          	jal	ra,10fc <duk__bi_copy>

00002cfc <.L765>:
    2cfc:	40195913          	srai	s2,s2,0x1
    2d00:	fa0900e3          	beqz	s2,2ca0 <.L760>
    2d04:	00040593          	mv	a1,s0
    2d08:	00098513          	mv	a0,s3
    2d0c:	00040613          	mv	a2,s0
    2d10:	accfe0ef          	jal	ra,fdc <duk__bi_mul>
    2d14:	00098593          	mv	a1,s3
    2d18:	00040513          	mv	a0,s0
    2d1c:	be0fe0ef          	jal	ra,10fc <duk__bi_copy>
    2d20:	fb9ff06f          	j	2cd8 <.L766>

00002d24 <.L763>:
    2d24:	00f6a023          	sw	a5,0(a3)
    2d28:	00b6a223          	sw	a1,4(a3)
    2d2c:	fadff06f          	j	2cd8 <.L766>

00002d30 <duk__bi_mul_small>:
    2d30:	f5010113          	addi	sp,sp,-176
    2d34:	0a112623          	sw	ra,172(sp)
    2d38:	00061e63          	bnez	a2,2d54 <.L775>
    2d3c:	00012423          	sw	zero,8(sp)

00002d40 <.L776>:
    2d40:	00810613          	addi	a2,sp,8
    2d44:	a98fe0ef          	jal	ra,fdc <duk__bi_mul>
    2d48:	0ac12083          	lw	ra,172(sp)
    2d4c:	0b010113          	addi	sp,sp,176
    2d50:	00008067          	ret

00002d54 <.L775>:
    2d54:	00100793          	li	a5,1
    2d58:	00f12423          	sw	a5,8(sp)
    2d5c:	00c12623          	sw	a2,12(sp)
    2d60:	fe1ff06f          	j	2d40 <.L776>

00002d64 <duk__bi_mul_small_copy>:
    2d64:	ff010113          	addi	sp,sp,-16
    2d68:	00912223          	sw	s1,4(sp)
    2d6c:	00060493          	mv	s1,a2
    2d70:	00812423          	sw	s0,8(sp)
    2d74:	00058613          	mv	a2,a1
    2d78:	00050413          	mv	s0,a0
    2d7c:	00050593          	mv	a1,a0
    2d80:	00048513          	mv	a0,s1
    2d84:	00112623          	sw	ra,12(sp)
    2d88:	fa9ff0ef          	jal	ra,2d30 <duk__bi_mul_small>
    2d8c:	00040513          	mv	a0,s0
    2d90:	00812403          	lw	s0,8(sp)
    2d94:	00c12083          	lw	ra,12(sp)
    2d98:	00048593          	mv	a1,s1
    2d9c:	00412483          	lw	s1,4(sp)
    2da0:	01010113          	addi	sp,sp,16
    2da4:	b58fe06f          	j	10fc <duk__bi_copy>

00002da8 <duk__dragon4_prepare>:
    2da8:	fd010113          	addi	sp,sp,-48
    2dac:	01412c23          	sw	s4,24(sp)
    2db0:	00052a03          	lw	s4,0(a0)
    2db4:	02812423          	sw	s0,40(sp)
    2db8:	02912223          	sw	s1,36(sp)
    2dbc:	01312e23          	sw	s3,28(sp)
    2dc0:	02112623          	sw	ra,44(sp)
    2dc4:	03212023          	sw	s2,32(sp)
    2dc8:	01512a23          	sw	s5,20(sp)
    2dcc:	42852583          	lw	a1,1064(a0)
    2dd0:	43852603          	lw	a2,1080(a0)
    2dd4:	00050413          	mv	s0,a0
    2dd8:	09850993          	addi	s3,a0,152
    2ddc:	2f850493          	addi	s1,a0,760
    2de0:	39050713          	addi	a4,a0,912
    2de4:	0a0a0463          	beqz	s4,2e8c <.L781>
    2de8:	00452683          	lw	a3,4(a0)
    2dec:	00100913          	li	s2,1
    2df0:	0016f793          	andi	a5,a3,1
    2df4:	40f907b3          	sub	a5,s2,a5
    2df8:	44f52423          	sw	a5,1096(a0)
    2dfc:	44f52623          	sw	a5,1100(a0)
    2e00:	08059c63          	bnez	a1,2e98 <.L782>
    2e04:	00200793          	li	a5,2
    2e08:	08fa1863          	bne	s4,a5,2e98 <.L782>
    2e0c:	08069663          	bnez	a3,2e98 <.L782>
    2e10:	00852683          	lw	a3,8(a0)
    2e14:	001007b7          	lui	a5,0x100
    2e18:	08f69063          	bne	a3,a5,2e98 <.L782>
    2e1c:	44052823          	sw	zero,1104(a0)
    2e20:	0c065c63          	bgez	a2,2ef8 <.L785>
    2e24:	c0300793          	li	a5,-1021
    2e28:	13050a93          	addi	s5,a0,304
    2e2c:	14f65e63          	bge	a2,a5,2f88 <.L786>

00002e30 <.L787>:
    2e30:	00200613          	li	a2,2
    2e34:	00040593          	mv	a1,s0
    2e38:	00098513          	mv	a0,s3
    2e3c:	00e12623          	sw	a4,12(sp)
    2e40:	ef1ff0ef          	jal	ra,2d30 <duk__bi_mul_small>
    2e44:	43842603          	lw	a2,1080(s0)
    2e48:	00c12703          	lw	a4,12(sp)
    2e4c:	43c42583          	lw	a1,1084(s0)
    2e50:	13040913          	addi	s2,s0,304
    2e54:	00090693          	mv	a3,s2
    2e58:	40c00633          	neg	a2,a2
    2e5c:	00048513          	mv	a0,s1
    2e60:	de5ff0ef          	jal	ra,2c44 <duk__bi_exp_small>
    2e64:	00200613          	li	a2,2
    2e68:	00048593          	mv	a1,s1
    2e6c:	00090513          	mv	a0,s2
    2e70:	ec1ff0ef          	jal	ra,2d30 <duk__bi_mul_small>
    2e74:	00100793          	li	a5,1
    2e78:	1cf42423          	sw	a5,456(s0)
    2e7c:	1cf42623          	sw	a5,460(s0)
    2e80:	26f42023          	sw	a5,608(s0)
    2e84:	26f42223          	sw	a5,612(s0)
    2e88:	0d00006f          	j	2f58 <.L780>

00002e8c <.L781>:
    2e8c:	00100793          	li	a5,1
    2e90:	44f52423          	sw	a5,1096(a0)
    2e94:	44f52623          	sw	a5,1100(a0)

00002e98 <.L782>:
    2e98:	44042823          	sw	zero,1104(s0)
    2e9c:	f8064ae3          	bltz	a2,2e30 <.L787>
    2ea0:	43c42583          	lw	a1,1084(s0)
    2ea4:	26040a13          	addi	s4,s0,608
    2ea8:	00048693          	mv	a3,s1
    2eac:	000a0513          	mv	a0,s4
    2eb0:	d95ff0ef          	jal	ra,2c44 <duk__bi_exp_small>
    2eb4:	1c840913          	addi	s2,s0,456
    2eb8:	000a0593          	mv	a1,s4
    2ebc:	00090513          	mv	a0,s2
    2ec0:	a3cfe0ef          	jal	ra,10fc <duk__bi_copy>
    2ec4:	00200613          	li	a2,2
    2ec8:	00040593          	mv	a1,s0
    2ecc:	00048513          	mv	a0,s1
    2ed0:	e61ff0ef          	jal	ra,2d30 <duk__bi_mul_small>
    2ed4:	00090613          	mv	a2,s2
    2ed8:	00048593          	mv	a1,s1
    2edc:	00098513          	mv	a0,s3
    2ee0:	8fcfe0ef          	jal	ra,fdc <duk__bi_mul>
    2ee4:	00100793          	li	a5,1
    2ee8:	12f42823          	sw	a5,304(s0)
    2eec:	00200793          	li	a5,2
    2ef0:	12f42a23          	sw	a5,308(s0)
    2ef4:	0640006f          	j	2f58 <.L780>

00002ef8 <.L785>:
    2ef8:	43c52583          	lw	a1,1084(a0)
    2efc:	26050a93          	addi	s5,a0,608
    2f00:	00048693          	mv	a3,s1
    2f04:	000a8513          	mv	a0,s5
    2f08:	d3dff0ef          	jal	ra,2c44 <duk__bi_exp_small>
    2f0c:	43c42603          	lw	a2,1084(s0)
    2f10:	1c840a13          	addi	s4,s0,456
    2f14:	000a8593          	mv	a1,s5
    2f18:	000a0513          	mv	a0,s4
    2f1c:	e15ff0ef          	jal	ra,2d30 <duk__bi_mul_small>
    2f20:	00200613          	li	a2,2
    2f24:	00040593          	mv	a1,s0
    2f28:	00048513          	mv	a0,s1
    2f2c:	e05ff0ef          	jal	ra,2d30 <duk__bi_mul_small>
    2f30:	000a0613          	mv	a2,s4
    2f34:	00048593          	mv	a1,s1
    2f38:	00098513          	mv	a0,s3
    2f3c:	8a0fe0ef          	jal	ra,fdc <duk__bi_mul>
    2f40:	43c42783          	lw	a5,1084(s0)
    2f44:	00179793          	slli	a5,a5,0x1
    2f48:	02079a63          	bnez	a5,2f7c <.L789>
    2f4c:	12042823          	sw	zero,304(s0)

00002f50 <.L790>:
    2f50:	00100793          	li	a5,1
    2f54:	44f42823          	sw	a5,1104(s0)

00002f58 <.L780>:
    2f58:	02c12083          	lw	ra,44(sp)
    2f5c:	02812403          	lw	s0,40(sp)
    2f60:	02412483          	lw	s1,36(sp)
    2f64:	02012903          	lw	s2,32(sp)
    2f68:	01c12983          	lw	s3,28(sp)
    2f6c:	01812a03          	lw	s4,24(sp)
    2f70:	01412a83          	lw	s5,20(sp)
    2f74:	03010113          	addi	sp,sp,48
    2f78:	00008067          	ret

00002f7c <.L789>:
    2f7c:	13242823          	sw	s2,304(s0)
    2f80:	12f42a23          	sw	a5,308(s0)
    2f84:	fcdff06f          	j	2f50 <.L790>

00002f88 <.L786>:
    2f88:	43c52603          	lw	a2,1084(a0)
    2f8c:	00050593          	mv	a1,a0
    2f90:	00098513          	mv	a0,s3
    2f94:	00161613          	slli	a2,a2,0x1
    2f98:	00e12623          	sw	a4,12(sp)
    2f9c:	d95ff0ef          	jal	ra,2d30 <duk__bi_mul_small>
    2fa0:	43842603          	lw	a2,1080(s0)
    2fa4:	00c12703          	lw	a4,12(sp)
    2fa8:	43c42583          	lw	a1,1084(s0)
    2fac:	000a8693          	mv	a3,s5
    2fb0:	40c90633          	sub	a2,s2,a2
    2fb4:	00048513          	mv	a0,s1
    2fb8:	c8dff0ef          	jal	ra,2c44 <duk__bi_exp_small>
    2fbc:	00200613          	li	a2,2
    2fc0:	00048593          	mv	a1,s1
    2fc4:	000a8513          	mv	a0,s5
    2fc8:	d69ff0ef          	jal	ra,2d30 <duk__bi_mul_small>
    2fcc:	1d242423          	sw	s2,456(s0)
    2fd0:	1d442623          	sw	s4,460(s0)
    2fd4:	27242023          	sw	s2,608(s0)
    2fd8:	27242223          	sw	s2,612(s0)
    2fdc:	45242823          	sw	s2,1104(s0)
    2fe0:	f79ff06f          	j	2f58 <.L780>

00002fe4 <duk__dragon4_scale>:
    2fe4:	fd010113          	addi	sp,sp,-48
    2fe8:	02812423          	sw	s0,40(sp)
    2fec:	02912223          	sw	s1,36(sp)
    2ff0:	03212023          	sw	s2,32(sp)
    2ff4:	01312e23          	sw	s3,28(sp)
    2ff8:	01412c23          	sw	s4,24(sp)
    2ffc:	01512a23          	sw	s5,20(sp)
    3000:	02112623          	sw	ra,44(sp)
    3004:	01612823          	sw	s6,16(sp)
    3008:	01712623          	sw	s7,12(sp)
    300c:	00050413          	mv	s0,a0
    3010:	00000913          	li	s2,0
    3014:	2f850493          	addi	s1,a0,760
    3018:	09850a13          	addi	s4,a0,152
    301c:	1c850993          	addi	s3,a0,456
    3020:	13050a93          	addi	s5,a0,304

00003024 <.L796>:
    3024:	00098613          	mv	a2,s3
    3028:	000a0593          	mv	a1,s4
    302c:	00048513          	mv	a0,s1
    3030:	831fd0ef          	jal	ra,860 <duk__bi_add>
    3034:	000a8593          	mv	a1,s5
    3038:	00048513          	mv	a0,s1
    303c:	fc4fd0ef          	jal	ra,800 <duk__bi_compare>
    3040:	44c42783          	lw	a5,1100(s0)
    3044:	0017b793          	seqz	a5,a5
    3048:	00f54e63          	blt	a0,a5,3064 <.L795>
    304c:	44042583          	lw	a1,1088(s0)
    3050:	00048613          	mv	a2,s1
    3054:	000a8513          	mv	a0,s5
    3058:	d0dff0ef          	jal	ra,2d64 <duk__bi_mul_small_copy>
    305c:	00190913          	addi	s2,s2,1
    3060:	fc5ff06f          	j	3024 <.L796>

00003064 <.L795>:
    3064:	08091463          	bnez	s2,30ec <.L797>
    3068:	39040b13          	addi	s6,s0,912
    306c:	26040b93          	addi	s7,s0,608

00003070 <.L799>:
    3070:	00098613          	mv	a2,s3
    3074:	000a0593          	mv	a1,s4
    3078:	00048513          	mv	a0,s1
    307c:	fe4fd0ef          	jal	ra,860 <duk__bi_add>
    3080:	44042603          	lw	a2,1088(s0)
    3084:	00048593          	mv	a1,s1
    3088:	000b0513          	mv	a0,s6
    308c:	ca5ff0ef          	jal	ra,2d30 <duk__bi_mul_small>
    3090:	000a8593          	mv	a1,s5
    3094:	000b0513          	mv	a0,s6
    3098:	f68fd0ef          	jal	ra,800 <duk__bi_compare>
    309c:	44c42783          	lw	a5,1100(s0)
    30a0:	00f037b3          	snez	a5,a5
    30a4:	40f007b3          	neg	a5,a5
    30a8:	04a7c263          	blt	a5,a0,30ec <.L797>
    30ac:	44042583          	lw	a1,1088(s0)
    30b0:	00048613          	mv	a2,s1
    30b4:	000a0513          	mv	a0,s4
    30b8:	cadff0ef          	jal	ra,2d64 <duk__bi_mul_small_copy>
    30bc:	44042583          	lw	a1,1088(s0)
    30c0:	00048613          	mv	a2,s1
    30c4:	00098513          	mv	a0,s3
    30c8:	c9dff0ef          	jal	ra,2d64 <duk__bi_mul_small_copy>
    30cc:	45042783          	lw	a5,1104(s0)
    30d0:	00078a63          	beqz	a5,30e4 <.L798>
    30d4:	44042583          	lw	a1,1088(s0)
    30d8:	00048613          	mv	a2,s1
    30dc:	000b8513          	mv	a0,s7
    30e0:	c85ff0ef          	jal	ra,2d64 <duk__bi_mul_small_copy>

000030e4 <.L798>:
    30e4:	fff90913          	addi	s2,s2,-1
    30e8:	f89ff06f          	j	3070 <.L799>

000030ec <.L797>:
    30ec:	45042783          	lw	a5,1104(s0)
    30f0:	00079863          	bnez	a5,3100 <.L800>
    30f4:	00098593          	mv	a1,s3
    30f8:	26040513          	addi	a0,s0,608
    30fc:	800fe0ef          	jal	ra,10fc <duk__bi_copy>

00003100 <.L800>:
    3100:	45242223          	sw	s2,1092(s0)
    3104:	02c12083          	lw	ra,44(sp)
    3108:	02812403          	lw	s0,40(sp)
    310c:	02412483          	lw	s1,36(sp)
    3110:	02012903          	lw	s2,32(sp)
    3114:	01c12983          	lw	s3,28(sp)
    3118:	01812a03          	lw	s4,24(sp)
    311c:	01412a83          	lw	s5,20(sp)
    3120:	01012b03          	lw	s6,16(sp)
    3124:	00c12b83          	lw	s7,12(sp)
    3128:	03010113          	addi	sp,sp,48
    312c:	00008067          	ret

00003130 <duk__dragon4_generate>:
    3130:	fc010113          	addi	sp,sp,-64
    3134:	02812c23          	sw	s0,56(sp)
    3138:	03212823          	sw	s2,48(sp)
    313c:	03312623          	sw	s3,44(sp)
    3140:	03412423          	sw	s4,40(sp)
    3144:	03512223          	sw	s5,36(sp)
    3148:	03612023          	sw	s6,32(sp)
    314c:	01712e23          	sw	s7,28(sp)
    3150:	01812c23          	sw	s8,24(sp)
    3154:	02112e23          	sw	ra,60(sp)
    3158:	02912a23          	sw	s1,52(sp)
    315c:	01912a23          	sw	s9,20(sp)
    3160:	01a12823          	sw	s10,16(sp)
    3164:	01b12623          	sw	s11,12(sp)
    3168:	00050413          	mv	s0,a0
    316c:	00000913          	li	s2,0
    3170:	2f850993          	addi	s3,a0,760
    3174:	09850a13          	addi	s4,a0,152
    3178:	13050b13          	addi	s6,a0,304
    317c:	39050a93          	addi	s5,a0,912
    3180:	1c850b93          	addi	s7,a0,456
    3184:	26050c13          	addi	s8,a0,608

00003188 <.L821>:
    3188:	44042603          	lw	a2,1088(s0)
    318c:	000a0593          	mv	a1,s4
    3190:	00098513          	mv	a0,s3
    3194:	b9dff0ef          	jal	ra,2d30 <duk__bi_mul_small>
    3198:	00000493          	li	s1,0

0000319c <.L811>:
    319c:	000b0593          	mv	a1,s6
    31a0:	00098513          	mv	a0,s3
    31a4:	e5cfd0ef          	jal	ra,800 <duk__bi_compare>
    31a8:	08054463          	bltz	a0,3230 <.L806>
    31ac:	2f842703          	lw	a4,760(s0)
    31b0:	13042883          	lw	a7,304(s0)
    31b4:	13440613          	addi	a2,s0,308
    31b8:	00000693          	li	a3,0
    31bc:	00000513          	li	a0,0
    31c0:	00000593          	li	a1,0

000031c4 <.L807>:
    31c4:	02e5c863          	blt	a1,a4,31f4 <.L809>
    31c8:	00070793          	mv	a5,a4
    31cc:	00075463          	bgez	a4,31d4 <.L810>
    31d0:	00000793          	li	a5,0

000031d4 <.L810>:
    31d4:	38f42823          	sw	a5,912(s0)
    31d8:	000a8513          	mv	a0,s5
    31dc:	dfcfd0ef          	jal	ra,7d8 <duk__bi_normalize>
    31e0:	000a8593          	mv	a1,s5
    31e4:	00098513          	mv	a0,s3
    31e8:	f15fd0ef          	jal	ra,10fc <duk__bi_copy>
    31ec:	00148493          	addi	s1,s1,1
    31f0:	fadff06f          	j	319c <.L811>

000031f4 <.L809>:
    31f4:	1c862803          	lw	a6,456(a2)
    31f8:	00000793          	li	a5,0
    31fc:	0115d463          	bge	a1,a7,3204 <.L808>
    3200:	00062783          	lw	a5,0(a2)

00003204 <.L808>:
    3204:	40f807b3          	sub	a5,a6,a5
    3208:	00d786b3          	add	a3,a5,a3
    320c:	00f83833          	sltu	a6,a6,a5
    3210:	41050533          	sub	a0,a0,a6
    3214:	00f6b7b3          	sltu	a5,a3,a5
    3218:	26d62023          	sw	a3,608(a2)
    321c:	00a786b3          	add	a3,a5,a0
    3220:	41f6d513          	srai	a0,a3,0x1f
    3224:	00158593          	addi	a1,a1,1
    3228:	00460613          	addi	a2,a2,4
    322c:	f99ff06f          	j	31c4 <.L807>

00003230 <.L806>:
    3230:	00098593          	mv	a1,s3
    3234:	000a0513          	mv	a0,s4
    3238:	ec5fd0ef          	jal	ra,10fc <duk__bi_copy>
    323c:	44042583          	lw	a1,1088(s0)
    3240:	000a8613          	mv	a2,s5
    3244:	000b8513          	mv	a0,s7
    3248:	b1dff0ef          	jal	ra,2d64 <duk__bi_mul_small_copy>
    324c:	44042583          	lw	a1,1088(s0)
    3250:	000a8613          	mv	a2,s5
    3254:	000c0513          	mv	a0,s8
    3258:	b0dff0ef          	jal	ra,2d64 <duk__bi_mul_small_copy>
    325c:	42c42783          	lw	a5,1068(s0)
    3260:	00190c93          	addi	s9,s2,1
    3264:	0c079c63          	bnez	a5,333c <.L812>
    3268:	000c0593          	mv	a1,s8
    326c:	000a0513          	mv	a0,s4
    3270:	d90fd0ef          	jal	ra,800 <duk__bi_compare>
    3274:	000b8613          	mv	a2,s7
    3278:	000a0593          	mv	a1,s4
    327c:	00050d93          	mv	s11,a0
    3280:	00098513          	mv	a0,s3
    3284:	44842d03          	lw	s10,1096(s0)
    3288:	dd8fd0ef          	jal	ra,860 <duk__bi_add>
    328c:	000b0593          	mv	a1,s6
    3290:	00098513          	mv	a0,s3
    3294:	d6cfd0ef          	jal	ra,800 <duk__bi_compare>
    3298:	44c42783          	lw	a5,1100(s0)
    329c:	001d3d13          	seqz	s10,s10
    32a0:	41a00d33          	neg	s10,s10
    32a4:	0017b793          	seqz	a5,a5
    32a8:	09bd4263          	blt	s10,s11,332c <.L813>
    32ac:	0ff4f493          	zext.b	s1,s1
    32b0:	02f54663          	blt	a0,a5,32dc <.L814>
    32b4:	000a0593          	mv	a1,s4
    32b8:	00098513          	mv	a0,s3
    32bc:	00200613          	li	a2,2
    32c0:	a71ff0ef          	jal	ra,2d30 <duk__bi_mul_small>
    32c4:	000b0593          	mv	a1,s6
    32c8:	00098513          	mv	a0,s3
    32cc:	d34fd0ef          	jal	ra,800 <duk__bi_compare>
    32d0:	00054663          	bltz	a0,32dc <.L814>
    32d4:	00148493          	addi	s1,s1,1
    32d8:	0ff4f493          	zext.b	s1,s1

000032dc <.L814>:
    32dc:	01240933          	add	s2,s0,s2

000032e0 <.L823>:
    32e0:	44990a23          	sb	s1,1108(s2)

000032e4 <.L815>:
    32e4:	000017b7          	lui	a5,0x1
    32e8:	00f40433          	add	s0,s0,a5
    32ec:	87942223          	sw	s9,-1948(s0)
    32f0:	03c12083          	lw	ra,60(sp)
    32f4:	03812403          	lw	s0,56(sp)
    32f8:	03412483          	lw	s1,52(sp)
    32fc:	03012903          	lw	s2,48(sp)
    3300:	02c12983          	lw	s3,44(sp)
    3304:	02812a03          	lw	s4,40(sp)
    3308:	02412a83          	lw	s5,36(sp)
    330c:	02012b03          	lw	s6,32(sp)
    3310:	01c12b83          	lw	s7,28(sp)
    3314:	01812c03          	lw	s8,24(sp)
    3318:	01412c83          	lw	s9,20(sp)
    331c:	01012d03          	lw	s10,16(sp)
    3320:	00c12d83          	lw	s11,12(sp)
    3324:	04010113          	addi	sp,sp,64
    3328:	00008067          	ret

0000332c <.L813>:
    332c:	00f54863          	blt	a0,a5,333c <.L812>
    3330:	01240933          	add	s2,s0,s2
    3334:	00148493          	addi	s1,s1,1
    3338:	fa9ff06f          	j	32e0 <.L823>

0000333c <.L812>:
    333c:	019407b3          	add	a5,s0,s9
    3340:	449789a3          	sb	s1,1107(a5) # 1453 <.L371+0x2b>
    3344:	42c42783          	lw	a5,1068(s0)
    3348:	00078e63          	beqz	a5,3364 <.L820>
    334c:	43442783          	lw	a5,1076(s0)
    3350:	43042703          	lw	a4,1072(s0)
    3354:	00078c63          	beqz	a5,336c <.L817>
    3358:	44442783          	lw	a5,1092(s0)
    335c:	419787b3          	sub	a5,a5,s9
    3360:	f8e7c2e3          	blt	a5,a4,32e4 <.L815>

00003364 <.L820>:
    3364:	000c8913          	mv	s2,s9
    3368:	e21ff06f          	j	3188 <.L821>

0000336c <.L817>:
    336c:	feeccce3          	blt	s9,a4,3364 <.L820>
    3370:	f75ff06f          	j	32e4 <.L815>

00003374 <duk__mark_temproots_by_heap_scan>:
    3374:	ff010113          	addi	sp,sp,-16
    3378:	00812423          	sw	s0,8(sp)
    337c:	00112623          	sw	ra,12(sp)
    3380:	00912223          	sw	s1,4(sp)
    3384:	00050413          	mv	s0,a0

00003388 <.L825>:
    3388:	00042783          	lw	a5,0(s0)
    338c:	0017f713          	andi	a4,a5,1
    3390:	00071c63          	bnez	a4,33a8 <.L832>
    3394:	00c12083          	lw	ra,12(sp)
    3398:	00812403          	lw	s0,8(sp)
    339c:	00412483          	lw	s1,4(sp)
    33a0:	01010113          	addi	sp,sp,16
    33a4:	00008067          	ret

000033a8 <.L832>:
    33a8:	01842483          	lw	s1,24(s0)
    33ac:	ffe7f793          	andi	a5,a5,-2
    33b0:	00f42023          	sw	a5,0(s0)

000033b4 <.L826>:
    33b4:	02049a63          	bnez	s1,33e8 <.L828>
    33b8:	02042483          	lw	s1,32(s0)

000033bc <.L829>:
    33bc:	fc0486e3          	beqz	s1,3388 <.L825>
    33c0:	0004a783          	lw	a5,0(s1)
    33c4:	0087f713          	andi	a4,a5,8
    33c8:	00070c63          	beqz	a4,33e0 <.L830>
    33cc:	ff37f793          	andi	a5,a5,-13
    33d0:	00f4a023          	sw	a5,0(s1)
    33d4:	00048593          	mv	a1,s1
    33d8:	00040513          	mv	a0,s0
    33dc:	ee9fe0ef          	jal	ra,22c4 <duk__mark_heaphdr>

000033e0 <.L830>:
    33e0:	0084a483          	lw	s1,8(s1)
    33e4:	fd9ff06f          	j	33bc <.L829>

000033e8 <.L828>:
    33e8:	0004a783          	lw	a5,0(s1)
    33ec:	0087f713          	andi	a4,a5,8
    33f0:	00070c63          	beqz	a4,3408 <.L827>
    33f4:	ff37f793          	andi	a5,a5,-13
    33f8:	00f4a023          	sw	a5,0(s1)
    33fc:	00048593          	mv	a1,s1
    3400:	00040513          	mv	a0,s0
    3404:	ec1fe0ef          	jal	ra,22c4 <duk__mark_heaphdr>

00003408 <.L827>:
    3408:	0084a483          	lw	s1,8(s1)
    340c:	fa9ff06f          	j	33b4 <.L826>

00003410 <duk__day_from_year>:
    3410:	16d00713          	li	a4,365
    3414:	84e50793          	addi	a5,a0,-1970
    3418:	02e787b3          	mul	a5,a5,a4
    341c:	84f50713          	addi	a4,a0,-1969
    3420:	02074863          	bltz	a4,3450 <.L841>
    3424:	40275713          	srai	a4,a4,0x2
    3428:	00f707b3          	add	a5,a4,a5

0000342c <.L842>:
    342c:	89350713          	addi	a4,a0,-1901
    3430:	06400693          	li	a3,100
    3434:	02d74733          	div	a4,a4,a3
    3438:	40e787b3          	sub	a5,a5,a4

0000343c <.L844>:
    343c:	9bf50513          	addi	a0,a0,-1601
    3440:	19000713          	li	a4,400
    3444:	02e54533          	div	a0,a0,a4

00003448 <.L846>:
    3448:	00f50533          	add	a0,a0,a5
    344c:	00008067          	ret

00003450 <.L841>:
    3450:	84c50713          	addi	a4,a0,-1972
    3454:	00400693          	li	a3,4
    3458:	02d74733          	div	a4,a4,a3
    345c:	00f707b3          	add	a5,a4,a5
    3460:	76c00713          	li	a4,1900
    3464:	fca744e3          	blt	a4,a0,342c <.L842>
    3468:	83050713          	addi	a4,a0,-2000
    346c:	06400693          	li	a3,100
    3470:	02d746b3          	div	a3,a4,a3
    3474:	40d787b3          	sub	a5,a5,a3
    3478:	64000693          	li	a3,1600
    347c:	fca6c0e3          	blt	a3,a0,343c <.L844>
    3480:	19000693          	li	a3,400
    3484:	02d74533          	div	a0,a4,a3
    3488:	fc1ff06f          	j	3448 <.L846>

0000348c <duk_bi_date_timeval_to_parts>:
    348c:	fd010113          	addi	sp,sp,-48
    3490:	01912223          	sw	s9,4(sp)
    3494:	00055c97          	auipc	s9,0x55
    3498:	854c8c93          	addi	s9,s9,-1964 # 57ce8 <.LC12>
    349c:	02112623          	sw	ra,44(sp)
    34a0:	02812423          	sw	s0,40(sp)
    34a4:	02912223          	sw	s1,36(sp)
    34a8:	03212023          	sw	s2,32(sp)
    34ac:	01312e23          	sw	s3,28(sp)
    34b0:	01412c23          	sw	s4,24(sp)
    34b4:	01512a23          	sw	s5,20(sp)
    34b8:	01612823          	sw	s6,16(sp)
    34bc:	01712623          	sw	s7,12(sp)
    34c0:	01812423          	sw	s8,8(sp)
    34c4:	00060493          	mv	s1,a2
    34c8:	00068913          	mv	s2,a3
    34cc:	00070993          	mv	s3,a4
    34d0:	3f5370ef          	jal	ra,3b0c4 <__GI_floor>
    34d4:	000caa03          	lw	s4,0(s9)
    34d8:	004caa83          	lw	s5,4(s9)
    34dc:	00050c13          	mv	s8,a0
    34e0:	000a0613          	mv	a2,s4
    34e4:	000a8693          	mv	a3,s5
    34e8:	00058b93          	mv	s7,a1
    34ec:	7a9370ef          	jal	ra,3b494 <__GI_fmod>
    34f0:	00000613          	li	a2,0
    34f4:	00000693          	li	a3,0
    34f8:	00050b13          	mv	s6,a0
    34fc:	00058413          	mv	s0,a1
    3500:	26c300ef          	jal	ra,3376c <__ledf2>
    3504:	02055063          	bgez	a0,3524 <.L848>
    3508:	000b0513          	mv	a0,s6
    350c:	00040593          	mv	a1,s0
    3510:	000a0613          	mv	a2,s4
    3514:	000a8693          	mv	a3,s5
    3518:	2002f0ef          	jal	ra,32718 <__adddf3>
    351c:	00050b13          	mv	s6,a0
    3520:	00058413          	mv	s0,a1

00003524 <.L848>:
    3524:	000ca603          	lw	a2,0(s9)
    3528:	004ca683          	lw	a3,4(s9)
    352c:	000c0513          	mv	a0,s8
    3530:	000b8593          	mv	a1,s7
    3534:	1d12f0ef          	jal	ra,32f04 <__divdf3>
    3538:	38d370ef          	jal	ra,3b0c4 <__GI_floor>
    353c:	00058a13          	mv	s4,a1
    3540:	00050a93          	mv	s5,a0
    3544:	00040593          	mv	a1,s0
    3548:	000b0513          	mv	a0,s6
    354c:	180310ef          	jal	ra,346cc <__fixdfsi>
    3550:	00050413          	mv	s0,a0
    3554:	000a0593          	mv	a1,s4
    3558:	000a8513          	mv	a0,s5
    355c:	170310ef          	jal	ra,346cc <__fixdfsi>
    3560:	3e800793          	li	a5,1000
    3564:	02f46733          	rem	a4,s0,a5
    3568:	00050a13          	mv	s4,a0
    356c:	02f44433          	div	s0,s0,a5
    3570:	03c00793          	li	a5,60
    3574:	00e4ac23          	sw	a4,24(s1)
    3578:	02f46733          	rem	a4,s0,a5
    357c:	02f44433          	div	s0,s0,a5
    3580:	00e4aa23          	sw	a4,20(s1)
    3584:	02f46733          	rem	a4,s0,a5
    3588:	02f44433          	div	s0,s0,a5
    358c:	085847b7          	lui	a5,0x8584
    3590:	b0478793          	addi	a5,a5,-1276 # 8583b04 <_ebss+0x8528524>
    3594:	00e4a823          	sw	a4,16(s1)
    3598:	00f507b3          	add	a5,a0,a5
    359c:	00700713          	li	a4,7
    35a0:	02e7e7b3          	rem	a5,a5,a4
    35a4:	0084a623          	sw	s0,12(s1)
    35a8:	16d00413          	li	s0,365
    35ac:	00f4ae23          	sw	a5,28(s1)
    35b0:	00055463          	bgez	a0,35b8 <.L884>
    35b4:	16e00413          	li	s0,366

000035b8 <.L884>:
    35b8:	028a4433          	div	s0,s4,s0
    35bc:	16e00a93          	li	s5,366
    35c0:	7b240413          	addi	s0,s0,1970

000035c4 <.L855>:
    35c4:	00040513          	mv	a0,s0
    35c8:	e49ff0ef          	jal	ra,3410 <duk__day_from_year>
    35cc:	41450733          	sub	a4,a0,s4
    35d0:	10e04e63          	bgtz	a4,36ec <.L852>
    35d4:	00347713          	andi	a4,s0,3
    35d8:	40aa07b3          	sub	a5,s4,a0
    35dc:	00000613          	li	a2,0
    35e0:	12070063          	beqz	a4,3700 <.L882>

000035e4 <.L853>:
    35e4:	00000713          	li	a4,0
    35e8:	0004f817          	auipc	a6,0x4f
    35ec:	5f080813          	addi	a6,a6,1520 # 52bd8 <duk__days_in_month>
    35f0:	00100893          	li	a7,1
    35f4:	00c00593          	li	a1,12

000035f8 <.L860>:
    35f8:	00e806b3          	add	a3,a6,a4
    35fc:	0006c683          	lbu	a3,0(a3)
    3600:	01171c63          	bne	a4,a7,3618 <.L856>
    3604:	10061e63          	bnez	a2,3720 <.L857>
    3608:	02d7c063          	blt	a5,a3,3628 <.L858>
    360c:	40d787b3          	sub	a5,a5,a3
    3610:	00200713          	li	a4,2
    3614:	01f00693          	li	a3,31

00003618 <.L856>:
    3618:	00d7c863          	blt	a5,a3,3628 <.L858>
    361c:	00170713          	addi	a4,a4,1
    3620:	40d787b3          	sub	a5,a5,a3
    3624:	fcb71ae3          	bne	a4,a1,35f8 <.L860>

00003628 <.L858>:
    3628:	0089f693          	andi	a3,s3,8
    362c:	04068063          	beqz	a3,366c <.L861>
    3630:	84d40693          	addi	a3,s0,-1971
    3634:	04200593          	li	a1,66
    3638:	02d5fa63          	bgeu	a1,a3,366c <.L861>
    363c:	085846b7          	lui	a3,0x8584
    3640:	b0468693          	addi	a3,a3,-1276 # 8583b04 <_ebss+0x8528524>
    3644:	00d50533          	add	a0,a0,a3
    3648:	00700693          	li	a3,7
    364c:	02d56533          	rem	a0,a0,a3
    3650:	00060463          	beqz	a2,3658 <.L862>
    3654:	00750513          	addi	a0,a0,7

00003658 <.L862>:
    3658:	0004f697          	auipc	a3,0x4f
    365c:	47068693          	addi	a3,a3,1136 # 52ac8 <.LANCHOR1>
    3660:	00a686b3          	add	a3,a3,a0
    3664:	11c6c403          	lbu	s0,284(a3)
    3668:	7b240413          	addi	s0,s0,1970

0000366c <.L861>:
    366c:	0084a023          	sw	s0,0(s1)
    3670:	00e4a223          	sw	a4,4(s1)
    3674:	00f4a423          	sw	a5,8(s1)
    3678:	0049f993          	andi	s3,s3,4
    367c:	00098a63          	beqz	s3,3690 <.L863>
    3680:	00170713          	addi	a4,a4,1
    3684:	00178793          	addi	a5,a5,1
    3688:	00e4a223          	sw	a4,4(s1)
    368c:	00f4a423          	sw	a5,8(s1)

00003690 <.L863>:
    3690:	02090463          	beqz	s2,36b8 <.L847>
    3694:	00048413          	mv	s0,s1
    3698:	02048493          	addi	s1,s1,32

0000369c <.L865>:
    369c:	00042503          	lw	a0,0(s0)
    36a0:	00440413          	addi	s0,s0,4
    36a4:	00890913          	addi	s2,s2,8
    36a8:	11c310ef          	jal	ra,347c4 <__floatsidf>
    36ac:	fea92c23          	sw	a0,-8(s2)
    36b0:	feb92e23          	sw	a1,-4(s2)
    36b4:	fe8494e3          	bne	s1,s0,369c <.L865>

000036b8 <.L847>:
    36b8:	02c12083          	lw	ra,44(sp)
    36bc:	02812403          	lw	s0,40(sp)
    36c0:	02412483          	lw	s1,36(sp)
    36c4:	02012903          	lw	s2,32(sp)
    36c8:	01c12983          	lw	s3,28(sp)
    36cc:	01812a03          	lw	s4,24(sp)
    36d0:	01412a83          	lw	s5,20(sp)
    36d4:	01012b03          	lw	s6,16(sp)
    36d8:	00c12b83          	lw	s7,12(sp)
    36dc:	00812c03          	lw	s8,8(sp)
    36e0:	00412c83          	lw	s9,4(sp)
    36e4:	03010113          	addi	sp,sp,48
    36e8:	00008067          	ret

000036ec <.L852>:
    36ec:	fff70713          	addi	a4,a4,-1
    36f0:	03574733          	div	a4,a4,s5
    36f4:	00170713          	addi	a4,a4,1
    36f8:	40e40433          	sub	s0,s0,a4
    36fc:	ec9ff06f          	j	35c4 <.L855>

00003700 <.L882>:
    3700:	06400713          	li	a4,100
    3704:	02e46733          	rem	a4,s0,a4
    3708:	00100613          	li	a2,1
    370c:	ec071ce3          	bnez	a4,35e4 <.L853>
    3710:	19000613          	li	a2,400
    3714:	02c46633          	rem	a2,s0,a2
    3718:	00163613          	seqz	a2,a2
    371c:	ec9ff06f          	j	35e4 <.L853>

00003720 <.L857>:
    3720:	00168693          	addi	a3,a3,1
    3724:	f0d7c2e3          	blt	a5,a3,3628 <.L858>
    3728:	40d787b3          	sub	a5,a5,a3
    372c:	00200713          	li	a4,2
    3730:	ec9ff06f          	j	35f8 <.L860>

00003734 <duk_bi_date_get_timeval_from_dparts>:
    3734:	fc010113          	addi	sp,sp,-64
    3738:	03212823          	sw	s2,48(sp)
    373c:	03312623          	sw	s3,44(sp)
    3740:	03412423          	sw	s4,40(sp)
    3744:	03512223          	sw	s5,36(sp)
    3748:	02112e23          	sw	ra,60(sp)
    374c:	02812c23          	sw	s0,56(sp)
    3750:	02912a23          	sw	s1,52(sp)
    3754:	03612023          	sw	s6,32(sp)
    3758:	01712e23          	sw	s7,28(sp)
    375c:	01812c23          	sw	s8,24(sp)
    3760:	01912a23          	sw	s9,20(sp)
    3764:	01a12823          	sw	s10,16(sp)
    3768:	01b12623          	sw	s11,12(sp)
    376c:	00050a13          	mv	s4,a0
    3770:	00058a93          	mv	s5,a1
    3774:	00050913          	mv	s2,a0
    3778:	03850993          	addi	s3,a0,56

0000377c <.L887>:
    377c:	00092403          	lw	s0,0(s2)
    3780:	00492483          	lw	s1,4(s2)
    3784:	00040513          	mv	a0,s0
    3788:	00048593          	mv	a1,s1
    378c:	9e5fc0ef          	jal	ra,170 <duk_repl_isfinite>
    3790:	00050c63          	beqz	a0,37a8 <.L886>
    3794:	00040513          	mv	a0,s0
    3798:	00048593          	mv	a1,s1
    379c:	b4cfe0ef          	jal	ra,1ae8 <duk_js_tointeger_number>
    37a0:	00a92023          	sw	a0,0(s2)
    37a4:	00b92223          	sw	a1,4(s2)

000037a8 <.L886>:
    37a8:	00890913          	addi	s2,s2,8
    37ac:	fd2998e3          	bne	s3,s2,377c <.L887>
    37b0:	00054797          	auipc	a5,0x54
    37b4:	54078793          	addi	a5,a5,1344 # 57cf0 <.LC13>
    37b8:	0007a603          	lw	a2,0(a5)
    37bc:	0047a683          	lw	a3,4(a5)
    37c0:	018a2503          	lw	a0,24(s4)
    37c4:	01ca2583          	lw	a1,28(s4)
    37c8:	0b4300ef          	jal	ra,3387c <__muldf3>
    37cc:	00000613          	li	a2,0
    37d0:	00000693          	li	a3,0
    37d4:	7452e0ef          	jal	ra,32718 <__adddf3>
    37d8:	00054797          	auipc	a5,0x54
    37dc:	52078793          	addi	a5,a5,1312 # 57cf8 <.LC14>
    37e0:	0007a603          	lw	a2,0(a5)
    37e4:	0047a683          	lw	a3,4(a5)
    37e8:	00050493          	mv	s1,a0
    37ec:	00058413          	mv	s0,a1
    37f0:	020a2503          	lw	a0,32(s4)
    37f4:	024a2583          	lw	a1,36(s4)
    37f8:	084300ef          	jal	ra,3387c <__muldf3>
    37fc:	00048613          	mv	a2,s1
    3800:	00040693          	mv	a3,s0
    3804:	7152e0ef          	jal	ra,32718 <__adddf3>
    3808:	00054797          	auipc	a5,0x54
    380c:	49878793          	addi	a5,a5,1176 # 57ca0 <.LC3>
    3810:	0007a603          	lw	a2,0(a5)
    3814:	0047a683          	lw	a3,4(a5)
    3818:	00050493          	mv	s1,a0
    381c:	00058413          	mv	s0,a1
    3820:	028a2503          	lw	a0,40(s4)
    3824:	02ca2583          	lw	a1,44(s4)
    3828:	054300ef          	jal	ra,3387c <__muldf3>
    382c:	00048613          	mv	a2,s1
    3830:	00040693          	mv	a3,s0
    3834:	6e52e0ef          	jal	ra,32718 <__adddf3>
    3838:	030a2603          	lw	a2,48(s4)
    383c:	034a2683          	lw	a3,52(s4)
    3840:	6d92e0ef          	jal	ra,32718 <__adddf3>
    3844:	000a2903          	lw	s2,0(s4)
    3848:	004a2983          	lw	s3,4(s4)
    384c:	00050b93          	mv	s7,a0
    3850:	00058b13          	mv	s6,a1
    3854:	00090513          	mv	a0,s2
    3858:	00098593          	mv	a1,s3
    385c:	008a2403          	lw	s0,8(s4)
    3860:	00ca2483          	lw	s1,12(s4)
    3864:	010a2c03          	lw	s8,16(s4)
    3868:	014a2c83          	lw	s9,20(s4)
    386c:	905fc0ef          	jal	ra,170 <duk_repl_isfinite>
    3870:	0e051c63          	bnez	a0,3968 <.L888>

00003874 <.L890>:
    3874:	00054717          	auipc	a4,0x54
    3878:	41c70713          	addi	a4,a4,1052 # 57c90 <.LC1>
    387c:	00072783          	lw	a5,0(a4)
    3880:	00472583          	lw	a1,4(a4)

00003884 <.L889>:
    3884:	00054717          	auipc	a4,0x54
    3888:	46470713          	addi	a4,a4,1124 # 57ce8 <.LC12>
    388c:	00072603          	lw	a2,0(a4)
    3890:	00472683          	lw	a3,4(a4)
    3894:	00078513          	mv	a0,a5
    3898:	010afa93          	andi	s5,s5,16
    389c:	7e12f0ef          	jal	ra,3387c <__muldf3>
    38a0:	000b8613          	mv	a2,s7
    38a4:	000b0693          	mv	a3,s6
    38a8:	6712e0ef          	jal	ra,32718 <__adddf3>
    38ac:	00050493          	mv	s1,a0
    38b0:	00058413          	mv	s0,a1
    38b4:	060a8863          	beqz	s5,3924 <.L899>
    38b8:	3b9ad9b7          	lui	s3,0x3b9ad
    38bc:	00400a13          	li	s4,4
    38c0:	9ff98993          	addi	s3,s3,-1537 # 3b9ac9ff <_ebss+0x3b95141f>
    38c4:	00000913          	li	s2,0
    38c8:	3e800a93          	li	s5,1000

000038cc <.L903>:
    38cc:	03590533          	mul	a0,s2,s5
    38d0:	6f5300ef          	jal	ra,347c4 <__floatsidf>
    38d4:	00050613          	mv	a2,a0
    38d8:	00058693          	mv	a3,a1
    38dc:	00048513          	mv	a0,s1
    38e0:	00040593          	mv	a1,s0
    38e4:	594300ef          	jal	ra,33e78 <__subdf3>
    38e8:	20c000ef          	jal	ra,3af4 <duk_bi_date_get_local_tzoffset_gmtime>
    38ec:	01250863          	beq	a0,s2,38fc <.L900>
    38f0:	1f351863          	bne	a0,s3,3ae0 <.L901>
    38f4:	01395463          	bge	s2,s3,38fc <.L900>
    38f8:	00098913          	mv	s2,s3

000038fc <.L900>:
    38fc:	3e800513          	li	a0,1000
    3900:	02a90533          	mul	a0,s2,a0
    3904:	6c1300ef          	jal	ra,347c4 <__floatsidf>
    3908:	00050613          	mv	a2,a0
    390c:	00058693          	mv	a3,a1
    3910:	00048513          	mv	a0,s1
    3914:	00040593          	mv	a1,s0
    3918:	560300ef          	jal	ra,33e78 <__subdf3>
    391c:	00050493          	mv	s1,a0
    3920:	00058413          	mv	s0,a1

00003924 <.L899>:
    3924:	00040593          	mv	a1,s0
    3928:	03812403          	lw	s0,56(sp)
    392c:	03c12083          	lw	ra,60(sp)
    3930:	03012903          	lw	s2,48(sp)
    3934:	02c12983          	lw	s3,44(sp)
    3938:	02812a03          	lw	s4,40(sp)
    393c:	02412a83          	lw	s5,36(sp)
    3940:	02012b03          	lw	s6,32(sp)
    3944:	01c12b83          	lw	s7,28(sp)
    3948:	01812c03          	lw	s8,24(sp)
    394c:	01412c83          	lw	s9,20(sp)
    3950:	01012d03          	lw	s10,16(sp)
    3954:	00c12d83          	lw	s11,12(sp)
    3958:	00048513          	mv	a0,s1
    395c:	03412483          	lw	s1,52(sp)
    3960:	04010113          	addi	sp,sp,64
    3964:	a1cfe06f          	j	1b80 <duk__timeclip>

00003968 <.L888>:
    3968:	00040513          	mv	a0,s0
    396c:	00048593          	mv	a1,s1
    3970:	801fc0ef          	jal	ra,170 <duk_repl_isfinite>
    3974:	f00500e3          	beqz	a0,3874 <.L890>
    3978:	00054d97          	auipc	s11,0x54
    397c:	388d8d93          	addi	s11,s11,904 # 57d00 <.LC15>
    3980:	000da603          	lw	a2,0(s11)
    3984:	004da683          	lw	a3,4(s11)
    3988:	00048593          	mv	a1,s1
    398c:	00040513          	mv	a0,s0
    3990:	5742f0ef          	jal	ra,32f04 <__divdf3>
    3994:	730370ef          	jal	ra,3b0c4 <__GI_floor>
    3998:	00050613          	mv	a2,a0
    399c:	00058693          	mv	a3,a1
    39a0:	00090513          	mv	a0,s2
    39a4:	00098593          	mv	a1,s3
    39a8:	5712e0ef          	jal	ra,32718 <__adddf3>
    39ac:	000da903          	lw	s2,0(s11)
    39b0:	004da983          	lw	s3,4(s11)
    39b4:	00050d13          	mv	s10,a0
    39b8:	00090613          	mv	a2,s2
    39bc:	00098693          	mv	a3,s3
    39c0:	00058a13          	mv	s4,a1
    39c4:	00040513          	mv	a0,s0
    39c8:	00048593          	mv	a1,s1
    39cc:	2c9370ef          	jal	ra,3b494 <__GI_fmod>
    39d0:	00000613          	li	a2,0
    39d4:	00000693          	li	a3,0
    39d8:	00050d93          	mv	s11,a0
    39dc:	00058493          	mv	s1,a1
    39e0:	58d2f0ef          	jal	ra,3376c <__ledf2>
    39e4:	02055063          	bgez	a0,3a04 <.L891>
    39e8:	000d8513          	mv	a0,s11
    39ec:	00048593          	mv	a1,s1
    39f0:	00090613          	mv	a2,s2
    39f4:	00098693          	mv	a3,s3
    39f8:	5212e0ef          	jal	ra,32718 <__adddf3>
    39fc:	00050d93          	mv	s11,a0
    3a00:	00058493          	mv	s1,a1

00003a04 <.L891>:
    3a04:	00054797          	auipc	a5,0x54
    3a08:	30478793          	addi	a5,a5,772 # 57d08 <.LC16>
    3a0c:	0007a603          	lw	a2,0(a5)
    3a10:	0047a683          	lw	a3,4(a5)
    3a14:	000d0513          	mv	a0,s10
    3a18:	000a0593          	mv	a1,s4
    3a1c:	4412f0ef          	jal	ra,3365c <__gedf2>
    3a20:	e4054ae3          	bltz	a0,3874 <.L890>
    3a24:	00054797          	auipc	a5,0x54
    3a28:	2ec78793          	addi	a5,a5,748 # 57d10 <.LC17>
    3a2c:	0007a603          	lw	a2,0(a5)
    3a30:	0047a683          	lw	a3,4(a5)
    3a34:	000d0513          	mv	a0,s10
    3a38:	000a0593          	mv	a1,s4
    3a3c:	5312f0ef          	jal	ra,3376c <__ledf2>
    3a40:	e2a04ae3          	bgtz	a0,3874 <.L890>
    3a44:	000a0593          	mv	a1,s4
    3a48:	000d0513          	mv	a0,s10
    3a4c:	481300ef          	jal	ra,346cc <__fixdfsi>
    3a50:	00050913          	mv	s2,a0
    3a54:	9bdff0ef          	jal	ra,3410 <duk__day_from_year>
    3a58:	00397793          	andi	a5,s2,3
    3a5c:	00050413          	mv	s0,a0
    3a60:	00000993          	li	s3,0
    3a64:	02079063          	bnez	a5,3a84 <.L895>
    3a68:	06400793          	li	a5,100
    3a6c:	02f967b3          	rem	a5,s2,a5
    3a70:	00100993          	li	s3,1
    3a74:	00079863          	bnez	a5,3a84 <.L895>
    3a78:	19000793          	li	a5,400
    3a7c:	02f96933          	rem	s2,s2,a5
    3a80:	00193993          	seqz	s3,s2

00003a84 <.L895>:
    3a84:	000d8513          	mv	a0,s11
    3a88:	00048593          	mv	a1,s1
    3a8c:	441300ef          	jal	ra,346cc <__fixdfsi>
    3a90:	00000793          	li	a5,0
    3a94:	0004f717          	auipc	a4,0x4f
    3a98:	14470713          	addi	a4,a4,324 # 52bd8 <duk__days_in_month>
    3a9c:	00100693          	li	a3,1

00003aa0 <.L896>:
    3aa0:	02a7c063          	blt	a5,a0,3ac0 <.L898>
    3aa4:	00040513          	mv	a0,s0
    3aa8:	51d300ef          	jal	ra,347c4 <__floatsidf>
    3aac:	000c0613          	mv	a2,s8
    3ab0:	000c8693          	mv	a3,s9
    3ab4:	4652e0ef          	jal	ra,32718 <__adddf3>
    3ab8:	00050793          	mv	a5,a0
    3abc:	dc9ff06f          	j	3884 <.L889>

00003ac0 <.L898>:
    3ac0:	00f70633          	add	a2,a4,a5
    3ac4:	00064603          	lbu	a2,0(a2)
    3ac8:	00c40433          	add	s0,s0,a2
    3acc:	00d79663          	bne	a5,a3,3ad8 <.L897>
    3ad0:	00098463          	beqz	s3,3ad8 <.L897>
    3ad4:	00140413          	addi	s0,s0,1

00003ad8 <.L897>:
    3ad8:	00178793          	addi	a5,a5,1
    3adc:	fc5ff06f          	j	3aa0 <.L896>

00003ae0 <.L901>:
    3ae0:	fffa0a13          	addi	s4,s4,-1
    3ae4:	00090993          	mv	s3,s2
    3ae8:	00050913          	mv	s2,a0
    3aec:	de0a10e3          	bnez	s4,38cc <.L903>
    3af0:	e0dff06f          	j	38fc <.L900>

00003af4 <duk_bi_date_get_local_tzoffset_gmtime>:
    3af4:	f3010113          	addi	sp,sp,-208
    3af8:	0c812423          	sw	s0,200(sp)
    3afc:	0c912223          	sw	s1,196(sp)
    3b00:	0c112623          	sw	ra,204(sp)
    3b04:	0d212023          	sw	s2,192(sp)
    3b08:	00050493          	mv	s1,a0
    3b0c:	00058413          	mv	s0,a1
    3b10:	e60fc0ef          	jal	ra,170 <duk_repl_isfinite>
    3b14:	02051063          	bnez	a0,3b34 <.L925>

00003b18 <.L927>:
    3b18:	00000513          	li	a0,0

00003b1c <.L924>:
    3b1c:	0cc12083          	lw	ra,204(sp)
    3b20:	0c812403          	lw	s0,200(sp)
    3b24:	0c412483          	lw	s1,196(sp)
    3b28:	0c012903          	lw	s2,192(sp)
    3b2c:	0d010113          	addi	sp,sp,208
    3b30:	00008067          	ret

00003b34 <.L925>:
    3b34:	00054797          	auipc	a5,0x54
    3b38:	1e478793          	addi	a5,a5,484 # 57d18 <.LC18>
    3b3c:	0007a603          	lw	a2,0(a5)
    3b40:	0047a683          	lw	a3,4(a5)
    3b44:	00048513          	mv	a0,s1
    3b48:	00040593          	mv	a1,s0
    3b4c:	3112f0ef          	jal	ra,3365c <__gedf2>
    3b50:	fc0544e3          	bltz	a0,3b18 <.L927>
    3b54:	00054797          	auipc	a5,0x54
    3b58:	1cc78793          	addi	a5,a5,460 # 57d20 <.LC19>
    3b5c:	0007a603          	lw	a2,0(a5)
    3b60:	0047a683          	lw	a3,4(a5)
    3b64:	00048513          	mv	a0,s1
    3b68:	00040593          	mv	a1,s0
    3b6c:	4012f0ef          	jal	ra,3376c <__ledf2>
    3b70:	faa044e3          	bgtz	a0,3b18 <.L927>
    3b74:	02810913          	addi	s2,sp,40
    3b78:	00800713          	li	a4,8
    3b7c:	00090693          	mv	a3,s2
    3b80:	00810613          	addi	a2,sp,8
    3b84:	00048513          	mv	a0,s1
    3b88:	00040593          	mv	a1,s0
    3b8c:	901ff0ef          	jal	ra,348c <duk_bi_date_timeval_to_parts>
    3b90:	00090513          	mv	a0,s2
    3b94:	00000593          	li	a1,0
    3b98:	b9dff0ef          	jal	ra,3734 <duk_bi_date_get_timeval_from_dparts>
    3b9c:	00054797          	auipc	a5,0x54
    3ba0:	10478793          	addi	a5,a5,260 # 57ca0 <.LC3>
    3ba4:	0007a603          	lw	a2,0(a5)
    3ba8:	0047a683          	lw	a3,4(a5)
    3bac:	06810413          	addi	s0,sp,104
    3bb0:	00410493          	addi	s1,sp,4
    3bb4:	3502f0ef          	jal	ra,32f04 <__divdf3>
    3bb8:	315300ef          	jal	ra,346cc <__fixdfsi>
    3bbc:	05800613          	li	a2,88
    3bc0:	00a12223          	sw	a0,4(sp)
    3bc4:	00000593          	li	a1,0
    3bc8:	00040513          	mv	a0,s0
    3bcc:	354350ef          	jal	ra,38f20 <__GI_memset>
    3bd0:	00040593          	mv	a1,s0
    3bd4:	00048513          	mv	a0,s1
    3bd8:	45c310ef          	jal	ra,35034 <gmtime_r>
    3bdc:	09410913          	addi	s2,sp,148
    3be0:	00090593          	mv	a1,s2
    3be4:	00048513          	mv	a0,s1
    3be8:	458310ef          	jal	ra,35040 <__GI_localtime_r>
    3bec:	00040513          	mv	a0,s0
    3bf0:	08012423          	sw	zero,136(sp)
    3bf4:	0a012a23          	sw	zero,180(sp)
    3bf8:	4a0310ef          	jal	ra,35098 <mktime>
    3bfc:	00050413          	mv	s0,a0
    3c00:	00090513          	mv	a0,s2
    3c04:	494310ef          	jal	ra,35098 <mktime>
    3c08:	fff00713          	li	a4,-1
    3c0c:	f0e406e3          	beq	s0,a4,3b18 <.L927>
    3c10:	f0e504e3          	beq	a0,a4,3b18 <.L927>
    3c14:	00040593          	mv	a1,s0
    3c18:	619320ef          	jal	ra,36a30 <difftime>
    3c1c:	2b1300ef          	jal	ra,346cc <__fixdfsi>
    3c20:	efdff06f          	j	3b1c <.L924>

00003c24 <duk_is_constructor_call>:
    3c24:	04852783          	lw	a5,72(a0)
    3c28:	00078a63          	beqz	a5,3c3c <.L935>
    3c2c:	02c7a503          	lw	a0,44(a5)
    3c30:	00255513          	srli	a0,a0,0x2
    3c34:	00157513          	andi	a0,a0,1
    3c38:	00008067          	ret

00003c3c <.L935>:
    3c3c:	00000513          	li	a0,0
    3c40:	00008067          	ret

00003c44 <duk_is_strict_call>:
    3c44:	04852783          	lw	a5,72(a0)
    3c48:	00078863          	beqz	a5,3c58 <.L938>
    3c4c:	02c7a503          	lw	a0,44(a5)
    3c50:	00157513          	andi	a0,a0,1
    3c54:	00008067          	ret

00003c58 <.L938>:
    3c58:	00100513          	li	a0,1
    3c5c:	00008067          	ret

00003c60 <duk_get_current_magic>:
    3c60:	04852703          	lw	a4,72(a0)
    3c64:	02070863          	beqz	a4,3c94 <.L942>
    3c68:	00872783          	lw	a5,8(a4)
    3c6c:	00079663          	bnez	a5,3c78 <.L941>
    3c70:	00570503          	lb	a0,5(a4)
    3c74:	00008067          	ret

00003c78 <.L941>:
    3c78:	0007a683          	lw	a3,0(a5)
    3c7c:	00001737          	lui	a4,0x1
    3c80:	00000513          	li	a0,0
    3c84:	00d77733          	and	a4,a4,a3
    3c88:	00070863          	beqz	a4,3c98 <.L939>
    3c8c:	02e79503          	lh	a0,46(a5)
    3c90:	00008067          	ret

00003c94 <.L942>:
    3c94:	00000513          	li	a0,0

00003c98 <.L939>:
    3c98:	00008067          	ret

00003c9c <duk_debugger_cooperate>:
    3c9c:	00008067          	ret

00003ca0 <duk_debugger_pause>:
    3ca0:	00008067          	ret

00003ca4 <duk_alloc_raw>:
    3ca4:	02c52783          	lw	a5,44(a0)
    3ca8:	0047a703          	lw	a4,4(a5)
    3cac:	0107a503          	lw	a0,16(a5)
    3cb0:	00070067          	jr	a4 # 1000 <duk__bi_mul+0x24>

00003cb4 <duk_free_raw>:
    3cb4:	02c52783          	lw	a5,44(a0)
    3cb8:	00c7a703          	lw	a4,12(a5)
    3cbc:	0107a503          	lw	a0,16(a5)
    3cc0:	00070067          	jr	a4

00003cc4 <duk_realloc_raw>:
    3cc4:	02c52783          	lw	a5,44(a0)
    3cc8:	0087a703          	lw	a4,8(a5)
    3ccc:	0107a503          	lw	a0,16(a5)
    3cd0:	00070067          	jr	a4

00003cd4 <duk_free>:
    3cd4:	02c52503          	lw	a0,44(a0)
    3cd8:	0584606f          	j	49d30 <duk_heap_mem_free>

00003cdc <duk_get_memory_functions>:
    3cdc:	02c52783          	lw	a5,44(a0)
    3ce0:	0047a703          	lw	a4,4(a5)
    3ce4:	00e5a023          	sw	a4,0(a1)
    3ce8:	0087a703          	lw	a4,8(a5)
    3cec:	00e5a223          	sw	a4,4(a1)
    3cf0:	00c7a703          	lw	a4,12(a5)
    3cf4:	0107a783          	lw	a5,16(a5)
    3cf8:	00e5a423          	sw	a4,8(a1)
    3cfc:	00f5a623          	sw	a5,12(a1)
    3d00:	00008067          	ret

00003d04 <duk_random>:
    3d04:	02c52503          	lw	a0,44(a0)
    3d08:	931fe06f          	j	2638 <duk_util_tinyrandom_get_double.isra.0>

00003d0c <duk_normalize_index>:
    3d0c:	04452783          	lw	a5,68(a0)
    3d10:	04052703          	lw	a4,64(a0)
    3d14:	40e787b3          	sub	a5,a5,a4
    3d18:	4037d793          	srai	a5,a5,0x3
    3d1c:	0005d463          	bgez	a1,3d24 <.L954>
    3d20:	00f585b3          	add	a1,a1,a5

00003d24 <.L954>:
    3d24:	80000537          	lui	a0,0x80000
    3d28:	00f5f463          	bgeu	a1,a5,3d30 <.L953>
    3d2c:	00058513          	mv	a0,a1

00003d30 <.L953>:
    3d30:	00008067          	ret

00003d34 <duk_is_valid_index>:
    3d34:	ff010113          	addi	sp,sp,-16
    3d38:	00112623          	sw	ra,12(sp)
    3d3c:	fd1ff0ef          	jal	ra,3d0c <duk_normalize_index>
    3d40:	00c12083          	lw	ra,12(sp)
    3d44:	fff54513          	not	a0,a0
    3d48:	01f55513          	srli	a0,a0,0x1f
    3d4c:	01010113          	addi	sp,sp,16
    3d50:	00008067          	ret

00003d54 <duk_get_top>:
    3d54:	04452783          	lw	a5,68(a0) # 80000044 <_ebss+0x7ffa4a64>
    3d58:	04052703          	lw	a4,64(a0)
    3d5c:	40e78533          	sub	a0,a5,a4
    3d60:	40355513          	srai	a0,a0,0x3
    3d64:	00008067          	ret

00003d68 <duk_get_top_index>:
    3d68:	04452783          	lw	a5,68(a0)
    3d6c:	04052703          	lw	a4,64(a0)
    3d70:	40e78533          	sub	a0,a5,a4
    3d74:	40355513          	srai	a0,a0,0x3
    3d78:	fff50513          	addi	a0,a0,-1
    3d7c:	00055463          	bgez	a0,3d84 <.L960>
    3d80:	80000537          	lui	a0,0x80000

00003d84 <.L960>:
    3d84:	00008067          	ret

00003d88 <duk_get_boolean>:
    3d88:	ff010113          	addi	sp,sp,-16
    3d8c:	00112623          	sw	ra,12(sp)
    3d90:	f11fc0ef          	jal	ra,ca0 <duk_get_tval_or_unused>
    3d94:	00655703          	lhu	a4,6(a0) # 80000006 <_ebss+0x7ffa4a26>
    3d98:	000107b7          	lui	a5,0x10
    3d9c:	ff578793          	addi	a5,a5,-11 # fff5 <duk__twodigit_year_fixup+0x2d>
    3da0:	00f71a63          	bne	a4,a5,3db4 <.L964>
    3da4:	00455503          	lhu	a0,4(a0)

00003da8 <.L962>:
    3da8:	00c12083          	lw	ra,12(sp)
    3dac:	01010113          	addi	sp,sp,16
    3db0:	00008067          	ret

00003db4 <.L964>:
    3db4:	00000513          	li	a0,0
    3db8:	ff1ff06f          	j	3da8 <.L962>

00003dbc <duk_get_boolean_default>:
    3dbc:	ff010113          	addi	sp,sp,-16
    3dc0:	00812423          	sw	s0,8(sp)
    3dc4:	00112623          	sw	ra,12(sp)
    3dc8:	00060413          	mv	s0,a2
    3dcc:	ed5fc0ef          	jal	ra,ca0 <duk_get_tval_or_unused>
    3dd0:	00655703          	lhu	a4,6(a0)
    3dd4:	000107b7          	lui	a5,0x10
    3dd8:	ff578793          	addi	a5,a5,-11 # fff5 <duk__twodigit_year_fixup+0x2d>
    3ddc:	00f71463          	bne	a4,a5,3de4 <.L967>
    3de0:	00455403          	lhu	s0,4(a0)

00003de4 <.L967>:
    3de4:	00c12083          	lw	ra,12(sp)
    3de8:	00040513          	mv	a0,s0
    3dec:	00812403          	lw	s0,8(sp)
    3df0:	01010113          	addi	sp,sp,16
    3df4:	00008067          	ret

00003df8 <duk_get_number>:
    3df8:	ff010113          	addi	sp,sp,-16
    3dfc:	00112623          	sw	ra,12(sp)
    3e00:	ea1fc0ef          	jal	ra,ca0 <duk_get_tval_or_unused>
    3e04:	00655703          	lhu	a4,6(a0)
    3e08:	000107b7          	lui	a5,0x10
    3e0c:	ff078793          	addi	a5,a5,-16 # fff0 <duk__twodigit_year_fixup+0x28>
    3e10:	00e7ec63          	bltu	a5,a4,3e28 <.L971>
    3e14:	00452583          	lw	a1,4(a0)
    3e18:	00052503          	lw	a0,0(a0)

00003e1c <.L969>:
    3e1c:	00c12083          	lw	ra,12(sp)
    3e20:	01010113          	addi	sp,sp,16
    3e24:	00008067          	ret

00003e28 <.L971>:
    3e28:	00054797          	auipc	a5,0x54
    3e2c:	e6878793          	addi	a5,a5,-408 # 57c90 <.LC1>
    3e30:	0007a503          	lw	a0,0(a5)
    3e34:	0047a583          	lw	a1,4(a5)
    3e38:	fe5ff06f          	j	3e1c <.L969>

00003e3c <duk_get_number_default>:
    3e3c:	ff010113          	addi	sp,sp,-16
    3e40:	00812423          	sw	s0,8(sp)
    3e44:	00912223          	sw	s1,4(sp)
    3e48:	00112623          	sw	ra,12(sp)
    3e4c:	00060493          	mv	s1,a2
    3e50:	00068413          	mv	s0,a3
    3e54:	e4dfc0ef          	jal	ra,ca0 <duk_get_tval_or_unused>
    3e58:	00655703          	lhu	a4,6(a0)
    3e5c:	000107b7          	lui	a5,0x10
    3e60:	ff078793          	addi	a5,a5,-16 # fff0 <duk__twodigit_year_fixup+0x28>
    3e64:	00e7e663          	bltu	a5,a4,3e70 <.L974>
    3e68:	00052483          	lw	s1,0(a0)
    3e6c:	00452403          	lw	s0,4(a0)

00003e70 <.L974>:
    3e70:	00c12083          	lw	ra,12(sp)
    3e74:	00040593          	mv	a1,s0
    3e78:	00812403          	lw	s0,8(sp)
    3e7c:	00048513          	mv	a0,s1
    3e80:	00412483          	lw	s1,4(sp)
    3e84:	01010113          	addi	sp,sp,16
    3e88:	00008067          	ret

00003e8c <duk_get_lstring>:
    3e8c:	ff010113          	addi	sp,sp,-16
    3e90:	00812423          	sw	s0,8(sp)
    3e94:	00112623          	sw	ra,12(sp)
    3e98:	00060413          	mv	s0,a2
    3e9c:	e5dfc0ef          	jal	ra,cf8 <duk_get_hstring>
    3ea0:	00000793          	li	a5,0
    3ea4:	00050663          	beqz	a0,3eb0 <.L977>
    3ea8:	01452783          	lw	a5,20(a0)
    3eac:	01c50513          	addi	a0,a0,28

00003eb0 <.L977>:
    3eb0:	00040463          	beqz	s0,3eb8 <.L976>
    3eb4:	00f42023          	sw	a5,0(s0)

00003eb8 <.L976>:
    3eb8:	00c12083          	lw	ra,12(sp)
    3ebc:	00812403          	lw	s0,8(sp)
    3ec0:	01010113          	addi	sp,sp,16
    3ec4:	00008067          	ret

00003ec8 <duk_get_string>:
    3ec8:	ff010113          	addi	sp,sp,-16
    3ecc:	00112623          	sw	ra,12(sp)
    3ed0:	e29fc0ef          	jal	ra,cf8 <duk_get_hstring>
    3ed4:	00050463          	beqz	a0,3edc <.L985>
    3ed8:	01c50513          	addi	a0,a0,28

00003edc <.L985>:
    3edc:	00c12083          	lw	ra,12(sp)
    3ee0:	01010113          	addi	sp,sp,16
    3ee4:	00008067          	ret

00003ee8 <duk_get_lstring_default>:
    3ee8:	ff010113          	addi	sp,sp,-16
    3eec:	00812423          	sw	s0,8(sp)
    3ef0:	00912223          	sw	s1,4(sp)
    3ef4:	01212023          	sw	s2,0(sp)
    3ef8:	00112623          	sw	ra,12(sp)
    3efc:	00060493          	mv	s1,a2
    3f00:	00068413          	mv	s0,a3
    3f04:	00070913          	mv	s2,a4
    3f08:	df1fc0ef          	jal	ra,cf8 <duk_get_hstring>
    3f0c:	00050663          	beqz	a0,3f18 <.L992>
    3f10:	01452903          	lw	s2,20(a0)
    3f14:	01c50413          	addi	s0,a0,28

00003f18 <.L992>:
    3f18:	00048463          	beqz	s1,3f20 <.L993>
    3f1c:	0124a023          	sw	s2,0(s1)

00003f20 <.L993>:
    3f20:	00c12083          	lw	ra,12(sp)
    3f24:	00040513          	mv	a0,s0
    3f28:	00812403          	lw	s0,8(sp)
    3f2c:	00412483          	lw	s1,4(sp)
    3f30:	00012903          	lw	s2,0(sp)
    3f34:	01010113          	addi	sp,sp,16
    3f38:	00008067          	ret

00003f3c <duk_get_string_default>:
    3f3c:	ff010113          	addi	sp,sp,-16
    3f40:	00812423          	sw	s0,8(sp)
    3f44:	00112623          	sw	ra,12(sp)
    3f48:	00060413          	mv	s0,a2
    3f4c:	dadfc0ef          	jal	ra,cf8 <duk_get_hstring>
    3f50:	00050463          	beqz	a0,3f58 <.L1002>
    3f54:	01c50413          	addi	s0,a0,28

00003f58 <.L1002>:
    3f58:	00c12083          	lw	ra,12(sp)
    3f5c:	00040513          	mv	a0,s0
    3f60:	00812403          	lw	s0,8(sp)
    3f64:	01010113          	addi	sp,sp,16
    3f68:	00008067          	ret

00003f6c <duk_get_pointer>:
    3f6c:	ff010113          	addi	sp,sp,-16
    3f70:	00112623          	sw	ra,12(sp)
    3f74:	d2dfc0ef          	jal	ra,ca0 <duk_get_tval_or_unused>
    3f78:	00655703          	lhu	a4,6(a0)
    3f7c:	000107b7          	lui	a5,0x10
    3f80:	ff678793          	addi	a5,a5,-10 # fff6 <duk__twodigit_year_fixup+0x2e>
    3f84:	00f71a63          	bne	a4,a5,3f98 <.L1009>
    3f88:	00052503          	lw	a0,0(a0)

00003f8c <.L1007>:
    3f8c:	00c12083          	lw	ra,12(sp)
    3f90:	01010113          	addi	sp,sp,16
    3f94:	00008067          	ret

00003f98 <.L1009>:
    3f98:	00000513          	li	a0,0
    3f9c:	ff1ff06f          	j	3f8c <.L1007>

00003fa0 <duk_get_pointer_default>:
    3fa0:	ff010113          	addi	sp,sp,-16
    3fa4:	00812423          	sw	s0,8(sp)
    3fa8:	00112623          	sw	ra,12(sp)
    3fac:	00060413          	mv	s0,a2
    3fb0:	cf1fc0ef          	jal	ra,ca0 <duk_get_tval_or_unused>
    3fb4:	00655703          	lhu	a4,6(a0)
    3fb8:	000107b7          	lui	a5,0x10
    3fbc:	ff678793          	addi	a5,a5,-10 # fff6 <duk__twodigit_year_fixup+0x2e>
    3fc0:	00f71463          	bne	a4,a5,3fc8 <.L1012>
    3fc4:	00052403          	lw	s0,0(a0)

00003fc8 <.L1012>:
    3fc8:	00c12083          	lw	ra,12(sp)
    3fcc:	00040513          	mv	a0,s0
    3fd0:	00812403          	lw	s0,8(sp)
    3fd4:	01010113          	addi	sp,sp,16
    3fd8:	00008067          	ret

00003fdc <duk_get_c_function>:
    3fdc:	ff010113          	addi	sp,sp,-16
    3fe0:	00112623          	sw	ra,12(sp)
    3fe4:	cbdfc0ef          	jal	ra,ca0 <duk_get_tval_or_unused>
    3fe8:	00655703          	lhu	a4,6(a0)
    3fec:	000107b7          	lui	a5,0x10
    3ff0:	ff978793          	addi	a5,a5,-7 # fff9 <duk__twodigit_year_fixup+0x31>
    3ff4:	02f71663          	bne	a4,a5,4020 <.L1016>
    3ff8:	00052703          	lw	a4,0(a0)
    3ffc:	000017b7          	lui	a5,0x1
    4000:	00000513          	li	a0,0
    4004:	00072683          	lw	a3,0(a4)
    4008:	00d7f7b3          	and	a5,a5,a3
    400c:	00078463          	beqz	a5,4014 <.L1014>
    4010:	02872503          	lw	a0,40(a4)

00004014 <.L1014>:
    4014:	00c12083          	lw	ra,12(sp)
    4018:	01010113          	addi	sp,sp,16
    401c:	00008067          	ret

00004020 <.L1016>:
    4020:	00000513          	li	a0,0
    4024:	ff1ff06f          	j	4014 <.L1014>

00004028 <duk_get_c_function_default>:
    4028:	ff010113          	addi	sp,sp,-16
    402c:	00812423          	sw	s0,8(sp)
    4030:	00112623          	sw	ra,12(sp)
    4034:	00060413          	mv	s0,a2
    4038:	fa5ff0ef          	jal	ra,3fdc <duk_get_c_function>
    403c:	00050463          	beqz	a0,4044 <.L1020>
    4040:	00050413          	mv	s0,a0

00004044 <.L1020>:
    4044:	00c12083          	lw	ra,12(sp)
    4048:	00040513          	mv	a0,s0
    404c:	00812403          	lw	s0,8(sp)
    4050:	01010113          	addi	sp,sp,16
    4054:	00008067          	ret

00004058 <duk_get_context>:
    4058:	00010637          	lui	a2,0x10
    405c:	ff010113          	addi	sp,sp,-16
    4060:	ff960613          	addi	a2,a2,-7 # fff9 <duk__twodigit_year_fixup+0x31>
    4064:	00112623          	sw	ra,12(sp)
    4068:	c59fc0ef          	jal	ra,cc0 <duk__get_tagged_heaphdr_raw>
    406c:	00050c63          	beqz	a0,4084 <.L1025>
    4070:	00052783          	lw	a5,0(a0)
    4074:	01200713          	li	a4,18
    4078:	01b7d793          	srli	a5,a5,0x1b
    407c:	00e78463          	beq	a5,a4,4084 <.L1025>
    4080:	00000513          	li	a0,0

00004084 <.L1025>:
    4084:	00c12083          	lw	ra,12(sp)
    4088:	01010113          	addi	sp,sp,16
    408c:	00008067          	ret

00004090 <duk_get_context_default>:
    4090:	ff010113          	addi	sp,sp,-16
    4094:	00812423          	sw	s0,8(sp)
    4098:	00060413          	mv	s0,a2
    409c:	00010637          	lui	a2,0x10
    40a0:	ff960613          	addi	a2,a2,-7 # fff9 <duk__twodigit_year_fixup+0x31>
    40a4:	00112623          	sw	ra,12(sp)
    40a8:	c19fc0ef          	jal	ra,cc0 <duk__get_tagged_heaphdr_raw>
    40ac:	00050c63          	beqz	a0,40c4 <.L1032>
    40b0:	00052783          	lw	a5,0(a0)
    40b4:	01200713          	li	a4,18
    40b8:	01b7d793          	srli	a5,a5,0x1b
    40bc:	00e79463          	bne	a5,a4,40c4 <.L1032>
    40c0:	00050413          	mv	s0,a0

000040c4 <.L1032>:
    40c4:	00c12083          	lw	ra,12(sp)
    40c8:	00040513          	mv	a0,s0
    40cc:	00812403          	lw	s0,8(sp)
    40d0:	01010113          	addi	sp,sp,16
    40d4:	00008067          	ret

000040d8 <duk_get_heapptr>:
    40d8:	ff010113          	addi	sp,sp,-16
    40dc:	00112623          	sw	ra,12(sp)
    40e0:	bc1fc0ef          	jal	ra,ca0 <duk_get_tval_or_unused>
    40e4:	00655703          	lhu	a4,6(a0)
    40e8:	000107b7          	lui	a5,0x10
    40ec:	ff778793          	addi	a5,a5,-9 # fff7 <duk__twodigit_year_fixup+0x2f>
    40f0:	00e7fa63          	bgeu	a5,a4,4104 <.L1040>
    40f4:	00052503          	lw	a0,0(a0)

000040f8 <.L1038>:
    40f8:	00c12083          	lw	ra,12(sp)
    40fc:	01010113          	addi	sp,sp,16
    4100:	00008067          	ret

00004104 <.L1040>:
    4104:	00000513          	li	a0,0
    4108:	ff1ff06f          	j	40f8 <.L1038>

0000410c <duk_get_heapptr_default>:
    410c:	ff010113          	addi	sp,sp,-16
    4110:	00812423          	sw	s0,8(sp)
    4114:	00112623          	sw	ra,12(sp)
    4118:	00060413          	mv	s0,a2
    411c:	fbdff0ef          	jal	ra,40d8 <duk_get_heapptr>
    4120:	00050463          	beqz	a0,4128 <.L1043>
    4124:	00050413          	mv	s0,a0

00004128 <.L1043>:
    4128:	00c12083          	lw	ra,12(sp)
    412c:	00040513          	mv	a0,s0
    4130:	00812403          	lw	s0,8(sp)
    4134:	01010113          	addi	sp,sp,16
    4138:	00008067          	ret

0000413c <duk_get_type>:
    413c:	ff010113          	addi	sp,sp,-16
    4140:	00112623          	sw	ra,12(sp)
    4144:	b5dfc0ef          	jal	ra,ca0 <duk_get_tval_or_unused>
    4148:	00655783          	lhu	a5,6(a0)
    414c:	00800713          	li	a4,8
    4150:	00400513          	li	a0,4
    4154:	00e78793          	addi	a5,a5,14
    4158:	01079793          	slli	a5,a5,0x10
    415c:	0107d793          	srli	a5,a5,0x10
    4160:	00f76a63          	bltu	a4,a5,4174 <.L1048>
    4164:	0004f717          	auipc	a4,0x4f
    4168:	96470713          	addi	a4,a4,-1692 # 52ac8 <.LANCHOR1>
    416c:	00f707b3          	add	a5,a4,a5
    4170:	12c78503          	lb	a0,300(a5)

00004174 <.L1048>:
    4174:	00c12083          	lw	ra,12(sp)
    4178:	01010113          	addi	sp,sp,16
    417c:	00008067          	ret

00004180 <duk_check_type>:
    4180:	ff010113          	addi	sp,sp,-16
    4184:	00812423          	sw	s0,8(sp)
    4188:	00112623          	sw	ra,12(sp)
    418c:	00060413          	mv	s0,a2
    4190:	fadff0ef          	jal	ra,413c <duk_get_type>
    4194:	00c12083          	lw	ra,12(sp)
    4198:	40850533          	sub	a0,a0,s0
    419c:	00812403          	lw	s0,8(sp)
    41a0:	00153513          	seqz	a0,a0
    41a4:	01010113          	addi	sp,sp,16
    41a8:	00008067          	ret

000041ac <duk_get_type_mask>:
    41ac:	ff010113          	addi	sp,sp,-16
    41b0:	00112623          	sw	ra,12(sp)
    41b4:	aedfc0ef          	jal	ra,ca0 <duk_get_tval_or_unused>
    41b8:	00655783          	lhu	a5,6(a0)
    41bc:	00800713          	li	a4,8
    41c0:	01000513          	li	a0,16
    41c4:	00e78793          	addi	a5,a5,14
    41c8:	01079793          	slli	a5,a5,0x10
    41cc:	0107d793          	srli	a5,a5,0x10
    41d0:	00f76c63          	bltu	a4,a5,41e8 <.L1054>
    41d4:	00179793          	slli	a5,a5,0x1
    41d8:	0004f717          	auipc	a4,0x4f
    41dc:	8f070713          	addi	a4,a4,-1808 # 52ac8 <.LANCHOR1>
    41e0:	00f707b3          	add	a5,a4,a5
    41e4:	1387d503          	lhu	a0,312(a5)

000041e8 <.L1054>:
    41e8:	00c12083          	lw	ra,12(sp)
    41ec:	01010113          	addi	sp,sp,16
    41f0:	00008067          	ret

000041f4 <duk_is_undefined>:
    41f4:	ff010113          	addi	sp,sp,-16
    41f8:	00112623          	sw	ra,12(sp)
    41fc:	aa5fc0ef          	jal	ra,ca0 <duk_get_tval_or_unused>
    4200:	00655503          	lhu	a0,6(a0)
    4204:	00c12083          	lw	ra,12(sp)
    4208:	ffff07b7          	lui	a5,0xffff0
    420c:	00d78793          	addi	a5,a5,13 # ffff000d <_ebss+0xfff94a2d>
    4210:	00f50533          	add	a0,a0,a5
    4214:	00153513          	seqz	a0,a0
    4218:	01010113          	addi	sp,sp,16
    421c:	00008067          	ret

00004220 <duk_is_null>:
    4220:	ff010113          	addi	sp,sp,-16
    4224:	00112623          	sw	ra,12(sp)
    4228:	a79fc0ef          	jal	ra,ca0 <duk_get_tval_or_unused>
    422c:	00655503          	lhu	a0,6(a0)
    4230:	00c12083          	lw	ra,12(sp)
    4234:	ffff07b7          	lui	a5,0xffff0
    4238:	00c78793          	addi	a5,a5,12 # ffff000c <_ebss+0xfff94a2c>
    423c:	00f50533          	add	a0,a0,a5
    4240:	00153513          	seqz	a0,a0
    4244:	01010113          	addi	sp,sp,16
    4248:	00008067          	ret

0000424c <duk_is_boolean>:
    424c:	ff010113          	addi	sp,sp,-16
    4250:	00112623          	sw	ra,12(sp)
    4254:	a4dfc0ef          	jal	ra,ca0 <duk_get_tval_or_unused>
    4258:	00655503          	lhu	a0,6(a0)
    425c:	00c12083          	lw	ra,12(sp)
    4260:	ffff07b7          	lui	a5,0xffff0
    4264:	00b78793          	addi	a5,a5,11 # ffff000b <_ebss+0xfff94a2b>
    4268:	00f50533          	add	a0,a0,a5
    426c:	00153513          	seqz	a0,a0
    4270:	01010113          	addi	sp,sp,16
    4274:	00008067          	ret

00004278 <duk_is_number>:
    4278:	ff010113          	addi	sp,sp,-16
    427c:	00112623          	sw	ra,12(sp)
    4280:	a21fc0ef          	jal	ra,ca0 <duk_get_tval_or_unused>
    4284:	00655503          	lhu	a0,6(a0)
    4288:	00c12083          	lw	ra,12(sp)
    428c:	000107b7          	lui	a5,0x10
    4290:	ff178793          	addi	a5,a5,-15 # fff1 <duk__twodigit_year_fixup+0x29>
    4294:	00f53533          	sltu	a0,a0,a5
    4298:	01010113          	addi	sp,sp,16
    429c:	00008067          	ret

000042a0 <duk_is_nan>:
    42a0:	ff010113          	addi	sp,sp,-16
    42a4:	00112623          	sw	ra,12(sp)
    42a8:	9f9fc0ef          	jal	ra,ca0 <duk_get_tval_or_unused>
    42ac:	00655703          	lhu	a4,6(a0)
    42b0:	000107b7          	lui	a5,0x10
    42b4:	ff078793          	addi	a5,a5,-16 # fff0 <duk__twodigit_year_fixup+0x28>
    42b8:	00e7ec63          	bltu	a5,a4,42d0 <.L1067>
    42bc:	00452583          	lw	a1,4(a0)
    42c0:	00c12083          	lw	ra,12(sp)
    42c4:	00052503          	lw	a0,0(a0)
    42c8:	01010113          	addi	sp,sp,16
    42cc:	ec5fb06f          	j	190 <duk_repl_isnan>

000042d0 <.L1067>:
    42d0:	00c12083          	lw	ra,12(sp)
    42d4:	00000513          	li	a0,0
    42d8:	01010113          	addi	sp,sp,16
    42dc:	00008067          	ret

000042e0 <duk_is_string>:
    42e0:	ff010113          	addi	sp,sp,-16
    42e4:	00112623          	sw	ra,12(sp)
    42e8:	9b9fc0ef          	jal	ra,ca0 <duk_get_tval_or_unused>
    42ec:	00655503          	lhu	a0,6(a0)
    42f0:	00c12083          	lw	ra,12(sp)
    42f4:	ffff07b7          	lui	a5,0xffff0
    42f8:	00878793          	addi	a5,a5,8 # ffff0008 <_ebss+0xfff94a28>
    42fc:	00f50533          	add	a0,a0,a5
    4300:	00153513          	seqz	a0,a0
    4304:	01010113          	addi	sp,sp,16
    4308:	00008067          	ret

0000430c <duk_is_object>:
    430c:	ff010113          	addi	sp,sp,-16
    4310:	00112623          	sw	ra,12(sp)
    4314:	98dfc0ef          	jal	ra,ca0 <duk_get_tval_or_unused>
    4318:	00655503          	lhu	a0,6(a0)
    431c:	00c12083          	lw	ra,12(sp)
    4320:	ffff07b7          	lui	a5,0xffff0
    4324:	00778793          	addi	a5,a5,7 # ffff0007 <_ebss+0xfff94a27>
    4328:	00f50533          	add	a0,a0,a5
    432c:	00153513          	seqz	a0,a0
    4330:	01010113          	addi	sp,sp,16
    4334:	00008067          	ret

00004338 <duk_is_buffer>:
    4338:	ff010113          	addi	sp,sp,-16
    433c:	00112623          	sw	ra,12(sp)
    4340:	961fc0ef          	jal	ra,ca0 <duk_get_tval_or_unused>
    4344:	00655503          	lhu	a0,6(a0)
    4348:	00c12083          	lw	ra,12(sp)
    434c:	ffff07b7          	lui	a5,0xffff0
    4350:	00678793          	addi	a5,a5,6 # ffff0006 <_ebss+0xfff94a26>
    4354:	00f50533          	add	a0,a0,a5
    4358:	00153513          	seqz	a0,a0
    435c:	01010113          	addi	sp,sp,16
    4360:	00008067          	ret

00004364 <duk_is_buffer_data>:
    4364:	ff010113          	addi	sp,sp,-16
    4368:	00112623          	sw	ra,12(sp)
    436c:	935fc0ef          	jal	ra,ca0 <duk_get_tval_or_unused>
    4370:	00655683          	lhu	a3,6(a0)
    4374:	00010737          	lui	a4,0x10
    4378:	ffa70613          	addi	a2,a4,-6 # fffa <duk__twodigit_year_fixup+0x32>
    437c:	02c68863          	beq	a3,a2,43ac <.L1077>
    4380:	ff970713          	addi	a4,a4,-7
    4384:	00050793          	mv	a5,a0
    4388:	00000513          	li	a0,0
    438c:	00e69a63          	bne	a3,a4,43a0 <.L1075>
    4390:	0007a783          	lw	a5,0(a5)
    4394:	0007a503          	lw	a0,0(a5)
    4398:	00d55513          	srli	a0,a0,0xd
    439c:	00157513          	andi	a0,a0,1

000043a0 <.L1075>:
    43a0:	00c12083          	lw	ra,12(sp)
    43a4:	01010113          	addi	sp,sp,16
    43a8:	00008067          	ret

000043ac <.L1077>:
    43ac:	00100513          	li	a0,1
    43b0:	ff1ff06f          	j	43a0 <.L1075>

000043b4 <duk_is_pointer>:
    43b4:	ff010113          	addi	sp,sp,-16
    43b8:	00112623          	sw	ra,12(sp)
    43bc:	8e5fc0ef          	jal	ra,ca0 <duk_get_tval_or_unused>
    43c0:	00655503          	lhu	a0,6(a0)
    43c4:	00c12083          	lw	ra,12(sp)
    43c8:	ffff07b7          	lui	a5,0xffff0
    43cc:	00a78793          	addi	a5,a5,10 # ffff000a <_ebss+0xfff94a2a>
    43d0:	00f50533          	add	a0,a0,a5
    43d4:	00153513          	seqz	a0,a0
    43d8:	01010113          	addi	sp,sp,16
    43dc:	00008067          	ret

000043e0 <duk_is_lightfunc>:
    43e0:	ff010113          	addi	sp,sp,-16
    43e4:	00112623          	sw	ra,12(sp)
    43e8:	8b9fc0ef          	jal	ra,ca0 <duk_get_tval_or_unused>
    43ec:	00655503          	lhu	a0,6(a0)
    43f0:	00c12083          	lw	ra,12(sp)
    43f4:	ffff07b7          	lui	a5,0xffff0
    43f8:	00978793          	addi	a5,a5,9 # ffff0009 <_ebss+0xfff94a29>
    43fc:	00f50533          	add	a0,a0,a5
    4400:	00153513          	seqz	a0,a0
    4404:	01010113          	addi	sp,sp,16
    4408:	00008067          	ret

0000440c <duk_is_symbol>:
    440c:	ff010113          	addi	sp,sp,-16
    4410:	00112623          	sw	ra,12(sp)
    4414:	8e5fc0ef          	jal	ra,cf8 <duk_get_hstring>
    4418:	00050e63          	beqz	a0,4434 <.L1086>
    441c:	00052503          	lw	a0,0(a0)
    4420:	00955513          	srli	a0,a0,0x9
    4424:	00157513          	andi	a0,a0,1

00004428 <.L1084>:
    4428:	00c12083          	lw	ra,12(sp)
    442c:	01010113          	addi	sp,sp,16
    4430:	00008067          	ret

00004434 <.L1086>:
    4434:	00000513          	li	a0,0
    4438:	ff1ff06f          	j	4428 <.L1084>

0000443c <duk_is_array>:
    443c:	ff010113          	addi	sp,sp,-16
    4440:	00112623          	sw	ra,12(sp)
    4444:	831fc0ef          	jal	ra,c74 <duk_get_tval>
    4448:	02050263          	beqz	a0,446c <.L1088>
    444c:	00655703          	lhu	a4,6(a0)
    4450:	000107b7          	lui	a5,0x10
    4454:	ff978793          	addi	a5,a5,-7 # fff9 <duk__twodigit_year_fixup+0x31>
    4458:	00f71a63          	bne	a4,a5,446c <.L1088>
    445c:	00c12083          	lw	ra,12(sp)
    4460:	00052503          	lw	a0,0(a0)
    4464:	01010113          	addi	sp,sp,16
    4468:	dc8fe06f          	j	2a30 <duk_js_isarray_hobject>

0000446c <.L1088>:
    446c:	00c12083          	lw	ra,12(sp)
    4470:	00000513          	li	a0,0
    4474:	01010113          	addi	sp,sp,16
    4478:	00008067          	ret

0000447c <duk_is_function>:
    447c:	ff010113          	addi	sp,sp,-16
    4480:	00112623          	sw	ra,12(sp)
    4484:	81dfc0ef          	jal	ra,ca0 <duk_get_tval_or_unused>
    4488:	00655783          	lhu	a5,6(a0)
    448c:	00010737          	lui	a4,0x10
    4490:	ff970713          	addi	a4,a4,-7 # fff9 <duk__twodigit_year_fixup+0x31>
    4494:	02e79063          	bne	a5,a4,44b4 <.L1095>
    4498:	00052783          	lw	a5,0(a0)
    449c:	0007a503          	lw	a0,0(a5)
    44a0:	00955513          	srli	a0,a0,0x9
    44a4:	00157513          	andi	a0,a0,1

000044a8 <.L1094>:
    44a8:	00c12083          	lw	ra,12(sp)
    44ac:	01010113          	addi	sp,sp,16
    44b0:	00008067          	ret

000044b4 <.L1095>:
    44b4:	ffff0737          	lui	a4,0xffff0
    44b8:	00970713          	addi	a4,a4,9 # ffff0009 <_ebss+0xfff94a29>
    44bc:	00e78533          	add	a0,a5,a4
    44c0:	00153513          	seqz	a0,a0
    44c4:	fe5ff06f          	j	44a8 <.L1094>

000044c8 <duk_is_constructable>:
    44c8:	ff010113          	addi	sp,sp,-16
    44cc:	00112623          	sw	ra,12(sp)
    44d0:	fd0fc0ef          	jal	ra,ca0 <duk_get_tval_or_unused>
    44d4:	00655783          	lhu	a5,6(a0)
    44d8:	00010737          	lui	a4,0x10
    44dc:	ff970713          	addi	a4,a4,-7 # fff9 <duk__twodigit_year_fixup+0x31>
    44e0:	02e79063          	bne	a5,a4,4500 <.L1099>
    44e4:	00052783          	lw	a5,0(a0)
    44e8:	0007a503          	lw	a0,0(a5)
    44ec:	00855513          	srli	a0,a0,0x8
    44f0:	00157513          	andi	a0,a0,1

000044f4 <.L1098>:
    44f4:	00c12083          	lw	ra,12(sp)
    44f8:	01010113          	addi	sp,sp,16
    44fc:	00008067          	ret

00004500 <.L1099>:
    4500:	ffff0737          	lui	a4,0xffff0
    4504:	00970713          	addi	a4,a4,9 # ffff0009 <_ebss+0xfff94a29>
    4508:	00e78533          	add	a0,a5,a4
    450c:	00153513          	seqz	a0,a0
    4510:	fe5ff06f          	j	44f4 <.L1098>

00004514 <duk_is_c_function>:
    4514:	ff010113          	addi	sp,sp,-16
    4518:	00112623          	sw	ra,12(sp)
    451c:	fe8fc0ef          	jal	ra,d04 <duk_get_hobject>
    4520:	00050e63          	beqz	a0,453c <.L1104>
    4524:	00052503          	lw	a0,0(a0)
    4528:	00c55513          	srli	a0,a0,0xc
    452c:	00157513          	andi	a0,a0,1

00004530 <.L1102>:
    4530:	00c12083          	lw	ra,12(sp)
    4534:	01010113          	addi	sp,sp,16
    4538:	00008067          	ret

0000453c <.L1104>:
    453c:	00000513          	li	a0,0
    4540:	ff1ff06f          	j	4530 <.L1102>

00004544 <duk_is_ecmascript_function>:
    4544:	ff010113          	addi	sp,sp,-16
    4548:	00112623          	sw	ra,12(sp)
    454c:	fb8fc0ef          	jal	ra,d04 <duk_get_hobject>
    4550:	00050e63          	beqz	a0,456c <.L1108>
    4554:	00052503          	lw	a0,0(a0)
    4558:	00b55513          	srli	a0,a0,0xb
    455c:	00157513          	andi	a0,a0,1

00004560 <.L1106>:
    4560:	00c12083          	lw	ra,12(sp)
    4564:	01010113          	addi	sp,sp,16
    4568:	00008067          	ret

0000456c <.L1108>:
    456c:	00000513          	li	a0,0
    4570:	ff1ff06f          	j	4560 <.L1106>

00004574 <duk_is_bound_function>:
    4574:	ff010113          	addi	sp,sp,-16
    4578:	00112623          	sw	ra,12(sp)
    457c:	f88fc0ef          	jal	ra,d04 <duk_get_hobject>
    4580:	00050e63          	beqz	a0,459c <.L1112>
    4584:	00052503          	lw	a0,0(a0)
    4588:	00a55513          	srli	a0,a0,0xa
    458c:	00157513          	andi	a0,a0,1

00004590 <.L1110>:
    4590:	00c12083          	lw	ra,12(sp)
    4594:	01010113          	addi	sp,sp,16
    4598:	00008067          	ret

0000459c <.L1112>:
    459c:	00000513          	li	a0,0
    45a0:	ff1ff06f          	j	4590 <.L1110>

000045a4 <duk_is_thread>:
    45a4:	ff010113          	addi	sp,sp,-16
    45a8:	00112623          	sw	ra,12(sp)
    45ac:	f58fc0ef          	jal	ra,d04 <duk_get_hobject>
    45b0:	02050063          	beqz	a0,45d0 <.L1116>
    45b4:	00052503          	lw	a0,0(a0)
    45b8:	01b55513          	srli	a0,a0,0x1b
    45bc:	fee50513          	addi	a0,a0,-18
    45c0:	00153513          	seqz	a0,a0

000045c4 <.L1114>:
    45c4:	00c12083          	lw	ra,12(sp)
    45c8:	01010113          	addi	sp,sp,16
    45cc:	00008067          	ret

000045d0 <.L1116>:
    45d0:	00000513          	li	a0,0
    45d4:	ff1ff06f          	j	45c4 <.L1114>

000045d8 <duk_is_fixed_buffer>:
    45d8:	ff010113          	addi	sp,sp,-16
    45dc:	00112623          	sw	ra,12(sp)
    45e0:	ec0fc0ef          	jal	ra,ca0 <duk_get_tval_or_unused>
    45e4:	00655703          	lhu	a4,6(a0)
    45e8:	000107b7          	lui	a5,0x10
    45ec:	ffa78793          	addi	a5,a5,-6 # fffa <duk__twodigit_year_fixup+0x32>
    45f0:	02f71263          	bne	a4,a5,4614 <.L1120>
    45f4:	00052783          	lw	a5,0(a0)
    45f8:	0007a503          	lw	a0,0(a5)
    45fc:	00755513          	srli	a0,a0,0x7
    4600:	00154513          	xori	a0,a0,1
    4604:	00157513          	andi	a0,a0,1

00004608 <.L1118>:
    4608:	00c12083          	lw	ra,12(sp)
    460c:	01010113          	addi	sp,sp,16
    4610:	00008067          	ret

00004614 <.L1120>:
    4614:	00000513          	li	a0,0
    4618:	ff1ff06f          	j	4608 <.L1118>

0000461c <duk_is_dynamic_buffer>:
    461c:	ff010113          	addi	sp,sp,-16
    4620:	00112623          	sw	ra,12(sp)
    4624:	e7cfc0ef          	jal	ra,ca0 <duk_get_tval_or_unused>
    4628:	00655703          	lhu	a4,6(a0)
    462c:	000107b7          	lui	a5,0x10
    4630:	ffa78793          	addi	a5,a5,-6 # fffa <duk__twodigit_year_fixup+0x32>
    4634:	02f71263          	bne	a4,a5,4658 <.L1124>
    4638:	00052783          	lw	a5,0(a0)
    463c:	0007a503          	lw	a0,0(a5)
    4640:	18057513          	andi	a0,a0,384
    4644:	f8050513          	addi	a0,a0,-128
    4648:	00153513          	seqz	a0,a0

0000464c <.L1122>:
    464c:	00c12083          	lw	ra,12(sp)
    4650:	01010113          	addi	sp,sp,16
    4654:	00008067          	ret

00004658 <.L1124>:
    4658:	00000513          	li	a0,0
    465c:	ff1ff06f          	j	464c <.L1122>

00004660 <duk_is_external_buffer>:
    4660:	ff010113          	addi	sp,sp,-16
    4664:	00112623          	sw	ra,12(sp)
    4668:	e38fc0ef          	jal	ra,ca0 <duk_get_tval_or_unused>
    466c:	00655703          	lhu	a4,6(a0)
    4670:	000107b7          	lui	a5,0x10
    4674:	ffa78793          	addi	a5,a5,-6 # fffa <duk__twodigit_year_fixup+0x32>
    4678:	02f71263          	bne	a4,a5,469c <.L1128>
    467c:	00052783          	lw	a5,0(a0)
    4680:	0007a503          	lw	a0,0(a5)
    4684:	18057513          	andi	a0,a0,384
    4688:	e8050513          	addi	a0,a0,-384
    468c:	00153513          	seqz	a0,a0

00004690 <.L1126>:
    4690:	00c12083          	lw	ra,12(sp)
    4694:	01010113          	addi	sp,sp,16
    4698:	00008067          	ret

0000469c <.L1128>:
    469c:	00000513          	li	a0,0
    46a0:	ff1ff06f          	j	4690 <.L1126>

000046a4 <duk_get_error_code>:
    46a4:	ff010113          	addi	sp,sp,-16
    46a8:	00812423          	sw	s0,8(sp)
    46ac:	00112623          	sw	ra,12(sp)
    46b0:	00050413          	mv	s0,a0
    46b4:	e50fc0ef          	jal	ra,d04 <duk_get_hobject>
    46b8:	000027b7          	lui	a5,0x2
    46bc:	71078793          	addi	a5,a5,1808 # 2710 <.L666>

000046c0 <.L1132>:
    46c0:	04050463          	beqz	a0,4708 <.L1133>
    46c4:	0b442703          	lw	a4,180(s0)
    46c8:	04a70a63          	beq	a4,a0,471c <.L1134>
    46cc:	0bc42703          	lw	a4,188(s0)
    46d0:	04a70a63          	beq	a4,a0,4724 <.L1135>
    46d4:	0c442703          	lw	a4,196(s0)
    46d8:	04a70a63          	beq	a4,a0,472c <.L1136>
    46dc:	0cc42703          	lw	a4,204(s0)
    46e0:	04a70a63          	beq	a4,a0,4734 <.L1137>
    46e4:	0d442703          	lw	a4,212(s0)
    46e8:	04a70a63          	beq	a4,a0,473c <.L1138>
    46ec:	0dc42703          	lw	a4,220(s0)
    46f0:	04a70a63          	beq	a4,a0,4744 <.L1139>
    46f4:	0ac42703          	lw	a4,172(s0)
    46f8:	04a70a63          	beq	a4,a0,474c <.L1140>
    46fc:	fff78793          	addi	a5,a5,-1
    4700:	01452503          	lw	a0,20(a0)
    4704:	fa079ee3          	bnez	a5,46c0 <.L1132>

00004708 <.L1133>:
    4708:	00000513          	li	a0,0

0000470c <.L1130>:
    470c:	00c12083          	lw	ra,12(sp)
    4710:	00812403          	lw	s0,8(sp)
    4714:	01010113          	addi	sp,sp,16
    4718:	00008067          	ret

0000471c <.L1134>:
    471c:	00200513          	li	a0,2
    4720:	fedff06f          	j	470c <.L1130>

00004724 <.L1135>:
    4724:	00300513          	li	a0,3
    4728:	fe5ff06f          	j	470c <.L1130>

0000472c <.L1136>:
    472c:	00400513          	li	a0,4
    4730:	fddff06f          	j	470c <.L1130>

00004734 <.L1137>:
    4734:	00500513          	li	a0,5
    4738:	fd5ff06f          	j	470c <.L1130>

0000473c <.L1138>:
    473c:	00600513          	li	a0,6
    4740:	fcdff06f          	j	470c <.L1130>

00004744 <.L1139>:
    4744:	00700513          	li	a0,7
    4748:	fc5ff06f          	j	470c <.L1130>

0000474c <.L1140>:
    474c:	00100513          	li	a0,1
    4750:	fbdff06f          	j	470c <.L1130>

00004754 <duk_fatal_raw>:
    4754:	02c52783          	lw	a5,44(a0)
    4758:	ff010113          	addi	sp,sp,-16
    475c:	00112623          	sw	ra,12(sp)
    4760:	0147a703          	lw	a4,20(a5)
    4764:	0107a503          	lw	a0,16(a5)
    4768:	000700e7          	jalr	a4

0000476c <.L1144>:
    476c:	0000006f          	j	476c <.L1144>

00004770 <duk_trim>:
    4770:	fc010113          	addi	sp,sp,-64
    4774:	02112e23          	sw	ra,60(sp)
    4778:	02812c23          	sw	s0,56(sp)
    477c:	02912a23          	sw	s1,52(sp)
    4780:	03312623          	sw	s3,44(sp)
    4784:	03412423          	sw	s4,40(sp)
    4788:	03512223          	sw	s5,36(sp)
    478c:	03612023          	sw	s6,32(sp)
    4790:	00050993          	mv	s3,a0
    4794:	03212823          	sw	s2,48(sp)
    4798:	01712e23          	sw	s7,28(sp)
    479c:	01812c23          	sw	s8,24(sp)
    47a0:	01912a23          	sw	s9,20(sp)
    47a4:	350080ef          	jal	ra,caf4 <duk_require_normalize_index>
    47a8:	00050593          	mv	a1,a0
    47ac:	00050b13          	mv	s6,a0
    47b0:	00098513          	mv	a0,s3
    47b4:	758070ef          	jal	ra,bf0c <duk_require_hstring>
    47b8:	01452483          	lw	s1,20(a0)
    47bc:	01c50a13          	addi	s4,a0,28
    47c0:	000a0413          	mv	s0,s4
    47c4:	009a04b3          	add	s1,s4,s1
    47c8:	00810a93          	addi	s5,sp,8

000047cc <.L1147>:
    47cc:	06946663          	bltu	s0,s1,4838 <.L1151>
    47d0:	00040913          	mv	s2,s0
    47d4:	08941a63          	bne	s0,s1,4868 <.L1149>

000047d8 <.L1150>:
    47d8:	00040613          	mv	a2,s0
    47dc:	01247463          	bgeu	s0,s2,47e4 <.L1158>
    47e0:	00090613          	mv	a2,s2

000047e4 <.L1158>:
    47e4:	01441463          	bne	s0,s4,47ec <.L1159>
    47e8:	0e960663          	beq	a2,s1,48d4 <.L1146>

000047ec <.L1159>:
    47ec:	00040593          	mv	a1,s0
    47f0:	40860633          	sub	a2,a2,s0
    47f4:	00098513          	mv	a0,s3
    47f8:	0b5090ef          	jal	ra,e0ac <duk_push_lstring>
    47fc:	03812403          	lw	s0,56(sp)
    4800:	03c12083          	lw	ra,60(sp)
    4804:	03412483          	lw	s1,52(sp)
    4808:	03012903          	lw	s2,48(sp)
    480c:	02812a03          	lw	s4,40(sp)
    4810:	02412a83          	lw	s5,36(sp)
    4814:	01c12b83          	lw	s7,28(sp)
    4818:	01812c03          	lw	s8,24(sp)
    481c:	01412c83          	lw	s9,20(sp)
    4820:	000b0593          	mv	a1,s6
    4824:	00098513          	mv	a0,s3
    4828:	02012b03          	lw	s6,32(sp)
    482c:	02c12983          	lw	s3,44(sp)
    4830:	04010113          	addi	sp,sp,64
    4834:	33d0706f          	j	c370 <duk_replace>

00004838 <.L1151>:
    4838:	00048693          	mv	a3,s1
    483c:	000a0613          	mv	a2,s4
    4840:	000a8593          	mv	a1,s5
    4844:	00098513          	mv	a0,s3
    4848:	00812423          	sw	s0,8(sp)
    484c:	0050d0ef          	jal	ra,12050 <duk_unicode_decode_xutf8_checked>
    4850:	00050913          	mv	s2,a0
    4854:	9ddfb0ef          	jal	ra,230 <duk_unicode_is_whitespace>
    4858:	06051a63          	bnez	a0,48cc <.L1148>
    485c:	00090513          	mv	a0,s2
    4860:	a75fb0ef          	jal	ra,2d4 <duk_unicode_is_line_terminator>
    4864:	06051463          	bnez	a0,48cc <.L1148>

00004868 <.L1149>:
    4868:	00048913          	mv	s2,s1
    486c:	08000c13          	li	s8,128
    4870:	00c10c93          	addi	s9,sp,12

00004874 <.L1171>:
    4874:	f72a72e3          	bgeu	s4,s2,47d8 <.L1150>
    4878:	01212423          	sw	s2,8(sp)
    487c:	00090a93          	mv	s5,s2

00004880 <.L1154>:
    4880:	fffac783          	lbu	a5,-1(s5)
    4884:	fffa8a93          	addi	s5,s5,-1
    4888:	0c07f793          	andi	a5,a5,192
    488c:	01879463          	bne	a5,s8,4894 <.L1153>
    4890:	ff5a68e3          	bltu	s4,s5,4880 <.L1154>

00004894 <.L1153>:
    4894:	00048693          	mv	a3,s1
    4898:	000a0613          	mv	a2,s4
    489c:	000c8593          	mv	a1,s9
    48a0:	00098513          	mv	a0,s3
    48a4:	01512623          	sw	s5,12(sp)
    48a8:	7a80d0ef          	jal	ra,12050 <duk_unicode_decode_xutf8_checked>
    48ac:	00050b93          	mv	s7,a0
    48b0:	981fb0ef          	jal	ra,230 <duk_unicode_is_whitespace>
    48b4:	00051863          	bnez	a0,48c4 <.L1162>
    48b8:	000b8513          	mv	a0,s7
    48bc:	a19fb0ef          	jal	ra,2d4 <duk_unicode_is_line_terminator>
    48c0:	f0050ce3          	beqz	a0,47d8 <.L1150>

000048c4 <.L1162>:
    48c4:	000a8913          	mv	s2,s5
    48c8:	fadff06f          	j	4874 <.L1171>

000048cc <.L1148>:
    48cc:	00812403          	lw	s0,8(sp)
    48d0:	efdff06f          	j	47cc <.L1147>

000048d4 <.L1146>:
    48d4:	03c12083          	lw	ra,60(sp)
    48d8:	03812403          	lw	s0,56(sp)
    48dc:	03412483          	lw	s1,52(sp)
    48e0:	03012903          	lw	s2,48(sp)
    48e4:	02c12983          	lw	s3,44(sp)
    48e8:	02812a03          	lw	s4,40(sp)
    48ec:	02412a83          	lw	s5,36(sp)
    48f0:	02012b03          	lw	s6,32(sp)
    48f4:	01c12b83          	lw	s7,28(sp)
    48f8:	01812c03          	lw	s8,24(sp)
    48fc:	01412c83          	lw	s9,20(sp)
    4900:	04010113          	addi	sp,sp,64
    4904:	00008067          	ret

00004908 <duk__numconv_parse_raw>:
    4908:	81010113          	addi	sp,sp,-2032
    490c:	7e812423          	sw	s0,2024(sp)
    4910:	7d812423          	sw	s8,1992(sp)
    4914:	7e112623          	sw	ra,2028(sp)
    4918:	7e912223          	sw	s1,2020(sp)
    491c:	7f212023          	sw	s2,2016(sp)
    4920:	7d312e23          	sw	s3,2012(sp)
    4924:	7d412c23          	sw	s4,2008(sp)
    4928:	7d512a23          	sw	s5,2004(sp)
    492c:	7d612823          	sw	s6,2000(sp)
    4930:	7d712623          	sw	s7,1996(sp)
    4934:	7d912223          	sw	s9,1988(sp)
    4938:	7da12023          	sw	s10,1984(sp)
    493c:	7bb12e23          	sw	s11,1980(sp)
    4940:	e8010113          	addi	sp,sp,-384
    4944:	00a12623          	sw	a0,12(sp)
    4948:	00167713          	andi	a4,a2,1
    494c:	00058413          	mv	s0,a1
    4950:	00060c13          	mv	s8,a2
    4954:	00070663          	beqz	a4,4960 <.L1174>
    4958:	fff00593          	li	a1,-1
    495c:	e15ff0ef          	jal	ra,4770 <duk_trim>

00004960 <.L1174>:
    4960:	00c12503          	lw	a0,12(sp)
    4964:	fff00593          	li	a1,-1
    4968:	5a4070ef          	jal	ra,bf0c <duk_require_hstring>
    496c:	01c54703          	lbu	a4,28(a0)
    4970:	02b00693          	li	a3,43
    4974:	00050913          	mv	s2,a0
    4978:	02d71263          	bne	a4,a3,499c <.L1175>
    497c:	008c7713          	andi	a4,s8,8
    4980:	01d50893          	addi	a7,a0,29
    4984:	02071263          	bnez	a4,49a8 <.L1312>

00004988 <.L1176>:
    4988:	00c12503          	lw	a0,12(sp)
    498c:	244090ef          	jal	ra,dbd0 <duk_pop>
    4990:	00c12503          	lw	a0,12(sp)
    4994:	0400a0ef          	jal	ra,e9d4 <duk_push_nan>
    4998:	29c0006f          	j	4c34 <.L1173>

0000499c <.L1175>:
    499c:	02d00693          	li	a3,45
    49a0:	06d70c63          	beq	a4,a3,4a18 <.L1178>
    49a4:	01c50893          	addi	a7,a0,28

000049a8 <.L1312>:
    49a8:	00012823          	sw	zero,16(sp)

000049ac <.L1177>:
    49ac:	020c7713          	andi	a4,s8,32
    49b0:	08070663          	beqz	a4,4a3c <.L1179>
    49b4:	00088513          	mv	a0,a7
    49b8:	00800613          	li	a2,8
    49bc:	00052597          	auipc	a1,0x52
    49c0:	39058593          	addi	a1,a1,912 # 56d4c <.LC20>
    49c4:	01112a23          	sw	a7,20(sp)
    49c8:	6dc340ef          	jal	ra,390a4 <__GI_strncmp>
    49cc:	01412883          	lw	a7,20(sp)
    49d0:	06051663          	bnez	a0,4a3c <.L1179>
    49d4:	004c7793          	andi	a5,s8,4
    49d8:	04078c63          	beqz	a5,4a30 <.L1180>

000049dc <.L1182>:
    49dc:	00053797          	auipc	a5,0x53
    49e0:	2cc78793          	addi	a5,a5,716 # 57ca8 <.LC4>
    49e4:	0007a903          	lw	s2,0(a5)
    49e8:	0047a403          	lw	s0,4(a5)

000049ec <.L1181>:
    49ec:	01012783          	lw	a5,16(sp)
    49f0:	00078663          	beqz	a5,49fc <.L1236>
    49f4:	800007b7          	lui	a5,0x80000
    49f8:	0087c433          	xor	s0,a5,s0

000049fc <.L1236>:
    49fc:	00c12503          	lw	a0,12(sp)
    4a00:	1d0090ef          	jal	ra,dbd0 <duk_pop>
    4a04:	00c12503          	lw	a0,12(sp)
    4a08:	00090593          	mv	a1,s2
    4a0c:	00040613          	mv	a2,s0
    4a10:	2f80a0ef          	jal	ra,ed08 <duk_push_number>
    4a14:	2200006f          	j	4c34 <.L1173>

00004a18 <.L1178>:
    4a18:	010c7713          	andi	a4,s8,16
    4a1c:	f60706e3          	beqz	a4,4988 <.L1176>
    4a20:	00100793          	li	a5,1
    4a24:	01d50893          	addi	a7,a0,29
    4a28:	00f12823          	sw	a5,16(sp)
    4a2c:	f81ff06f          	j	49ac <.L1177>

00004a30 <.L1180>:
    4a30:	0088c783          	lbu	a5,8(a7)
    4a34:	f4079ae3          	bnez	a5,4988 <.L1176>
    4a38:	fa5ff06f          	j	49dc <.L1182>

00004a3c <.L1179>:
    4a3c:	0008c683          	lbu	a3,0(a7)
    4a40:	03000713          	li	a4,48
    4a44:	04e69c63          	bne	a3,a4,4a9c <.L1183>
    4a48:	0018c703          	lbu	a4,1(a7)
    4a4c:	00bc5693          	srli	a3,s8,0xb
    4a50:	0016f693          	andi	a3,a3,1
    4a54:	02076713          	ori	a4,a4,32
    4a58:	00068663          	beqz	a3,4a64 <.L1184>
    4a5c:	07800693          	li	a3,120
    4a60:	10d70a63          	beq	a4,a3,4b74 <.L1237>

00004a64 <.L1184>:
    4a64:	000026b7          	lui	a3,0x2
    4a68:	00dc76b3          	and	a3,s8,a3
    4a6c:	00068663          	beqz	a3,4a78 <.L1186>
    4a70:	06f00693          	li	a3,111
    4a74:	10d70463          	beq	a4,a3,4b7c <.L1238>

00004a78 <.L1186>:
    4a78:	000046b7          	lui	a3,0x4
    4a7c:	00dc76b3          	and	a3,s8,a3
    4a80:	00068e63          	beqz	a3,4a9c <.L1183>
    4a84:	06200693          	li	a3,98
    4a88:	00d71a63          	bne	a4,a3,4a9c <.L1183>
    4a8c:	00200413          	li	s0,2

00004a90 <.L1185>:
    4a90:	c3dc7793          	andi	a5,s8,-963
    4a94:	4007ec13          	ori	s8,a5,1024
    4a98:	00288893          	addi	a7,a7,2

00004a9c <.L1183>:
    4a9c:	000017b7          	lui	a5,0x1
    4aa0:	fffff9b7          	lui	s3,0xfffff
    4aa4:	90078713          	addi	a4,a5,-1792 # 900 <duk_bd_decode+0x8>
    4aa8:	01370733          	add	a4,a4,s3
    4aac:	03010693          	addi	a3,sp,48
    4ab0:	0004ed17          	auipc	s10,0x4e
    4ab4:	018d0d13          	addi	s10,s10,24 # 52ac8 <.LANCHOR1>
    4ab8:	00d709b3          	add	s3,a4,a3
    4abc:	fffffb37          	lui	s6,0xfffff
    4ac0:	008d0733          	add	a4,s10,s0
    4ac4:	90078693          	addi	a3,a5,-1792
    4ac8:	02e12023          	sw	a4,32(sp)
    4acc:	700b0713          	addi	a4,s6,1792 # fffff700 <_ebss+0xfffa4120>
    4ad0:	00e686b3          	add	a3,a3,a4
    4ad4:	03010713          	addi	a4,sp,48
    4ad8:	00e68733          	add	a4,a3,a4
    4adc:	02e12223          	sw	a4,36(sp)
    4ae0:	90078793          	addi	a5,a5,-1792
    4ae4:	798b0713          	addi	a4,s6,1944
    4ae8:	00e787b3          	add	a5,a5,a4
    4aec:	03010713          	addi	a4,sp,48
    4af0:	00e787b3          	add	a5,a5,a4
    4af4:	7809ac23          	sw	zero,1944(s3) # fffff798 <_ebss+0xfffa41b8>
    4af8:	00000a13          	li	s4,0
    4afc:	fff00b93          	li	s7,-1
    4b00:	fff00c93          	li	s9,-1
    4b04:	00012a23          	sw	zero,20(sp)
    4b08:	00000a93          	li	s5,0
    4b0c:	00000493          	li	s1,0
    4b10:	00012c23          	sw	zero,24(sp)
    4b14:	00000d93          	li	s11,0
    4b18:	02f12423          	sw	a5,40(sp)

00004b1c <.L1187>:
    4b1c:	0008c683          	lbu	a3,0(a7)
    4b20:	00900613          	li	a2,9
    4b24:	00188d13          	addi	s10,a7,1
    4b28:	fd068713          	addi	a4,a3,-48 # 3fd0 <.L1012+0x8>
    4b2c:	1ae67063          	bgeu	a2,a4,4ccc <.L1189>
    4b30:	02e00713          	li	a4,46
    4b34:	06e69663          	bne	a3,a4,4ba0 <.L1190>
    4b38:	fff00713          	li	a4,-1
    4b3c:	00ec9463          	bne	s9,a4,4b44 <.L1200>
    4b40:	059b8263          	beq	s7,s9,4b84 <.L1192>

00004b44 <.L1200>:
    4b44:	004c7713          	andi	a4,s8,4
    4b48:	e40700e3          	beqz	a4,4988 <.L1176>

00004b4c <.L1193>:
    4b4c:	01412783          	lw	a5,20(sp)
    4b50:	28078063          	beqz	a5,4dd0 <.L1216>
    4b54:	00100713          	li	a4,1
    4b58:	27575c63          	bge	a4,s5,4dd0 <.L1216>
    4b5c:	400c7713          	andi	a4,s8,1024
    4b60:	e20704e3          	beqz	a4,4988 <.L1176>

00004b64 <.L1217>:
    4b64:	100c7713          	andi	a4,s8,256
    4b68:	01976733          	or	a4,a4,s9

00004b6c <.L1317>:
    4b6c:	28071263          	bnez	a4,4df0 <.L1219>
    4b70:	e19ff06f          	j	4988 <.L1176>

00004b74 <.L1237>:
    4b74:	01000413          	li	s0,16
    4b78:	f19ff06f          	j	4a90 <.L1185>

00004b7c <.L1238>:
    4b7c:	00800413          	li	s0,8
    4b80:	f11ff06f          	j	4a90 <.L1185>

00004b84 <.L1192>:
    4b84:	040c7713          	andi	a4,s8,64
    4b88:	00071663          	bnez	a4,4b94 <.L1239>
    4b8c:	004c7713          	andi	a4,s8,4
    4b90:	fa071ee3          	bnez	a4,4b4c <.L1193>

00004b94 <.L1239>:
    4b94:	00000c93          	li	s9,0

00004b98 <.L1194>:
    4b98:	000d0893          	mv	a7,s10
    4b9c:	f81ff06f          	j	4b1c <.L1187>

00004ba0 <.L1190>:
    4ba0:	fa0686e3          	beqz	a3,4b4c <.L1193>
    4ba4:	002c7713          	andi	a4,s8,2
    4ba8:	10070a63          	beqz	a4,4cbc <.L1195>
    4bac:	fff00713          	li	a4,-1
    4bb0:	04eb9263          	bne	s7,a4,4bf4 <.L1196>
    4bb4:	0df6f713          	andi	a4,a3,223
    4bb8:	04500613          	li	a2,69
    4bbc:	0ac71c63          	bne	a4,a2,4c74 <.L1197>
    4bc0:	0018c703          	lbu	a4,1(a7)
    4bc4:	02d00693          	li	a3,45
    4bc8:	00d71c63          	bne	a4,a3,4be0 <.L1198>
    4bcc:	00100793          	li	a5,1
    4bd0:	00288d13          	addi	s10,a7,2
    4bd4:	00000b93          	li	s7,0
    4bd8:	00f12c23          	sw	a5,24(sp)
    4bdc:	fbdff06f          	j	4b98 <.L1194>

00004be0 <.L1198>:
    4be0:	02b00693          	li	a3,43
    4be4:	00000b93          	li	s7,0
    4be8:	fad718e3          	bne	a4,a3,4b98 <.L1194>
    4bec:	00288d13          	addi	s10,a7,2
    4bf0:	fa9ff06f          	j	4b98 <.L1194>

00004bf4 <.L1196>:
    4bf4:	f9f68713          	addi	a4,a3,-97
    4bf8:	01900613          	li	a2,25
    4bfc:	0ee66863          	bltu	a2,a4,4cec <.L1199>
    4c00:	fa968713          	addi	a4,a3,-87

00004c04 <.L1316>:
    4c04:	f48750e3          	bge	a4,s0,4b44 <.L1200>

00004c08 <.L1201>:
    4c08:	03b40833          	mul	a6,s0,s11
    4c0c:	00e80db3          	add	s11,a6,a4
    4c10:	00989737          	lui	a4,0x989
    4c14:	68070713          	addi	a4,a4,1664 # 989680 <_ebss+0x92e0a0>
    4c18:	1bb75863          	bge	a4,s11,4dc8 <.L1214>
    4c1c:	00c12503          	lw	a0,12(sp)
    4c20:	030165b7          	lui	a1,0x3016
    4c24:	00052617          	auipc	a2,0x52
    4c28:	13460613          	addi	a2,a2,308 # 56d58 <.LC21>
    4c2c:	19558593          	addi	a1,a1,405 # 3016195 <_ebss+0x2fbabb5>
    4c30:	7504b0ef          	jal	ra,50380 <duk_err_handle_error.constprop.0>

00004c34 <.L1173>:
    4c34:	18010113          	addi	sp,sp,384
    4c38:	7ec12083          	lw	ra,2028(sp)
    4c3c:	7e812403          	lw	s0,2024(sp)
    4c40:	7e412483          	lw	s1,2020(sp)
    4c44:	7e012903          	lw	s2,2016(sp)
    4c48:	7dc12983          	lw	s3,2012(sp)
    4c4c:	7d812a03          	lw	s4,2008(sp)
    4c50:	7d412a83          	lw	s5,2004(sp)
    4c54:	7d012b03          	lw	s6,2000(sp)
    4c58:	7cc12b83          	lw	s7,1996(sp)
    4c5c:	7c812c03          	lw	s8,1992(sp)
    4c60:	7c412c83          	lw	s9,1988(sp)
    4c64:	7c012d03          	lw	s10,1984(sp)
    4c68:	7bc12d83          	lw	s11,1980(sp)
    4c6c:	7f010113          	addi	sp,sp,2032
    4c70:	00008067          	ret

00004c74 <.L1197>:
    4c74:	f9f68713          	addi	a4,a3,-97
    4c78:	01900613          	li	a2,25
    4c7c:	06e66063          	bltu	a2,a4,4cdc <.L1202>
    4c80:	fa968713          	addi	a4,a3,-87

00004c84 <.L1314>:
    4c84:	ec8750e3          	bge	a4,s0,4b44 <.L1200>

00004c88 <.L1203>:
    4c88:	02012783          	lw	a5,32(sp)
    4c8c:	14a7c683          	lbu	a3,330(a5)
    4c90:	12da5863          	bge	s4,a3,4dc0 <.L1206>
    4c94:	7989a683          	lw	a3,1944(s3)
    4c98:	0c069663          	bnez	a3,4d64 <.L1207>
    4c9c:	06071a63          	bnez	a4,4d10 <.L1208>
    4ca0:	fff00713          	li	a4,-1
    4ca4:	10ec9863          	bne	s9,a4,4db4 <.L1209>
    4ca8:	01412783          	lw	a5,20(sp)
    4cac:	00178793          	addi	a5,a5,1
    4cb0:	00f12a23          	sw	a5,20(sp)

00004cb4 <.L1210>:
    4cb4:	001a8a93          	addi	s5,s5,1
    4cb8:	ee1ff06f          	j	4b98 <.L1194>

00004cbc <.L1195>:
    4cbc:	f9f68713          	addi	a4,a3,-97
    4cc0:	01900593          	li	a1,25
    4cc4:	02e5ec63          	bltu	a1,a4,4cfc <.L1204>
    4cc8:	fa968713          	addi	a4,a3,-87

00004ccc <.L1189>:
    4ccc:	e6875ce3          	bge	a4,s0,4b44 <.L1200>
    4cd0:	fff00693          	li	a3,-1
    4cd4:	f2db9ae3          	bne	s7,a3,4c08 <.L1201>
    4cd8:	fb1ff06f          	j	4c88 <.L1203>

00004cdc <.L1202>:
    4cdc:	fbf68713          	addi	a4,a3,-65
    4ce0:	e6e662e3          	bltu	a2,a4,4b44 <.L1200>
    4ce4:	fc968713          	addi	a4,a3,-55
    4ce8:	f9dff06f          	j	4c84 <.L1314>

00004cec <.L1199>:
    4cec:	fbf68713          	addi	a4,a3,-65
    4cf0:	e4e66ae3          	bltu	a2,a4,4b44 <.L1200>
    4cf4:	fc968713          	addi	a4,a3,-55
    4cf8:	f0dff06f          	j	4c04 <.L1316>

00004cfc <.L1204>:
    4cfc:	fbf68613          	addi	a2,a3,-65
    4d00:	0ff00713          	li	a4,255
    4d04:	fcc5e4e3          	bltu	a1,a2,4ccc <.L1189>
    4d08:	fc968713          	addi	a4,a3,-55
    4d0c:	fc1ff06f          	j	4ccc <.L1189>

00004d10 <.L1208>:
    4d10:	000017b7          	lui	a5,0x1
    4d14:	798b0593          	addi	a1,s6,1944
    4d18:	90078793          	addi	a5,a5,-1792 # 900 <duk_bd_decode+0x8>
    4d1c:	02e12623          	sw	a4,44(sp)
    4d20:	00b787b3          	add	a5,a5,a1
    4d24:	03010713          	addi	a4,sp,48
    4d28:	00e785b3          	add	a1,a5,a4
    4d2c:	00040613          	mv	a2,s0
    4d30:	3c010513          	addi	a0,sp,960
    4d34:	ffdfd0ef          	jal	ra,2d30 <duk__bi_mul_small>
    4d38:	02c12703          	lw	a4,44(sp)

00004d3c <.L1211>:
    4d3c:	000017b7          	lui	a5,0x1
    4d40:	fffff6b7          	lui	a3,0xfffff
    4d44:	90078793          	addi	a5,a5,-1792 # 900 <duk_bd_decode+0x8>
    4d48:	00d787b3          	add	a5,a5,a3
    4d4c:	03010693          	addi	a3,sp,48
    4d50:	00d786b3          	add	a3,a5,a3
    4d54:	00100613          	li	a2,1
    4d58:	70c6a023          	sw	a2,1792(a3) # fffff700 <_ebss+0xfffa4120>
    4d5c:	70e6a223          	sw	a4,1796(a3)
    4d60:	0380006f          	j	4d98 <.L1212>

00004d64 <.L1207>:
    4d64:	000017b7          	lui	a5,0x1
    4d68:	798b0593          	addi	a1,s6,1944
    4d6c:	90078793          	addi	a5,a5,-1792 # 900 <duk_bd_decode+0x8>
    4d70:	02e12623          	sw	a4,44(sp)
    4d74:	00b787b3          	add	a5,a5,a1
    4d78:	03010713          	addi	a4,sp,48
    4d7c:	00e785b3          	add	a1,a5,a4
    4d80:	00040613          	mv	a2,s0
    4d84:	3c010513          	addi	a0,sp,960
    4d88:	fa9fd0ef          	jal	ra,2d30 <duk__bi_mul_small>
    4d8c:	02c12703          	lw	a4,44(sp)
    4d90:	fa0716e3          	bnez	a4,4d3c <.L1211>
    4d94:	7009a023          	sw	zero,1792(s3)

00004d98 <.L1212>:
    4d98:	02412603          	lw	a2,36(sp)
    4d9c:	02812503          	lw	a0,40(sp)
    4da0:	3c010593          	addi	a1,sp,960
    4da4:	001a0a13          	addi	s4,s4,1
    4da8:	ab9fb0ef          	jal	ra,860 <duk__bi_add>

00004dac <.L1213>:
    4dac:	fff00713          	li	a4,-1
    4db0:	f0ec82e3          	beq	s9,a4,4cb4 <.L1210>

00004db4 <.L1209>:
    4db4:	001c8c93          	addi	s9,s9,1
    4db8:	fff48493          	addi	s1,s1,-1
    4dbc:	dddff06f          	j	4b98 <.L1194>

00004dc0 <.L1206>:
    4dc0:	00148493          	addi	s1,s1,1
    4dc4:	fe9ff06f          	j	4dac <.L1213>

00004dc8 <.L1214>:
    4dc8:	001b8b93          	addi	s7,s7,1
    4dcc:	dcdff06f          	j	4b98 <.L1194>

00004dd0 <.L1216>:
    4dd0:	d80a9ae3          	bnez	s5,4b64 <.L1217>
    4dd4:	ba0c8ae3          	beqz	s9,4988 <.L1176>
    4dd8:	080c7713          	andi	a4,s8,128
    4ddc:	d99048e3          	bgtz	s9,4b6c <.L1317>
    4de0:	200c7713          	andi	a4,s8,512
    4de4:	ba0702e3          	beqz	a4,4988 <.L1176>
    4de8:	01492703          	lw	a4,20(s2)
    4dec:	b8071ee3          	bnez	a4,4988 <.L1176>

00004df0 <.L1219>:
    4df0:	004c7793          	andi	a5,s8,4
    4df4:	0177e7b3          	or	a5,a5,s7
    4df8:	b80788e3          	beqz	a5,4988 <.L1176>
    4dfc:	01812783          	lw	a5,24(sp)
    4e00:	00078463          	beqz	a5,4e08 <.L1220>
    4e04:	41b00db3          	neg	s11,s11

00004e08 <.L1220>:
    4e08:	00001737          	lui	a4,0x1
    4e0c:	fffff7b7          	lui	a5,0xfffff
    4e10:	90070713          	addi	a4,a4,-1792 # 900 <duk_bd_decode+0x8>
    4e14:	00f70733          	add	a4,a4,a5
    4e18:	03010793          	addi	a5,sp,48
    4e1c:	00f707b3          	add	a5,a4,a5
    4e20:	7987a683          	lw	a3,1944(a5) # fffff798 <_ebss+0xfffa41b8>
    4e24:	009d8833          	add	a6,s11,s1
    4e28:	00100713          	li	a4,1
    4e2c:	00080b13          	mv	s6,a6
    4e30:	1ed74063          	blt	a4,a3,5010 <.L1221>
    4e34:	1c081e63          	bnez	a6,5010 <.L1221>
    4e38:	00e68863          	beq	a3,a4,4e48 <.L1222>

00004e3c <.L1225>:
    4e3c:	00000913          	li	s2,0
    4e40:	00000413          	li	s0,0
    4e44:	ba9ff06f          	j	49ec <.L1181>

00004e48 <.L1222>:
    4e48:	79c7a503          	lw	a0,1948(a5)
    4e4c:	2212f0ef          	jal	ra,3486c <__floatunsidf>
    4e50:	00058413          	mv	s0,a1
    4e54:	00050913          	mv	s2,a0
    4e58:	b95ff06f          	j	49ec <.L1181>

00004e5c <.L1224>:
    4e5c:	000c8613          	mv	a2,s9
    4e60:	00040593          	mv	a1,s0
    4e64:	000a0513          	mv	a0,s4
    4e68:	efdfd0ef          	jal	ra,2d64 <duk__bi_mul_small_copy>
    4e6c:	fffb0b13          	addi	s6,s6,-1

00004e70 <.L1223>:
    4e70:	416907b3          	sub	a5,s2,s6
    4e74:	ff87c4e3          	blt	a5,s8,4e5c <.L1224>
    4e78:	000017b7          	lui	a5,0x1
    4e7c:	fffff937          	lui	s2,0xfffff
    4e80:	90078793          	addi	a5,a5,-1792 # 900 <duk_bd_decode+0x8>
    4e84:	012787b3          	add	a5,a5,s2
    4e88:	03010713          	addi	a4,sp,48
    4e8c:	00e787b3          	add	a5,a5,a4
    4e90:	7987a783          	lw	a5,1944(a5)
    4e94:	fa0784e3          	beqz	a5,4e3c <.L1225>
    4e98:	002a9a93          	slli	s5,s5,0x2
    4e9c:	015989b3          	add	s3,s3,s5
    4ea0:	17099783          	lh	a5,368(s3)
    4ea4:	b367cce3          	blt	a5,s6,49dc <.L1182>
    4ea8:	17299783          	lh	a5,370(s3)
    4eac:	f8fb48e3          	blt	s6,a5,4e3c <.L1225>
    4eb0:	00100793          	li	a5,1
    4eb4:	4ef12823          	sw	a5,1264(sp)
    4eb8:	50812223          	sw	s0,1284(sp)
    4ebc:	4ef12a23          	sw	a5,1268(sp)
    4ec0:	00001437          	lui	s0,0x1
    4ec4:	03600793          	li	a5,54
    4ec8:	79890513          	addi	a0,s2,1944 # fffff798 <_ebss+0xfffa41b8>
    4ecc:	00200713          	li	a4,2
    4ed0:	4ef12c23          	sw	a5,1272(sp)
    4ed4:	90040793          	addi	a5,s0,-1792 # 900 <duk_bd_decode+0x8>
    4ed8:	00a787b3          	add	a5,a5,a0
    4edc:	50e12423          	sw	a4,1288(sp)
    4ee0:	03010713          	addi	a4,sp,48
    4ee4:	00e78533          	add	a0,a5,a4
    4ee8:	00a12a23          	sw	a0,20(sp)
    4eec:	51612023          	sw	s6,1280(sp)
    4ef0:	4e012e23          	sw	zero,1276(sp)
    4ef4:	eb5fd0ef          	jal	ra,2da8 <duk__dragon4_prepare>
    4ef8:	01412503          	lw	a0,20(sp)
    4efc:	8e8fe0ef          	jal	ra,2fe4 <duk__dragon4_scale>
    4f00:	01412503          	lw	a0,20(sp)
    4f04:	a2cfe0ef          	jal	ra,3130 <duk__dragon4_generate>
    4f08:	90040793          	addi	a5,s0,-1792
    4f0c:	50c12403          	lw	s0,1292(sp)
    4f10:	012787b3          	add	a5,a5,s2
    4f14:	03010713          	addi	a4,sp,48
    4f18:	00e78933          	add	s2,a5,a4
    4f1c:	70092023          	sw	zero,1792(s2)
    4f20:	fff40793          	addi	a5,s0,-1
    4f24:	3ff00713          	li	a4,1023
    4f28:	12f74263          	blt	a4,a5,504c <.L1245>
    4f2c:	c0200713          	li	a4,-1022
    4f30:	3fe40413          	addi	s0,s0,1022
    4f34:	00100913          	li	s2,1
    4f38:	00e7d663          	bge	a5,a4,4f44 <.L1226>
    4f3c:	00040913          	mv	s2,s0
    4f40:	00000413          	li	s0,0

00004f44 <.L1226>:
    4f44:	fffff537          	lui	a0,0xfffff
    4f48:	000017b7          	lui	a5,0x1
    4f4c:	79850513          	addi	a0,a0,1944 # fffff798 <_ebss+0xfffa41b8>
    4f50:	90078793          	addi	a5,a5,-1792 # 900 <duk_bd_decode+0x8>
    4f54:	00a787b3          	add	a5,a5,a0
    4f58:	03010713          	addi	a4,sp,48
    4f5c:	03490593          	addi	a1,s2,52
    4f60:	00e78533          	add	a0,a5,a4
    4f64:	9b0fc0ef          	jal	ra,1114 <duk__dragon4_fixed_format_round>
    4f68:	02050663          	beqz	a0,4f94 <.L1227>
    4f6c:	50c12403          	lw	s0,1292(sp)
    4f70:	3ff00713          	li	a4,1023
    4f74:	fff40793          	addi	a5,s0,-1
    4f78:	0ef74063          	blt	a4,a5,5058 <.L1247>
    4f7c:	c0200713          	li	a4,-1022
    4f80:	3fe40413          	addi	s0,s0,1022
    4f84:	00100913          	li	s2,1
    4f88:	00e7d663          	bge	a5,a4,4f94 <.L1227>
    4f8c:	00040913          	mv	s2,s0
    4f90:	00000413          	li	s0,0

00004f94 <.L1227>:
    4f94:	00001637          	lui	a2,0x1
    4f98:	fffff6b7          	lui	a3,0xfffff
    4f9c:	8fc60793          	addi	a5,a2,-1796 # 8fc <duk_bd_decode+0x4>
    4fa0:	03010713          	addi	a4,sp,48
    4fa4:	79868693          	addi	a3,a3,1944 # fffff798 <_ebss+0xfffa41b8>
    4fa8:	90060613          	addi	a2,a2,-1792
    4fac:	00e787b3          	add	a5,a5,a4
    4fb0:	00d60633          	add	a2,a2,a3
    4fb4:	03010693          	addi	a3,sp,48
    4fb8:	0007a803          	lw	a6,0(a5)
    4fbc:	03390913          	addi	s2,s2,51
    4fc0:	00000593          	li	a1,0
    4fc4:	00000713          	li	a4,0
    4fc8:	00000793          	li	a5,0
    4fcc:	00d606b3          	add	a3,a2,a3
    4fd0:	01f00893          	li	a7,31
    4fd4:	03400513          	li	a0,52

00004fd8 <.L1234>:
    4fd8:	00000613          	li	a2,0
    4fdc:	01095863          	bge	s2,a6,4fec <.L1230>
    4fe0:	00094663          	bltz	s2,4fec <.L1230>
    4fe4:	01268633          	add	a2,a3,s2
    4fe8:	45464603          	lbu	a2,1108(a2)

00004fec <.L1230>:
    4fec:	00f61633          	sll	a2,a2,a5
    4ff0:	00c70733          	add	a4,a4,a2
    4ff4:	fff90913          	addi	s2,s2,-1
    4ff8:	07179663          	bne	a5,a7,5064 <.L1231>
    4ffc:	00e12e23          	sw	a4,28(sp)
    5000:	02000793          	li	a5,32
    5004:	00000713          	li	a4,0
    5008:	00100593          	li	a1,1
    500c:	fcdff06f          	j	4fd8 <.L1234>

00005010 <.L1221>:
    5010:	ffe40a93          	addi	s5,s0,-2
    5014:	0004e997          	auipc	s3,0x4e
    5018:	ab498993          	addi	s3,s3,-1356 # 52ac8 <.LANCHOR1>
    501c:	015987b3          	add	a5,s3,s5
    5020:	14c7cc03          	lbu	s8,332(a5)
    5024:	01480933          	add	s2,a6,s4
    5028:	000017b7          	lui	a5,0x1
    502c:	fffffa37          	lui	s4,0xfffff
    5030:	798a0a13          	addi	s4,s4,1944 # fffff798 <_ebss+0xfffa41b8>
    5034:	90078793          	addi	a5,a5,-1792 # 900 <duk_bd_decode+0x8>
    5038:	014787b3          	add	a5,a5,s4
    503c:	03010713          	addi	a4,sp,48
    5040:	00e78a33          	add	s4,a5,a4
    5044:	3c010c93          	addi	s9,sp,960
    5048:	e29ff06f          	j	4e70 <.L1223>

0000504c <.L1245>:
    504c:	f0100913          	li	s2,-255
    5050:	7ff00413          	li	s0,2047
    5054:	ef1ff06f          	j	4f44 <.L1226>

00005058 <.L1247>:
    5058:	f0100913          	li	s2,-255
    505c:	7ff00413          	li	s0,2047
    5060:	f35ff06f          	j	4f94 <.L1227>

00005064 <.L1231>:
    5064:	00178793          	addi	a5,a5,1
    5068:	f6a798e3          	bne	a5,a0,4fd8 <.L1234>
    506c:	02058263          	beqz	a1,5090 <.L1235>
    5070:	000016b7          	lui	a3,0x1
    5074:	fffff7b7          	lui	a5,0xfffff
    5078:	90068693          	addi	a3,a3,-1792 # 900 <duk_bd_decode+0x8>
    507c:	00f686b3          	add	a3,a3,a5
    5080:	03010793          	addi	a5,sp,48
    5084:	00f687b3          	add	a5,a3,a5
    5088:	01c12683          	lw	a3,28(sp)
    508c:	70d7a023          	sw	a3,1792(a5) # fffff700 <_ebss+0xfffa4120>

00005090 <.L1235>:
    5090:	000016b7          	lui	a3,0x1
    5094:	fffff7b7          	lui	a5,0xfffff
    5098:	90068693          	addi	a3,a3,-1792 # 900 <duk_bd_decode+0x8>
    509c:	00f686b3          	add	a3,a3,a5
    50a0:	01441413          	slli	s0,s0,0x14
    50a4:	03010793          	addi	a5,sp,48
    50a8:	00f687b3          	add	a5,a3,a5
    50ac:	00e40433          	add	s0,s0,a4
    50b0:	7007a903          	lw	s2,1792(a5) # fffff700 <_ebss+0xfffa4120>
    50b4:	7087a223          	sw	s0,1796(a5)
    50b8:	935ff06f          	j	49ec <.L1181>

000050bc <duk_js_tonumber>:
    50bc:	0065d783          	lhu	a5,6(a1)
    50c0:	ff010113          	addi	sp,sp,-16
    50c4:	00112623          	sw	ra,12(sp)
    50c8:	00d78793          	addi	a5,a5,13
    50cc:	01079793          	slli	a5,a5,0x10
    50d0:	00812423          	sw	s0,8(sp)
    50d4:	00912223          	sw	s1,4(sp)
    50d8:	01212023          	sw	s2,0(sp)
    50dc:	0107d793          	srli	a5,a5,0x10
    50e0:	00700713          	li	a4,7
    50e4:	12f76e63          	bltu	a4,a5,5220 <.L1319>
    50e8:	85818713          	addi	a4,gp,-1960 # 50e98 <.L1321>
    50ec:	00279793          	slli	a5,a5,0x2
    50f0:	00e787b3          	add	a5,a5,a4
    50f4:	0007a783          	lw	a5,0(a5)
    50f8:	00050913          	mv	s2,a0
    50fc:	00e787b3          	add	a5,a5,a4
    5100:	00078067          	jr	a5

00005104 <.L1323>:
    5104:	00053797          	auipc	a5,0x53
    5108:	b8c78793          	addi	a5,a5,-1140 # 57c90 <.LC1>

0000510c <.L1333>:
    510c:	0007a483          	lw	s1,0(a5)
    5110:	0047a403          	lw	s0,4(a5)

00005114 <.L1318>:
    5114:	00c12083          	lw	ra,12(sp)
    5118:	00040593          	mv	a1,s0
    511c:	00812403          	lw	s0,8(sp)
    5120:	00012903          	lw	s2,0(sp)
    5124:	00048513          	mv	a0,s1
    5128:	00412483          	lw	s1,4(sp)
    512c:	01010113          	addi	sp,sp,16
    5130:	00008067          	ret

00005134 <.L1327>:
    5134:	00053797          	auipc	a5,0x53
    5138:	b5c78793          	addi	a5,a5,-1188 # 57c90 <.LC1>
    513c:	fd1ff06f          	j	510c <.L1333>

00005140 <.L1325>:
    5140:	0045a703          	lw	a4,4(a1)
    5144:	fff507b7          	lui	a5,0xfff50
    5148:	00178793          	addi	a5,a5,1 # fff50001 <_ebss+0xffef4a21>
    514c:	00000493          	li	s1,0
    5150:	00000413          	li	s0,0
    5154:	fcf710e3          	bne	a4,a5,5114 <.L1318>

00005158 <.L1334>:
    5158:	00053797          	auipc	a5,0x53
    515c:	b4078793          	addi	a5,a5,-1216 # 57c98 <.LC0>
    5160:	fadff06f          	j	510c <.L1333>

00005164 <.L1322>:
    5164:	0005a583          	lw	a1,0(a1)
    5168:	0005a783          	lw	a5,0(a1)
    516c:	2007f793          	andi	a5,a5,512
    5170:	02078263          	beqz	a5,5194 <.L1328>
    5174:	060145b7          	lui	a1,0x6014
    5178:	00052617          	auipc	a2,0x52
    517c:	bf460613          	addi	a2,a2,-1036 # 56d6c <.LC23>
    5180:	31558593          	addi	a1,a1,789 # 6014315 <_ebss+0x5fb8d35>
    5184:	1fc4b0ef          	jal	ra,50380 <duk_err_handle_error.constprop.0>

00005188 <.L1329>:
    5188:	00000493          	li	s1,0
    518c:	00000413          	li	s0,0
    5190:	f85ff06f          	j	5114 <.L1318>

00005194 <.L1328>:
    5194:	0cc0b0ef          	jal	ra,10260 <duk_push_hstring>
    5198:	00007637          	lui	a2,0x7
    519c:	ffb60613          	addi	a2,a2,-5 # 6ffb <.L2131+0x3>
    51a0:	00a00593          	li	a1,10
    51a4:	00090513          	mv	a0,s2
    51a8:	f60ff0ef          	jal	ra,4908 <duk__numconv_parse_raw>
    51ac:	04492783          	lw	a5,68(s2)
    51b0:	ff878713          	addi	a4,a5,-8
    51b4:	04e92223          	sw	a4,68(s2)
    51b8:	ff300713          	li	a4,-13
    51bc:	ffc7a403          	lw	s0,-4(a5)
    51c0:	ff87a483          	lw	s1,-8(a5)
    51c4:	fee79f23          	sh	a4,-2(a5)
    51c8:	f4dff06f          	j	5114 <.L1318>

000051cc <.L1320>:
    51cc:	0380b0ef          	jal	ra,10204 <duk_push_tval>
    51d0:	00200613          	li	a2,2
    51d4:	00090513          	mv	a0,s2
    51d8:	fff00593          	li	a1,-1
    51dc:	584020ef          	jal	ra,7760 <duk_to_primitive>
    51e0:	fff00593          	li	a1,-1
    51e4:	00090513          	mv	a0,s2
    51e8:	a8dfb0ef          	jal	ra,c74 <duk_get_tval>
    51ec:	00050593          	mv	a1,a0
    51f0:	00090513          	mv	a0,s2
    51f4:	ec9ff0ef          	jal	ra,50bc <duk_js_tonumber>
    51f8:	00050493          	mv	s1,a0
    51fc:	00090513          	mv	a0,s2
    5200:	00058413          	mv	s0,a1
    5204:	129040ef          	jal	ra,9b2c <duk_pop_unsafe>
    5208:	f0dff06f          	j	5114 <.L1318>

0000520c <.L1324>:
    520c:	0005a783          	lw	a5,0(a1)
    5210:	00000493          	li	s1,0
    5214:	00000413          	li	s0,0
    5218:	f40790e3          	bnez	a5,5158 <.L1334>
    521c:	ef9ff06f          	j	5114 <.L1318>

00005220 <.L1319>:
    5220:	0005a483          	lw	s1,0(a1)
    5224:	0045a403          	lw	s0,4(a1)
    5228:	eedff06f          	j	5114 <.L1318>

0000522c <duk_js_tointeger>:
    522c:	ff010113          	addi	sp,sp,-16
    5230:	00112623          	sw	ra,12(sp)
    5234:	e89ff0ef          	jal	ra,50bc <duk_js_tonumber>
    5238:	00c12083          	lw	ra,12(sp)
    523c:	01010113          	addi	sp,sp,16
    5240:	8a9fc06f          	j	1ae8 <duk_js_tointeger_number>

00005244 <duk_js_touint32>:
    5244:	ff010113          	addi	sp,sp,-16
    5248:	00112623          	sw	ra,12(sp)
    524c:	e71ff0ef          	jal	ra,50bc <duk_js_tonumber>
    5250:	00000613          	li	a2,0
    5254:	83dfd0ef          	jal	ra,2a90 <duk__toint32_touint32_helper>
    5258:	4f42f0ef          	jal	ra,3474c <__fixunsdfsi>
    525c:	00c12083          	lw	ra,12(sp)
    5260:	01010113          	addi	sp,sp,16
    5264:	00008067          	ret

00005268 <duk_to_number>:
    5268:	fe010113          	addi	sp,sp,-32
    526c:	00112e23          	sw	ra,28(sp)
    5270:	00812c23          	sw	s0,24(sp)
    5274:	00912a23          	sw	s1,20(sp)
    5278:	00050413          	mv	s0,a0
