
coremark.gdb:     file format elf32-littleriscv


Disassembly of section .text:

00000000 <_start-0x4>:
       0:	0000                	.2byte	0x0
	...

00000004 <_start>:
       4:	02c000ef          	jal	ra,30 <.Lload_gp>
       8:	00050793          	mv	a5,a0
       c:	0000b517          	auipc	a0,0xb
      10:	62050513          	addi	a0,a0,1568 # b62c <main>
      14:	00012583          	lw	a1,0(sp)
      18:	00410613          	addi	a2,sp,4
      1c:	ff017113          	andi	sp,sp,-16
      20:	00000693          	li	a3,0
      24:	00000713          	li	a4,0
      28:	00010813          	mv	a6,sp
      2c:	73c0406f          	j	4768 <__uClibc_main>

00000030 <.Lload_gp>:
      30:	0000c197          	auipc	gp,0xc
      34:	6f018193          	addi	gp,gp,1776 # c720 <__global_pointer$>
      38:	00008067          	ret

0000003c <deregister_tm_clones>:
      3c:	0000e517          	auipc	a0,0xe
      40:	d4850513          	addi	a0,a0,-696 # dd84 <__TMC_END__>
      44:	0000e797          	auipc	a5,0xe
      48:	d4078793          	addi	a5,a5,-704 # dd84 <__TMC_END__>
      4c:	00a78a63          	beq	a5,a0,60 <.L1>
      50:	0000c797          	auipc	a5,0xc
      54:	e687a783          	lw	a5,-408(a5) # beb8 <.LLST21+0x6>
      58:	00078463          	beqz	a5,60 <.L1>
      5c:	00078067          	jr	a5

00000060 <.L1>:
      60:	00008067          	ret

00000064 <register_tm_clones>:
      64:	0000e517          	auipc	a0,0xe
      68:	d2050513          	addi	a0,a0,-736 # dd84 <__TMC_END__>
      6c:	0000e597          	auipc	a1,0xe
      70:	d1858593          	addi	a1,a1,-744 # dd84 <__TMC_END__>
      74:	40a585b3          	sub	a1,a1,a0
      78:	4025d593          	srai	a1,a1,0x2
      7c:	00200793          	li	a5,2
      80:	02f5c5b3          	div	a1,a1,a5
      84:	00058a63          	beqz	a1,98 <.L6>
      88:	0000c797          	auipc	a5,0xc
      8c:	e247a783          	lw	a5,-476(a5) # beac <_GLOBAL_OFFSET_TABLE_+0x24>
      90:	00078463          	beqz	a5,98 <.L6>
      94:	00078067          	jr	a5

00000098 <.L6>:
      98:	00008067          	ret

0000009c <__do_global_dtors_aux>:
      9c:	ff010113          	addi	sp,sp,-16
      a0:	00812423          	sw	s0,8(sp)
      a4:	0000e417          	auipc	s0,0xe
      a8:	ce440413          	addi	s0,s0,-796 # dd88 <completed.1>
      ac:	00044783          	lbu	a5,0(s0)
      b0:	00112623          	sw	ra,12(sp)
      b4:	02079463          	bnez	a5,dc <.L14>
      b8:	f85ff0ef          	jal	ra,3c <deregister_tm_clones>
      bc:	0000c797          	auipc	a5,0xc
      c0:	dec7a783          	lw	a5,-532(a5) # bea8 <_GLOBAL_OFFSET_TABLE_+0x20>
      c4:	00078863          	beqz	a5,d4 <.L16>
      c8:	0000e517          	auipc	a0,0xe
      cc:	cbc50513          	addi	a0,a0,-836 # dd84 <__TMC_END__>
      d0:	000780e7          	jalr	a5

000000d4 <.L16>:
      d4:	00100793          	li	a5,1
      d8:	00f40023          	sb	a5,0(s0)

000000dc <.L14>:
      dc:	00c12083          	lw	ra,12(sp)
      e0:	00812403          	lw	s0,8(sp)
      e4:	01010113          	addi	sp,sp,16
      e8:	00008067          	ret

000000ec <frame_dummy>:
      ec:	0000c797          	auipc	a5,0xc
      f0:	dec7a783          	lw	a5,-532(a5) # bed8 <.LLST21+0x26>
      f4:	02078463          	beqz	a5,11c <.L27>
      f8:	ff010113          	addi	sp,sp,-16
      fc:	00112623          	sw	ra,12(sp)
     100:	0000e597          	auipc	a1,0xe
     104:	c8c58593          	addi	a1,a1,-884 # dd8c <object.0>
     108:	0000e517          	auipc	a0,0xe
     10c:	c7c50513          	addi	a0,a0,-900 # dd84 <__TMC_END__>
     110:	000780e7          	jalr	a5
     114:	00c12083          	lw	ra,12(sp)
     118:	01010113          	addi	sp,sp,16

0000011c <.L27>:
     11c:	f49ff06f          	j	64 <register_tm_clones>

00000120 <portable_malloc>:
     120:	4610306f          	j	3d80 <malloc>

00000124 <portable_free>:
     124:	6750306f          	j	3f98 <free>

00000128 <start_time>:
     128:	0000e597          	auipc	a1,0xe
     12c:	c7c58593          	addi	a1,a1,-900 # dda4 <start_time_val>
     130:	00000513          	li	a0,0
     134:	0510406f          	j	4984 <clock_gettime>

00000138 <stop_time>:
     138:	0000e597          	auipc	a1,0xe
     13c:	c7458593          	addi	a1,a1,-908 # ddac <stop_time_val>
     140:	00000513          	li	a0,0
     144:	0410406f          	j	4984 <clock_gettime>

00000148 <get_time>:
     148:	0000e717          	auipc	a4,0xe
     14c:	c5c70713          	addi	a4,a4,-932 # dda4 <start_time_val>
     150:	00072783          	lw	a5,0(a4)
     154:	00872503          	lw	a0,8(a4)
     158:	40f50533          	sub	a0,a0,a5
     15c:	3e800793          	li	a5,1000
     160:	02f50533          	mul	a0,a0,a5
     164:	00c72783          	lw	a5,12(a4)
     168:	00472703          	lw	a4,4(a4)
     16c:	40e787b3          	sub	a5,a5,a4
     170:	000f4737          	lui	a4,0xf4
     174:	24070713          	addi	a4,a4,576 # f4240 <_ebss+0xe43f0>
     178:	02e7c7b3          	div	a5,a5,a4
     17c:	00f50533          	add	a0,a0,a5
     180:	00008067          	ret

00000184 <time_in_secs>:
     184:	ff010113          	addi	sp,sp,-16
     188:	00112623          	sw	ra,12(sp)
     18c:	5fd010ef          	jal	ra,1f88 <__floatsidf>
     190:	0000d797          	auipc	a5,0xd
     194:	35078793          	addi	a5,a5,848 # d4e0 <.LC0>
     198:	0007a603          	lw	a2,0(a5)
     19c:	0047a683          	lw	a3,4(a5)
     1a0:	488010ef          	jal	ra,1628 <__divdf3>
     1a4:	00c12083          	lw	ra,12(sp)
     1a8:	01010113          	addi	sp,sp,16
     1ac:	00008067          	ret

000001b0 <portable_init>:
     1b0:	00100793          	li	a5,1
     1b4:	00f50023          	sb	a5,0(a0)
     1b8:	00008067          	ret

000001bc <portable_fini>:
     1bc:	00050023          	sb	zero,0(a0)
     1c0:	00008067          	ret

000001c4 <cmp_idx>:
     1c4:	02061e63          	bnez	a2,200 <.L2>
     1c8:	00051783          	lh	a5,0(a0)
     1cc:	f007f713          	andi	a4,a5,-256
     1d0:	01079793          	slli	a5,a5,0x10
     1d4:	0107d793          	srli	a5,a5,0x10
     1d8:	0087d793          	srli	a5,a5,0x8
     1dc:	00f767b3          	or	a5,a4,a5
     1e0:	00f51023          	sh	a5,0(a0)
     1e4:	00059783          	lh	a5,0(a1)
     1e8:	f007f713          	andi	a4,a5,-256
     1ec:	01079793          	slli	a5,a5,0x10
     1f0:	0107d793          	srli	a5,a5,0x10
     1f4:	0087d793          	srli	a5,a5,0x8
     1f8:	00f767b3          	or	a5,a4,a5
     1fc:	00f59023          	sh	a5,0(a1)

00000200 <.L2>:
     200:	00251503          	lh	a0,2(a0)
     204:	00259783          	lh	a5,2(a1)
     208:	40f50533          	sub	a0,a0,a5
     20c:	00008067          	ret

00000210 <calc_func>:
     210:	fe010113          	addi	sp,sp,-32
     214:	01212823          	sw	s2,16(sp)
     218:	00051903          	lh	s2,0(a0)
     21c:	00112e23          	sw	ra,28(sp)
     220:	00812c23          	sw	s0,24(sp)
     224:	40795793          	srai	a5,s2,0x7
     228:	00912a23          	sw	s1,20(sp)
     22c:	01312623          	sw	s3,12(sp)
     230:	0017f793          	andi	a5,a5,1
     234:	02078263          	beqz	a5,258 <.L4>
     238:	07f97513          	andi	a0,s2,127

0000023c <.L5>:
     23c:	01c12083          	lw	ra,28(sp)
     240:	01812403          	lw	s0,24(sp)
     244:	01412483          	lw	s1,20(sp)
     248:	01012903          	lw	s2,16(sp)
     24c:	00c12983          	lw	s3,12(sp)
     250:	02010113          	addi	sp,sp,32
     254:	00008067          	ret

00000258 <.L4>:
     258:	40395793          	srai	a5,s2,0x3
     25c:	00f7f793          	andi	a5,a5,15
     260:	00058493          	mv	s1,a1
     264:	00797713          	andi	a4,s2,7
     268:	00479593          	slli	a1,a5,0x4
     26c:	00f5e5b3          	or	a1,a1,a5
     270:	00050993          	mv	s3,a0
     274:	0384d783          	lhu	a5,56(s1)
     278:	02070663          	beqz	a4,2a4 <.L6>
     27c:	00100693          	li	a3,1
     280:	00090413          	mv	s0,s2
     284:	04d71c63          	bne	a4,a3,2dc <.L8>
     288:	00078613          	mv	a2,a5
     28c:	02848513          	addi	a0,s1,40
     290:	4b1000ef          	jal	ra,f40 <core_bench_matrix>
     294:	03c4d783          	lhu	a5,60(s1)
     298:	02079e63          	bnez	a5,2d4 <.L13>
     29c:	02a49e23          	sh	a0,60(s1)
     2a0:	0340006f          	j	2d4 <.L13>

000002a4 <.L6>:
     2a4:	02200693          	li	a3,34
     2a8:	00058713          	mv	a4,a1
     2ac:	00d5d463          	bge	a1,a3,2b4 <.L9>
     2b0:	02200713          	li	a4,34

000002b4 <.L9>:
     2b4:	00249683          	lh	a3,2(s1)
     2b8:	00049603          	lh	a2,0(s1)
     2bc:	0144a583          	lw	a1,20(s1)
     2c0:	0184a503          	lw	a0,24(s1)
     2c4:	0ff77713          	zext.b	a4,a4
     2c8:	030010ef          	jal	ra,12f8 <core_bench_state>
     2cc:	03e4d783          	lhu	a5,62(s1)
     2d0:	02078c63          	beqz	a5,308 <.L10>

000002d4 <.L13>:
     2d4:	01051413          	slli	s0,a0,0x10
     2d8:	41045413          	srai	s0,s0,0x10

000002dc <.L8>:
     2dc:	0384d583          	lhu	a1,56(s1)
     2e0:	01041513          	slli	a0,s0,0x10
     2e4:	01055513          	srli	a0,a0,0x10
     2e8:	2c8010ef          	jal	ra,15b0 <crcu16>
     2ec:	02a49c23          	sh	a0,56(s1)
     2f0:	f0097913          	andi	s2,s2,-256
     2f4:	07f47513          	andi	a0,s0,127
     2f8:	01256933          	or	s2,a0,s2
     2fc:	08096913          	ori	s2,s2,128
     300:	01299023          	sh	s2,0(s3)
     304:	f39ff06f          	j	23c <.L5>

00000308 <.L10>:
     308:	02a49f23          	sh	a0,62(s1)
     30c:	fc9ff06f          	j	2d4 <.L13>

00000310 <cmp_complex>:
     310:	fe010113          	addi	sp,sp,-32
     314:	00912a23          	sw	s1,20(sp)
     318:	00058493          	mv	s1,a1
     31c:	00060593          	mv	a1,a2
     320:	00112e23          	sw	ra,28(sp)
     324:	00812c23          	sw	s0,24(sp)
     328:	00c12623          	sw	a2,12(sp)
     32c:	ee5ff0ef          	jal	ra,210 <calc_func>
     330:	00c12583          	lw	a1,12(sp)
     334:	00050413          	mv	s0,a0
     338:	00048513          	mv	a0,s1
     33c:	ed5ff0ef          	jal	ra,210 <calc_func>
     340:	01c12083          	lw	ra,28(sp)
     344:	40a40533          	sub	a0,s0,a0
     348:	01812403          	lw	s0,24(sp)
     34c:	01412483          	lw	s1,20(sp)
     350:	02010113          	addi	sp,sp,32
     354:	00008067          	ret

00000358 <copy_info>:
     358:	00059783          	lh	a5,0(a1)
     35c:	00f51023          	sh	a5,0(a0)
     360:	00259783          	lh	a5,2(a1)
     364:	00f51123          	sh	a5,2(a0)
     368:	00008067          	ret

0000036c <core_list_insert_new>:
     36c:	00050813          	mv	a6,a0
     370:	00062503          	lw	a0,0(a2)
     374:	00850893          	addi	a7,a0,8
     378:	04e8f463          	bgeu	a7,a4,3c0 <.L21>
     37c:	0006a703          	lw	a4,0(a3)
     380:	00470313          	addi	t1,a4,4
     384:	02f37e63          	bgeu	t1,a5,3c0 <.L21>
     388:	01162023          	sw	a7,0(a2)
     38c:	00082783          	lw	a5,0(a6)
     390:	00f52023          	sw	a5,0(a0)
     394:	00a82023          	sw	a0,0(a6)
     398:	00e52223          	sw	a4,4(a0)
     39c:	0006a783          	lw	a5,0(a3)
     3a0:	00059703          	lh	a4,0(a1)
     3a4:	00478793          	addi	a5,a5,4
     3a8:	00f6a023          	sw	a5,0(a3)
     3ac:	00452783          	lw	a5,4(a0)
     3b0:	00e79023          	sh	a4,0(a5)
     3b4:	00259703          	lh	a4,2(a1)
     3b8:	00e79123          	sh	a4,2(a5)
     3bc:	00008067          	ret

000003c0 <.L21>:
     3c0:	00000513          	li	a0,0
     3c4:	00008067          	ret

000003c8 <core_list_remove>:
     3c8:	00050793          	mv	a5,a0
     3cc:	00052503          	lw	a0,0(a0)
     3d0:	0047a703          	lw	a4,4(a5)
     3d4:	00452683          	lw	a3,4(a0)
     3d8:	00d7a223          	sw	a3,4(a5)
     3dc:	00e52223          	sw	a4,4(a0)
     3e0:	00052703          	lw	a4,0(a0)
     3e4:	00e7a023          	sw	a4,0(a5)
     3e8:	00052023          	sw	zero,0(a0)
     3ec:	00008067          	ret

000003f0 <core_list_undo_remove>:
     3f0:	0045a683          	lw	a3,4(a1)
     3f4:	00452703          	lw	a4,4(a0)
     3f8:	00d52223          	sw	a3,4(a0)
     3fc:	00e5a223          	sw	a4,4(a1)
     400:	0005a703          	lw	a4,0(a1)
     404:	00e52023          	sw	a4,0(a0)
     408:	00a5a023          	sw	a0,0(a1)
     40c:	00008067          	ret

00000410 <core_list_find>:
     410:	00259783          	lh	a5,2(a1)
     414:	0207d063          	bgez	a5,434 <.L25>

00000418 <.L26>:
     418:	00050a63          	beqz	a0,42c <.L27>
     41c:	00452783          	lw	a5,4(a0)
     420:	00059703          	lh	a4,0(a1)
     424:	0007c783          	lbu	a5,0(a5)
     428:	02f71063          	bne	a4,a5,448 <.L29>

0000042c <.L27>:
     42c:	00008067          	ret

00000430 <.L28>:
     430:	00052503          	lw	a0,0(a0)

00000434 <.L25>:
     434:	fe050ce3          	beqz	a0,42c <.L27>
     438:	00452703          	lw	a4,4(a0)
     43c:	00271703          	lh	a4,2(a4)
     440:	fef718e3          	bne	a4,a5,430 <.L28>
     444:	00008067          	ret

00000448 <.L29>:
     448:	00052503          	lw	a0,0(a0)
     44c:	fcdff06f          	j	418 <.L26>

00000450 <core_list_reverse>:
     450:	00050793          	mv	a5,a0
     454:	00000513          	li	a0,0

00000458 <.L38>:
     458:	00079463          	bnez	a5,460 <.L39>
     45c:	00008067          	ret

00000460 <.L39>:
     460:	0007a703          	lw	a4,0(a5)
     464:	00a7a023          	sw	a0,0(a5)
     468:	00078513          	mv	a0,a5
     46c:	00070793          	mv	a5,a4
     470:	fe9ff06f          	j	458 <.L38>

00000474 <core_list_mergesort>:
     474:	fd010113          	addi	sp,sp,-48
     478:	01312e23          	sw	s3,28(sp)
     47c:	01512a23          	sw	s5,20(sp)
     480:	01712623          	sw	s7,12(sp)
     484:	01812423          	sw	s8,8(sp)
     488:	01a12023          	sw	s10,0(sp)
     48c:	02112623          	sw	ra,44(sp)
     490:	02812423          	sw	s0,40(sp)
     494:	02912223          	sw	s1,36(sp)
     498:	03212023          	sw	s2,32(sp)
     49c:	01412c23          	sw	s4,24(sp)
     4a0:	01612823          	sw	s6,16(sp)
     4a4:	01912223          	sw	s9,4(sp)
     4a8:	00058b93          	mv	s7,a1
     4ac:	00060c13          	mv	s8,a2
     4b0:	00050993          	mv	s3,a0
     4b4:	00100a93          	li	s5,1
     4b8:	00100d13          	li	s10,1

000004bc <.L56>:
     4bc:	00098493          	mv	s1,s3
     4c0:	00000c93          	li	s9,0
     4c4:	00000b13          	li	s6,0
     4c8:	00000993          	li	s3,0

000004cc <.L41>:
     4cc:	00049a63          	bnez	s1,4e0 <.L54>
     4d0:	000b2023          	sw	zero,0(s6)
     4d4:	099d5e63          	bge	s10,s9,570 <.L62>
     4d8:	001a9a93          	slli	s5,s5,0x1
     4dc:	fe1ff06f          	j	4bc <.L56>

000004e0 <.L54>:
     4e0:	001c8c93          	addi	s9,s9,1
     4e4:	00048413          	mv	s0,s1
     4e8:	00000913          	li	s2,0

000004ec <.L44>:
     4ec:	00042403          	lw	s0,0(s0)
     4f0:	00190913          	addi	s2,s2,1
     4f4:	00041e63          	bnez	s0,510 <.L42>

000004f8 <.L45>:
     4f8:	000a8a13          	mv	s4,s5

000004fc <.L43>:
     4fc:	03204863          	bgtz	s2,52c <.L51>
     500:	01405463          	blez	s4,508 <.L52>
     504:	00041a63          	bnez	s0,518 <.L53>

00000508 <.L52>:
     508:	00040493          	mv	s1,s0
     50c:	fc1ff06f          	j	4cc <.L41>

00000510 <.L42>:
     510:	fd2a9ee3          	bne	s5,s2,4ec <.L44>
     514:	fe5ff06f          	j	4f8 <.L45>

00000518 <.L53>:
     518:	02091c63          	bnez	s2,550 <.L46>

0000051c <.L49>:
     51c:	00040793          	mv	a5,s0
     520:	fffa0a13          	addi	s4,s4,-1
     524:	00042403          	lw	s0,0(s0)
     528:	0180006f          	j	540 <.L47>

0000052c <.L51>:
     52c:	000a0463          	beqz	s4,534 <.L64>
     530:	02041063          	bnez	s0,550 <.L46>

00000534 <.L64>:
     534:	00048793          	mv	a5,s1
     538:	0004a483          	lw	s1,0(s1)
     53c:	fff90913          	addi	s2,s2,-1

00000540 <.L47>:
     540:	020b0463          	beqz	s6,568 <.L57>
     544:	00fb2023          	sw	a5,0(s6)

00000548 <.L50>:
     548:	00078b13          	mv	s6,a5
     54c:	fb1ff06f          	j	4fc <.L43>

00000550 <.L46>:
     550:	00442583          	lw	a1,4(s0)
     554:	0044a503          	lw	a0,4(s1)
     558:	000c0613          	mv	a2,s8
     55c:	000b80e7          	jalr	s7
     560:	faa04ee3          	bgtz	a0,51c <.L49>
     564:	fd1ff06f          	j	534 <.L64>

00000568 <.L57>:
     568:	00078993          	mv	s3,a5
     56c:	fddff06f          	j	548 <.L50>

00000570 <.L62>:
     570:	02c12083          	lw	ra,44(sp)
     574:	02812403          	lw	s0,40(sp)
     578:	02412483          	lw	s1,36(sp)
     57c:	02012903          	lw	s2,32(sp)
     580:	01812a03          	lw	s4,24(sp)
     584:	01412a83          	lw	s5,20(sp)
     588:	01012b03          	lw	s6,16(sp)
     58c:	00c12b83          	lw	s7,12(sp)
     590:	00812c03          	lw	s8,8(sp)
     594:	00412c83          	lw	s9,4(sp)
     598:	00012d03          	lw	s10,0(sp)
     59c:	00098513          	mv	a0,s3
     5a0:	01c12983          	lw	s3,28(sp)
     5a4:	03010113          	addi	sp,sp,48
     5a8:	00008067          	ret

000005ac <core_bench_list>:
     5ac:	fb010113          	addi	sp,sp,-80
     5b0:	04812423          	sw	s0,72(sp)
     5b4:	03812423          	sw	s8,40(sp)
     5b8:	02452403          	lw	s0,36(a0)
     5bc:	00451c03          	lh	s8,4(a0)
     5c0:	04912223          	sw	s1,68(sp)
     5c4:	05212023          	sw	s2,64(sp)
     5c8:	03412c23          	sw	s4,56(sp)
     5cc:	03512a23          	sw	s5,52(sp)
     5d0:	03612823          	sw	s6,48(sp)
     5d4:	03712623          	sw	s7,44(sp)
     5d8:	04112623          	sw	ra,76(sp)
     5dc:	03312e23          	sw	s3,60(sp)
     5e0:	00050613          	mv	a2,a0
     5e4:	00058b13          	mv	s6,a1
     5e8:	00b11f23          	sh	a1,30(sp)
     5ec:	00000a93          	li	s5,0
     5f0:	00000b93          	li	s7,0
     5f4:	00000913          	li	s2,0
     5f8:	00000493          	li	s1,0
     5fc:	01c10a13          	addi	s4,sp,28

00000600 <.L66>:
     600:	0d8ac663          	blt	s5,s8,6cc <.L72>
     604:	00291913          	slli	s2,s2,0x2
     608:	41790933          	sub	s2,s2,s7
     60c:	012484b3          	add	s1,s1,s2
     610:	01049493          	slli	s1,s1,0x10
     614:	0104d493          	srli	s1,s1,0x10
     618:	01605c63          	blez	s6,630 <.L73>
     61c:	00040513          	mv	a0,s0
     620:	00000597          	auipc	a1,0x0
     624:	cf058593          	addi	a1,a1,-784 # 310 <cmp_complex>
     628:	e4dff0ef          	jal	ra,474 <core_list_mergesort>
     62c:	00050413          	mv	s0,a0

00000630 <.L73>:
     630:	00042503          	lw	a0,0(s0)
     634:	d95ff0ef          	jal	ra,3c8 <core_list_remove>
     638:	00050993          	mv	s3,a0
     63c:	000a0593          	mv	a1,s4
     640:	00040513          	mv	a0,s0
     644:	dcdff0ef          	jal	ra,410 <core_list_find>
     648:	00050913          	mv	s2,a0
     64c:	14051463          	bnez	a0,794 <.L76>
     650:	00042903          	lw	s2,0(s0)

00000654 <.L75>:
     654:	14091063          	bnez	s2,794 <.L76>
     658:	00042783          	lw	a5,0(s0)
     65c:	0049a703          	lw	a4,4(s3)
     660:	00040513          	mv	a0,s0
     664:	0047a683          	lw	a3,4(a5)
     668:	00000613          	li	a2,0
     66c:	00000597          	auipc	a1,0x0
     670:	b5858593          	addi	a1,a1,-1192 # 1c4 <cmp_idx>
     674:	00d9a223          	sw	a3,4(s3)
     678:	00e7a223          	sw	a4,4(a5)
     67c:	0007a703          	lw	a4,0(a5)
     680:	00e9a023          	sw	a4,0(s3)
     684:	0137a023          	sw	s3,0(a5)
     688:	dedff0ef          	jal	ra,474 <core_list_mergesort>
     68c:	00052903          	lw	s2,0(a0)
     690:	00050413          	mv	s0,a0

00000694 <.L77>:
     694:	10091e63          	bnez	s2,7b0 <.L78>
     698:	04c12083          	lw	ra,76(sp)
     69c:	04812403          	lw	s0,72(sp)
     6a0:	04012903          	lw	s2,64(sp)
     6a4:	03c12983          	lw	s3,60(sp)
     6a8:	03812a03          	lw	s4,56(sp)
     6ac:	03412a83          	lw	s5,52(sp)
     6b0:	03012b03          	lw	s6,48(sp)
     6b4:	02c12b83          	lw	s7,44(sp)
     6b8:	02812c03          	lw	s8,40(sp)
     6bc:	00048513          	mv	a0,s1
     6c0:	04412483          	lw	s1,68(sp)
     6c4:	05010113          	addi	sp,sp,80
     6c8:	00008067          	ret

000006cc <.L72>:
     6cc:	0ffaf793          	zext.b	a5,s5
     6d0:	000a0593          	mv	a1,s4
     6d4:	00040513          	mv	a0,s0
     6d8:	00c12623          	sw	a2,12(sp)
     6dc:	00f11e23          	sh	a5,28(sp)
     6e0:	d31ff0ef          	jal	ra,410 <core_list_find>
     6e4:	00050993          	mv	s3,a0
     6e8:	00040513          	mv	a0,s0
     6ec:	d65ff0ef          	jal	ra,450 <core_list_reverse>
     6f0:	00c12603          	lw	a2,12(sp)
     6f4:	00050413          	mv	s0,a0
     6f8:	04099663          	bnez	s3,744 <.L67>
     6fc:	00052783          	lw	a5,0(a0)
     700:	001b8b93          	addi	s7,s7,1
     704:	010b9b93          	slli	s7,s7,0x10
     708:	0047a783          	lw	a5,4(a5)
     70c:	010bdb93          	srli	s7,s7,0x10
     710:	00178783          	lb	a5,1(a5)
     714:	0017f793          	andi	a5,a5,1
     718:	00f484b3          	add	s1,s1,a5
     71c:	01049493          	slli	s1,s1,0x10
     720:	0104d493          	srli	s1,s1,0x10

00000724 <.L68>:
     724:	01e11783          	lh	a5,30(sp)
     728:	0007c663          	bltz	a5,734 <.L71>
     72c:	00178793          	addi	a5,a5,1
     730:	00f11f23          	sh	a5,30(sp)

00000734 <.L71>:
     734:	001a8793          	addi	a5,s5,1
     738:	01079a93          	slli	s5,a5,0x10
     73c:	410ada93          	srai	s5,s5,0x10
     740:	ec1ff06f          	j	600 <.L66>

00000744 <.L67>:
     744:	0049a783          	lw	a5,4(s3)
     748:	00079783          	lh	a5,0(a5)
     74c:	0017f713          	andi	a4,a5,1
     750:	00070c63          	beqz	a4,768 <.L69>
     754:	4097d793          	srai	a5,a5,0x9
     758:	0017f793          	andi	a5,a5,1
     75c:	00f487b3          	add	a5,s1,a5
     760:	01079493          	slli	s1,a5,0x10
     764:	0104d493          	srli	s1,s1,0x10

00000768 <.L69>:
     768:	0009a783          	lw	a5,0(s3)
     76c:	00078c63          	beqz	a5,784 <.L70>
     770:	0007a703          	lw	a4,0(a5)
     774:	00e9a023          	sw	a4,0(s3)
     778:	00042703          	lw	a4,0(s0)
     77c:	00e7a023          	sw	a4,0(a5)
     780:	00f42023          	sw	a5,0(s0)

00000784 <.L70>:
     784:	00190913          	addi	s2,s2,1
     788:	01091913          	slli	s2,s2,0x10
     78c:	01095913          	srli	s2,s2,0x10
     790:	f95ff06f          	j	724 <.L68>

00000794 <.L76>:
     794:	00442783          	lw	a5,4(s0)
     798:	00048593          	mv	a1,s1
     79c:	00079503          	lh	a0,0(a5)
     7a0:	675000ef          	jal	ra,1614 <crc16>
     7a4:	00050493          	mv	s1,a0
     7a8:	00092903          	lw	s2,0(s2)
     7ac:	ea9ff06f          	j	654 <.L75>

000007b0 <.L78>:
     7b0:	00442783          	lw	a5,4(s0)
     7b4:	00048593          	mv	a1,s1
     7b8:	00079503          	lh	a0,0(a5)
     7bc:	659000ef          	jal	ra,1614 <crc16>
     7c0:	00050493          	mv	s1,a0
     7c4:	00092903          	lw	s2,0(s2)
     7c8:	ecdff06f          	j	694 <.L77>

000007cc <core_list_init>:
     7cc:	01400793          	li	a5,20
     7d0:	02f55533          	divu	a0,a0,a5
     7d4:	fb010113          	addi	sp,sp,-80
     7d8:	04912223          	sw	s1,68(sp)
     7dc:	05212023          	sw	s2,64(sp)
     7e0:	04812423          	sw	s0,72(sp)
     7e4:	03312e23          	sw	s3,60(sp)
     7e8:	03412c23          	sw	s4,56(sp)
     7ec:	03512a23          	sw	s5,52(sp)
     7f0:	03612823          	sw	s6,48(sp)
     7f4:	03712623          	sw	s7,44(sp)
     7f8:	03812423          	sw	s8,40(sp)
     7fc:	04112623          	sw	ra,76(sp)
     800:	ffff87b7          	lui	a5,0xffff8
     804:	0005a023          	sw	zero,0(a1)
     808:	08078793          	addi	a5,a5,128 # ffff8080 <_ebss+0xfffe8230>
     80c:	00058413          	mv	s0,a1
     810:	01810a93          	addi	s5,sp,24
     814:	00c10b13          	addi	s6,sp,12
     818:	01c10b93          	addi	s7,sp,28
     81c:	00060993          	mv	s3,a2
     820:	000a8693          	mv	a3,s5
     824:	000b0613          	mv	a2,s6
     828:	00000c13          	li	s8,0
     82c:	ffe50493          	addi	s1,a0,-2
     830:	00349913          	slli	s2,s1,0x3
     834:	01258933          	add	s2,a1,s2
     838:	0125a223          	sw	s2,4(a1)
     83c:	00f91023          	sh	a5,0(s2)
     840:	00858793          	addi	a5,a1,8
     844:	00f12623          	sw	a5,12(sp)
     848:	00490793          	addi	a5,s2,4
     84c:	00f12c23          	sw	a5,24(sp)
     850:	00249a13          	slli	s4,s1,0x2
     854:	800007b7          	lui	a5,0x80000
     858:	fff7c793          	not	a5,a5
     85c:	01490a33          	add	s4,s2,s4
     860:	00f12e23          	sw	a5,28(sp)
     864:	00091123          	sh	zero,2(s2)
     868:	000a0793          	mv	a5,s4
     86c:	00090713          	mv	a4,s2
     870:	000b8593          	mv	a1,s7
     874:	00040513          	mv	a0,s0
     878:	af5ff0ef          	jal	ra,36c <core_list_insert_new>

0000087c <.L87>:
     87c:	069c6463          	bltu	s8,s1,8e4 <.L88>
     880:	00042783          	lw	a5,0(s0)
     884:	00500713          	li	a4,5
     888:	00004637          	lui	a2,0x4
     88c:	02e4d4b3          	divu	s1,s1,a4
     890:	fff60613          	addi	a2,a2,-1 # 3fff <.L6+0xb>
     894:	00100713          	li	a4,1

00000898 <.L89>:
     898:	0007a583          	lw	a1,0(a5) # 80000000 <_ebss+0x7fff01b0>
     89c:	08059a63          	bnez	a1,930 <.L92>
     8a0:	00040513          	mv	a0,s0
     8a4:	00000613          	li	a2,0
     8a8:	00000597          	auipc	a1,0x0
     8ac:	91c58593          	addi	a1,a1,-1764 # 1c4 <cmp_idx>
     8b0:	bc5ff0ef          	jal	ra,474 <core_list_mergesort>
     8b4:	04c12083          	lw	ra,76(sp)
     8b8:	04812403          	lw	s0,72(sp)
     8bc:	04412483          	lw	s1,68(sp)
     8c0:	04012903          	lw	s2,64(sp)
     8c4:	03c12983          	lw	s3,60(sp)
     8c8:	03812a03          	lw	s4,56(sp)
     8cc:	03412a83          	lw	s5,52(sp)
     8d0:	03012b03          	lw	s6,48(sp)
     8d4:	02c12b83          	lw	s7,44(sp)
     8d8:	02812c03          	lw	s8,40(sp)
     8dc:	05010113          	addi	sp,sp,80
     8e0:	00008067          	ret

000008e4 <.L88>:
     8e4:	010c1793          	slli	a5,s8,0x10
     8e8:	0107d793          	srli	a5,a5,0x10
     8ec:	0137c733          	xor	a4,a5,s3
     8f0:	00371713          	slli	a4,a4,0x3
     8f4:	0077f793          	andi	a5,a5,7
     8f8:	07877713          	andi	a4,a4,120
     8fc:	00f76733          	or	a4,a4,a5
     900:	00871793          	slli	a5,a4,0x8
     904:	00e7e7b3          	or	a5,a5,a4
     908:	00f11e23          	sh	a5,28(sp)
     90c:	00090713          	mv	a4,s2
     910:	000a0793          	mv	a5,s4
     914:	000a8693          	mv	a3,s5
     918:	000b0613          	mv	a2,s6
     91c:	000b8593          	mv	a1,s7
     920:	00040513          	mv	a0,s0
     924:	a49ff0ef          	jal	ra,36c <core_list_insert_new>
     928:	001c0c13          	addi	s8,s8,1
     92c:	f51ff06f          	j	87c <.L87>

00000930 <.L92>:
     930:	0047a503          	lw	a0,4(a5)
     934:	01071793          	slli	a5,a4,0x10
     938:	02976463          	bltu	a4,s1,960 <.L94>
     93c:	01071693          	slli	a3,a4,0x10
     940:	0106d693          	srli	a3,a3,0x10
     944:	00168793          	addi	a5,a3,1
     948:	00879793          	slli	a5,a5,0x8
     94c:	7007f793          	andi	a5,a5,1792
     950:	0136c6b3          	xor	a3,a3,s3
     954:	00d7e7b3          	or	a5,a5,a3
     958:	00c7f7b3          	and	a5,a5,a2
     95c:	01079793          	slli	a5,a5,0x10

00000960 <.L94>:
     960:	4107d793          	srai	a5,a5,0x10
     964:	00f51123          	sh	a5,2(a0)
     968:	00170713          	addi	a4,a4,1
     96c:	00058793          	mv	a5,a1
     970:	f29ff06f          	j	898 <.L89>

00000974 <iterate>:
     974:	ff010113          	addi	sp,sp,-16
     978:	01212023          	sw	s2,0(sp)
     97c:	01c52903          	lw	s2,28(a0)
     980:	00812423          	sw	s0,8(sp)
     984:	00912223          	sw	s1,4(sp)
     988:	00112623          	sw	ra,12(sp)
     98c:	00050413          	mv	s0,a0
     990:	02052c23          	sw	zero,56(a0)
     994:	02052e23          	sw	zero,60(a0)
     998:	00000493          	li	s1,0

0000099c <.L2>:
     99c:	03249063          	bne	s1,s2,9bc <.L4>
     9a0:	00c12083          	lw	ra,12(sp)
     9a4:	00812403          	lw	s0,8(sp)
     9a8:	00412483          	lw	s1,4(sp)
     9ac:	00012903          	lw	s2,0(sp)
     9b0:	00000513          	li	a0,0
     9b4:	01010113          	addi	sp,sp,16
     9b8:	00008067          	ret

000009bc <.L4>:
     9bc:	00100593          	li	a1,1
     9c0:	00040513          	mv	a0,s0
     9c4:	be9ff0ef          	jal	ra,5ac <core_bench_list>
     9c8:	03845583          	lhu	a1,56(s0)
     9cc:	3e5000ef          	jal	ra,15b0 <crcu16>
     9d0:	02a41c23          	sh	a0,56(s0)
     9d4:	fff00593          	li	a1,-1
     9d8:	00040513          	mv	a0,s0
     9dc:	bd1ff0ef          	jal	ra,5ac <core_bench_list>
     9e0:	03845583          	lhu	a1,56(s0)
     9e4:	3cd000ef          	jal	ra,15b0 <crcu16>
     9e8:	02a41c23          	sh	a0,56(s0)
     9ec:	00049463          	bnez	s1,9f4 <.L3>
     9f0:	02a41d23          	sh	a0,58(s0)

000009f4 <.L3>:
     9f4:	00148493          	addi	s1,s1,1
     9f8:	fa5ff06f          	j	99c <.L2>

000009fc <core_init_matrix>:
     9fc:	00061463          	bnez	a2,a04 <.L2>
     a00:	00100613          	li	a2,1

00000a04 <.L2>:
     a04:	00000713          	li	a4,0
     a08:	00000793          	li	a5,0
     a0c:	0100006f          	j	a1c <.L3>

00000a10 <.L4>:
     a10:	00178793          	addi	a5,a5,1
     a14:	02f78733          	mul	a4,a5,a5
     a18:	00371713          	slli	a4,a4,0x3

00000a1c <.L3>:
     a1c:	fea76ae3          	bltu	a4,a0,a10 <.L4>
     a20:	fff78513          	addi	a0,a5,-1
     a24:	02a50333          	mul	t1,a0,a0
     a28:	fff58713          	addi	a4,a1,-1
     a2c:	ffc77713          	andi	a4,a4,-4
     a30:	00470713          	addi	a4,a4,4
     a34:	00000e93          	li	t4,0
     a38:	00000e13          	li	t3,0
     a3c:	00100593          	li	a1,1
     a40:	000102b7          	lui	t0,0x10
     a44:	00131313          	slli	t1,t1,0x1
     a48:	006707b3          	add	a5,a4,t1
     a4c:	406003b3          	neg	t2,t1
     a50:	0aaee863          	bltu	t4,a0,b00 <.L13>
     a54:	00f6a423          	sw	a5,8(a3)
     a58:	006787b3          	add	a5,a5,t1
     a5c:	fff78793          	addi	a5,a5,-1
     a60:	ffc7f793          	andi	a5,a5,-4
     a64:	00478793          	addi	a5,a5,4
     a68:	00e6a223          	sw	a4,4(a3)
     a6c:	00f6a623          	sw	a5,12(a3)
     a70:	00a6a023          	sw	a0,0(a3)
     a74:	00008067          	ret

00000a78 <.L6>:
     a78:	02c58633          	mul	a2,a1,a2
     a7c:	01059f93          	slli	t6,a1,0x10
     a80:	010fdf93          	srli	t6,t6,0x10
     a84:	01138433          	add	s0,t2,a7
     a88:	00158593          	addi	a1,a1,1
     a8c:	00288893          	addi	a7,a7,2
     a90:	02566633          	rem	a2,a2,t0
     a94:	00cf8833          	add	a6,t6,a2
     a98:	01081813          	slli	a6,a6,0x10
     a9c:	01085813          	srli	a6,a6,0x10
     aa0:	ff089f23          	sh	a6,-2(a7)
     aa4:	01f80833          	add	a6,a6,t6
     aa8:	0ff87813          	zext.b	a6,a6
     aac:	01041023          	sh	a6,0(s0)
     ab0:	fcbf14e3          	bne	t5,a1,a78 <.L6>
     ab4:	001e8e93          	addi	t4,t4,1
     ab8:	00ae0e33          	add	t3,t3,a0
     abc:	000f0593          	mv	a1,t5
     ac0:	00aefa63          	bgeu	t4,a0,ad4 <.L7>

00000ac4 <.L11>:
     ac4:	001e1893          	slli	a7,t3,0x1
     ac8:	00f888b3          	add	a7,a7,a5
     acc:	00a58f33          	add	t5,a1,a0
     ad0:	fa9ff06f          	j	a78 <.L6>

00000ad4 <.L7>:
     ad4:	00f6a423          	sw	a5,8(a3)
     ad8:	006787b3          	add	a5,a5,t1
     adc:	fff78793          	addi	a5,a5,-1
     ae0:	00c12403          	lw	s0,12(sp)
     ae4:	ffc7f793          	andi	a5,a5,-4
     ae8:	00478793          	addi	a5,a5,4
     aec:	00e6a223          	sw	a4,4(a3)
     af0:	00f6a623          	sw	a5,12(a3)
     af4:	00a6a023          	sw	a0,0(a3)
     af8:	01010113          	addi	sp,sp,16
     afc:	00008067          	ret

00000b00 <.L13>:
     b00:	ff010113          	addi	sp,sp,-16
     b04:	00812623          	sw	s0,12(sp)
     b08:	fbdff06f          	j	ac4 <.L11>

00000b0c <matrix_sum>:
     b0c:	00050693          	mv	a3,a0
     b10:	00000e13          	li	t3,0
     b14:	00000e93          	li	t4,0
     b18:	00000513          	li	a0,0
     b1c:	00000893          	li	a7,0
     b20:	00000813          	li	a6,0

00000b24 <.L16>:
     b24:	06de8263          	beq	t4,a3,b88 <.L20>
     b28:	002e1713          	slli	a4,t3,0x2
     b2c:	00e58733          	add	a4,a1,a4
     b30:	00000313          	li	t1,0

00000b34 <.L19>:
     b34:	00088f13          	mv	t5,a7
     b38:	00072883          	lw	a7,0(a4)
     b3c:	01051793          	slli	a5,a0,0x10
     b40:	0107d793          	srli	a5,a5,0x10
     b44:	01180833          	add	a6,a6,a7
     b48:	03065663          	bge	a2,a6,b74 <.L17>
     b4c:	00a78793          	addi	a5,a5,10
     b50:	01079513          	slli	a0,a5,0x10
     b54:	41055513          	srai	a0,a0,0x10
     b58:	00000813          	li	a6,0

00000b5c <.L18>:
     b5c:	00130313          	addi	t1,t1,1
     b60:	00470713          	addi	a4,a4,4
     b64:	fc6698e3          	bne	a3,t1,b34 <.L19>
     b68:	001e8e93          	addi	t4,t4,1
     b6c:	00de0e33          	add	t3,t3,a3
     b70:	fb5ff06f          	j	b24 <.L16>

00000b74 <.L17>:
     b74:	011f2f33          	slt	t5,t5,a7
     b78:	01e787b3          	add	a5,a5,t5
     b7c:	01079513          	slli	a0,a5,0x10
     b80:	41055513          	srai	a0,a0,0x10
     b84:	fd9ff06f          	j	b5c <.L18>

00000b88 <.L20>:
     b88:	00008067          	ret

00000b8c <matrix_mul_const>:
     b8c:	00000813          	li	a6,0
     b90:	00000893          	li	a7,0

00000b94 <.L23>:
     b94:	00a89463          	bne	a7,a0,b9c <.L25>
     b98:	00008067          	ret

00000b9c <.L25>:
     b9c:	00181713          	slli	a4,a6,0x1
     ba0:	00281793          	slli	a5,a6,0x2
     ba4:	00e60733          	add	a4,a2,a4
     ba8:	00f587b3          	add	a5,a1,a5
     bac:	00000313          	li	t1,0

00000bb0 <.L24>:
     bb0:	00071e03          	lh	t3,0(a4)
     bb4:	00130313          	addi	t1,t1,1
     bb8:	00270713          	addi	a4,a4,2
     bbc:	02de0e33          	mul	t3,t3,a3
     bc0:	00478793          	addi	a5,a5,4
     bc4:	ffc7ae23          	sw	t3,-4(a5)
     bc8:	fe6514e3          	bne	a0,t1,bb0 <.L24>
     bcc:	00188893          	addi	a7,a7,1
     bd0:	00a80833          	add	a6,a6,a0
     bd4:	fc1ff06f          	j	b94 <.L23>

00000bd8 <matrix_add_const>:
     bd8:	00000693          	li	a3,0
     bdc:	00000713          	li	a4,0

00000be0 <.L28>:
     be0:	00a71463          	bne	a4,a0,be8 <.L30>
     be4:	00008067          	ret

00000be8 <.L30>:
     be8:	00169793          	slli	a5,a3,0x1
     bec:	00f587b3          	add	a5,a1,a5
     bf0:	00000813          	li	a6,0

00000bf4 <.L29>:
     bf4:	0007d883          	lhu	a7,0(a5)
     bf8:	00180813          	addi	a6,a6,1
     bfc:	00278793          	addi	a5,a5,2
     c00:	00c888b3          	add	a7,a7,a2
     c04:	ff179f23          	sh	a7,-2(a5)
     c08:	ff0516e3          	bne	a0,a6,bf4 <.L29>
     c0c:	00170713          	addi	a4,a4,1
     c10:	00a686b3          	add	a3,a3,a0
     c14:	fcdff06f          	j	be0 <.L28>

00000c18 <matrix_mul_vect>:
     c18:	00151e93          	slli	t4,a0,0x1
     c1c:	00000813          	li	a6,0
     c20:	00000713          	li	a4,0

00000c24 <.L33>:
     c24:	00a71463          	bne	a4,a0,c2c <.L35>
     c28:	00008067          	ret

00000c2c <.L35>:
     c2c:	00181e13          	slli	t3,a6,0x1
     c30:	01c60e33          	add	t3,a2,t3
     c34:	00000793          	li	a5,0
     c38:	00000893          	li	a7,0

00000c3c <.L34>:
     c3c:	00fe0333          	add	t1,t3,a5
     c40:	00f68f33          	add	t5,a3,a5
     c44:	00031303          	lh	t1,0(t1)
     c48:	000f1f03          	lh	t5,0(t5)
     c4c:	00278793          	addi	a5,a5,2
     c50:	03e30333          	mul	t1,t1,t5
     c54:	006888b3          	add	a7,a7,t1
     c58:	fefe92e3          	bne	t4,a5,c3c <.L34>
     c5c:	00271793          	slli	a5,a4,0x2
     c60:	00f587b3          	add	a5,a1,a5
     c64:	0117a023          	sw	a7,0(a5)
     c68:	00170713          	addi	a4,a4,1
     c6c:	00a80833          	add	a6,a6,a0
     c70:	fb5ff06f          	j	c24 <.L33>

00000c74 <matrix_mul_matrix>:
     c74:	00151393          	slli	t2,a0,0x1
     c78:	00000813          	li	a6,0
     c7c:	00000e13          	li	t3,0

00000c80 <.L48>:
     c80:	08ae1863          	bne	t3,a0,d10 <.L51>
     c84:	00008067          	ret

00000c88 <.L42>:
     c88:	00281793          	slli	a5,a6,0x2
     c8c:	00f587b3          	add	a5,a1,a5
     c90:	0007a023          	sw	zero,0(a5)
     c94:	06050263          	beqz	a0,cf8 <.L39>

00000c98 <.L49>:
     c98:	00181e93          	slli	t4,a6,0x1
     c9c:	01d60eb3          	add	t4,a2,t4
     ca0:	00000893          	li	a7,0

00000ca4 <.L40>:
     ca4:	00189713          	slli	a4,a7,0x1
     ca8:	00e68733          	add	a4,a3,a4
     cac:	000e8f93          	mv	t6,t4
     cb0:	00000f13          	li	t5,0
     cb4:	00000313          	li	t1,0

00000cb8 <.L41>:
     cb8:	000f9283          	lh	t0,0(t6)
     cbc:	00071403          	lh	s0,0(a4)
     cc0:	002f8f93          	addi	t6,t6,2
     cc4:	00770733          	add	a4,a4,t2
     cc8:	028282b3          	mul	t0,t0,s0
     ccc:	005f0f33          	add	t5,t5,t0
     cd0:	00030293          	mv	t0,t1
     cd4:	00130313          	addi	t1,t1,1
     cd8:	fe6510e3          	bne	a0,t1,cb8 <.L41>
     cdc:	01e7a023          	sw	t5,0(a5)
     ce0:	00188713          	addi	a4,a7,1
     ce4:	00478793          	addi	a5,a5,4
     ce8:	01128863          	beq	t0,a7,cf8 <.L39>
     cec:	0007a023          	sw	zero,0(a5)
     cf0:	00070893          	mv	a7,a4
     cf4:	fb1ff06f          	j	ca4 <.L40>

00000cf8 <.L39>:
     cf8:	001e0e13          	addi	t3,t3,1
     cfc:	00a80833          	add	a6,a6,a0
     d00:	f8ae14e3          	bne	t3,a0,c88 <.L42>
     d04:	00c12403          	lw	s0,12(sp)
     d08:	01010113          	addi	sp,sp,16
     d0c:	00008067          	ret

00000d10 <.L51>:
     d10:	00281793          	slli	a5,a6,0x2
     d14:	00f587b3          	add	a5,a1,a5
     d18:	0007a023          	sw	zero,0(a5)
     d1c:	00051863          	bnez	a0,d2c <.L52>
     d20:	001e0e13          	addi	t3,t3,1
     d24:	00a80833          	add	a6,a6,a0
     d28:	f59ff06f          	j	c80 <.L48>

00000d2c <.L52>:
     d2c:	ff010113          	addi	sp,sp,-16
     d30:	00812623          	sw	s0,12(sp)
     d34:	f65ff06f          	j	c98 <.L49>

00000d38 <matrix_mul_matrix_bitextract>:
     d38:	ff010113          	addi	sp,sp,-16
     d3c:	00812623          	sw	s0,12(sp)
     d40:	00000313          	li	t1,0
     d44:	00151413          	slli	s0,a0,0x1
     d48:	00000f13          	li	t5,0

00000d4c <.L54>:
     d4c:	00af1863          	bne	t5,a0,d5c <.L58>
     d50:	00c12403          	lw	s0,12(sp)
     d54:	01010113          	addi	sp,sp,16
     d58:	00008067          	ret

00000d5c <.L58>:
     d5c:	00231713          	slli	a4,t1,0x2
     d60:	00e58733          	add	a4,a1,a4
     d64:	00072023          	sw	zero,0(a4)
     d68:	06050c63          	beqz	a0,de0 <.L55>
     d6c:	00131f93          	slli	t6,t1,0x1
     d70:	01f60fb3          	add	t6,a2,t6
     d74:	00000e13          	li	t3,0

00000d78 <.L56>:
     d78:	001e1813          	slli	a6,t3,0x1
     d7c:	01068833          	add	a6,a3,a6
     d80:	000f8393          	mv	t2,t6
     d84:	00000293          	li	t0,0
     d88:	00000e93          	li	t4,0

00000d8c <.L57>:
     d8c:	00081883          	lh	a7,0(a6)
     d90:	00039783          	lh	a5,0(t2)
     d94:	00880833          	add	a6,a6,s0
     d98:	00238393          	addi	t2,t2,2
     d9c:	031787b3          	mul	a5,a5,a7
     da0:	4027d893          	srai	a7,a5,0x2
     da4:	4057d793          	srai	a5,a5,0x5
     da8:	00f8f893          	andi	a7,a7,15
     dac:	07f7f793          	andi	a5,a5,127
     db0:	02f887b3          	mul	a5,a7,a5
     db4:	000e8893          	mv	a7,t4
     db8:	001e8e93          	addi	t4,t4,1
     dbc:	00f282b3          	add	t0,t0,a5
     dc0:	fdd516e3          	bne	a0,t4,d8c <.L57>
     dc4:	00572023          	sw	t0,0(a4)
     dc8:	001e0793          	addi	a5,t3,1
     dcc:	00470713          	addi	a4,a4,4
     dd0:	01c88863          	beq	a7,t3,de0 <.L55>
     dd4:	00072023          	sw	zero,0(a4)
     dd8:	00078e13          	mv	t3,a5
     ddc:	f9dff06f          	j	d78 <.L56>

00000de0 <.L55>:
     de0:	001f0f13          	addi	t5,t5,1
     de4:	00a30333          	add	t1,t1,a0
     de8:	f65ff06f          	j	d4c <.L54>

00000dec <matrix_test>:
     dec:	fe010113          	addi	sp,sp,-32
     df0:	01212823          	sw	s2,16(sp)
     df4:	00060913          	mv	s2,a2
     df8:	00912a23          	sw	s1,20(sp)
     dfc:	00070613          	mv	a2,a4
     e00:	01412423          	sw	s4,8(sp)
     e04:	00058493          	mv	s1,a1
     e08:	fffffa37          	lui	s4,0xfffff
     e0c:	00090593          	mv	a1,s2
     e10:	00112e23          	sw	ra,28(sp)
     e14:	01476a33          	or	s4,a4,s4
     e18:	00812c23          	sw	s0,24(sp)
     e1c:	01312623          	sw	s3,12(sp)
     e20:	01512223          	sw	s5,4(sp)
     e24:	00070993          	mv	s3,a4
     e28:	01612023          	sw	s6,0(sp)
     e2c:	00050413          	mv	s0,a0
     e30:	00068a93          	mv	s5,a3
     e34:	da5ff0ef          	jal	ra,bd8 <matrix_add_const>
     e38:	00098693          	mv	a3,s3
     e3c:	00090613          	mv	a2,s2
     e40:	00048593          	mv	a1,s1
     e44:	00040513          	mv	a0,s0
     e48:	d45ff0ef          	jal	ra,b8c <matrix_mul_const>
     e4c:	000a0613          	mv	a2,s4
     e50:	00048593          	mv	a1,s1
     e54:	00040513          	mv	a0,s0
     e58:	cb5ff0ef          	jal	ra,b0c <matrix_sum>
     e5c:	00000593          	li	a1,0
     e60:	7b4000ef          	jal	ra,1614 <crc16>
     e64:	000a8693          	mv	a3,s5
     e68:	00050b13          	mv	s6,a0
     e6c:	00090613          	mv	a2,s2
     e70:	00048593          	mv	a1,s1
     e74:	00040513          	mv	a0,s0
     e78:	da1ff0ef          	jal	ra,c18 <matrix_mul_vect>
     e7c:	000a0613          	mv	a2,s4
     e80:	00048593          	mv	a1,s1
     e84:	00040513          	mv	a0,s0
     e88:	c85ff0ef          	jal	ra,b0c <matrix_sum>
     e8c:	000b0593          	mv	a1,s6
     e90:	784000ef          	jal	ra,1614 <crc16>
     e94:	000a8693          	mv	a3,s5
     e98:	00050b13          	mv	s6,a0
     e9c:	00090613          	mv	a2,s2
     ea0:	00048593          	mv	a1,s1
     ea4:	00040513          	mv	a0,s0
     ea8:	dcdff0ef          	jal	ra,c74 <matrix_mul_matrix>
     eac:	000a0613          	mv	a2,s4
     eb0:	00048593          	mv	a1,s1
     eb4:	00040513          	mv	a0,s0
     eb8:	c55ff0ef          	jal	ra,b0c <matrix_sum>
     ebc:	000b0593          	mv	a1,s6
     ec0:	754000ef          	jal	ra,1614 <crc16>
     ec4:	000a8693          	mv	a3,s5
     ec8:	00050b13          	mv	s6,a0
     ecc:	00090613          	mv	a2,s2
     ed0:	00048593          	mv	a1,s1
     ed4:	00040513          	mv	a0,s0
     ed8:	e61ff0ef          	jal	ra,d38 <matrix_mul_matrix_bitextract>
     edc:	000a0613          	mv	a2,s4
     ee0:	00048593          	mv	a1,s1
     ee4:	00040513          	mv	a0,s0
     ee8:	c25ff0ef          	jal	ra,b0c <matrix_sum>
     eec:	000b0593          	mv	a1,s6
     ef0:	724000ef          	jal	ra,1614 <crc16>
     ef4:	41300633          	neg	a2,s3
     ef8:	01061613          	slli	a2,a2,0x10
     efc:	00050493          	mv	s1,a0
     f00:	00090593          	mv	a1,s2
     f04:	00040513          	mv	a0,s0
     f08:	41065613          	srai	a2,a2,0x10
     f0c:	ccdff0ef          	jal	ra,bd8 <matrix_add_const>
     f10:	01c12083          	lw	ra,28(sp)
     f14:	01812403          	lw	s0,24(sp)
     f18:	01049513          	slli	a0,s1,0x10
     f1c:	01012903          	lw	s2,16(sp)
     f20:	01412483          	lw	s1,20(sp)
     f24:	00c12983          	lw	s3,12(sp)
     f28:	00812a03          	lw	s4,8(sp)
     f2c:	00412a83          	lw	s5,4(sp)
     f30:	00012b03          	lw	s6,0(sp)
     f34:	41055513          	srai	a0,a0,0x10
     f38:	02010113          	addi	sp,sp,32
     f3c:	00008067          	ret

00000f40 <core_bench_matrix>:
     f40:	ff010113          	addi	sp,sp,-16
     f44:	00812423          	sw	s0,8(sp)
     f48:	00852683          	lw	a3,8(a0)
     f4c:	00060413          	mv	s0,a2
     f50:	00058713          	mv	a4,a1
     f54:	00452603          	lw	a2,4(a0)
     f58:	00c52583          	lw	a1,12(a0)
     f5c:	00052503          	lw	a0,0(a0)
     f60:	00112623          	sw	ra,12(sp)
     f64:	e89ff0ef          	jal	ra,dec <matrix_test>
     f68:	00040593          	mv	a1,s0
     f6c:	00812403          	lw	s0,8(sp)
     f70:	00c12083          	lw	ra,12(sp)
     f74:	01010113          	addi	sp,sp,16
     f78:	69c0006f          	j	1614 <crc16>

00000f7c <core_init_state>:
     f7c:	00158713          	addi	a4,a1,1
     f80:	ff010113          	addi	sp,sp,-16
     f84:	01071713          	slli	a4,a4,0x10
     f88:	00812623          	sw	s0,12(sp)
     f8c:	00060e13          	mv	t3,a2
     f90:	00912423          	sw	s1,8(sp)
     f94:	fff50f13          	addi	t5,a0,-1
     f98:	01075713          	srli	a4,a4,0x10
     f9c:	00000693          	li	a3,0
     fa0:	00000793          	li	a5,0
     fa4:	00000313          	li	t1,0
     fa8:	02c00f93          	li	t6,44
     fac:	00700293          	li	t0,7
     fb0:	0000d617          	auipc	a2,0xd
     fb4:	ce460613          	addi	a2,a2,-796 # dc94 <intpat>
     fb8:	00400393          	li	t2,4
     fbc:	00100413          	li	s0,1

00000fc0 <.L2>:
     fc0:	00f30833          	add	a6,t1,a5
     fc4:	00180e93          	addi	t4,a6,1
     fc8:	03eee463          	bltu	t4,t5,ff0 <.L9>
     fcc:	00000613          	li	a2,0
     fd0:	00656463          	bltu	a0,t1,fd8 <.L11>
     fd4:	40650633          	sub	a2,a0,t1

00000fd8 <.L11>:
     fd8:	00c12403          	lw	s0,12(sp)
     fdc:	00812483          	lw	s1,8(sp)
     fe0:	00000593          	li	a1,0
     fe4:	006e0533          	add	a0,t3,t1
     fe8:	01010113          	addi	sp,sp,16
     fec:	0450206f          	j	3830 <__GI_memset>

00000ff0 <.L9>:
     ff0:	02078863          	beqz	a5,1020 <.L3>
     ff4:	00000593          	li	a1,0

00000ff8 <.L4>:
     ff8:	00b688b3          	add	a7,a3,a1
     ffc:	0008c483          	lbu	s1,0(a7)
    1000:	00b308b3          	add	a7,t1,a1
    1004:	011e08b3          	add	a7,t3,a7
    1008:	00988023          	sb	s1,0(a7)
    100c:	00158593          	addi	a1,a1,1
    1010:	feb794e3          	bne	a5,a1,ff8 <.L4>
    1014:	010e0833          	add	a6,t3,a6
    1018:	01f80023          	sb	t6,0(a6)
    101c:	000e8313          	mv	t1,t4

00001020 <.L3>:
    1020:	00175793          	srli	a5,a4,0x1
    1024:	00777693          	andi	a3,a4,7
    1028:	00c7f793          	andi	a5,a5,12
    102c:	04568663          	beq	a3,t0,1078 <.L5>
    1030:	02d3ee63          	bltu	t2,a3,106c <.L6>
    1034:	ffd68693          	addi	a3,a3,-3
    1038:	01069693          	slli	a3,a3,0x10
    103c:	0106d693          	srli	a3,a3,0x10
    1040:	00f607b3          	add	a5,a2,a5
    1044:	00d47e63          	bgeu	s0,a3,1060 <.L7>
    1048:	0007a683          	lw	a3,0(a5)
    104c:	00400793          	li	a5,4

00001050 <.L8>:
    1050:	00170713          	addi	a4,a4,1
    1054:	01071713          	slli	a4,a4,0x10
    1058:	01075713          	srli	a4,a4,0x10
    105c:	f65ff06f          	j	fc0 <.L2>

00001060 <.L7>:
    1060:	0107a683          	lw	a3,16(a5)

00001064 <.L17>:
    1064:	00800793          	li	a5,8
    1068:	fe9ff06f          	j	1050 <.L8>

0000106c <.L6>:
    106c:	00f607b3          	add	a5,a2,a5
    1070:	0207a683          	lw	a3,32(a5)
    1074:	ff1ff06f          	j	1064 <.L17>

00001078 <.L5>:
    1078:	00f607b3          	add	a5,a2,a5
    107c:	0307a683          	lw	a3,48(a5)
    1080:	fe5ff06f          	j	1064 <.L17>

00001084 <core_state_transition>:
    1084:	00052783          	lw	a5,0(a0)
    1088:	00050613          	mv	a2,a0
    108c:	00000513          	li	a0,0
    1090:	0007c683          	lbu	a3,0(a5)
    1094:	20068663          	beqz	a3,12a0 <.L20>
    1098:	02c00813          	li	a6,44
    109c:	00000513          	li	a0,0
    10a0:	1f068e63          	beq	a3,a6,129c <.L21>
    10a4:	fd068513          	addi	a0,a3,-48
    10a8:	0ff57513          	zext.b	a0,a0
    10ac:	00900893          	li	a7,9
    10b0:	00178713          	addi	a4,a5,1
    10b4:	0005a783          	lw	a5,0(a1)
    10b8:	02a8ec63          	bltu	a7,a0,10f0 <.L26>
    10bc:	00178793          	addi	a5,a5,1
    10c0:	00f5a023          	sw	a5,0(a1)
    10c4:	00070793          	mv	a5,a4
    10c8:	00074703          	lbu	a4,0(a4)
    10cc:	00400513          	li	a0,4
    10d0:	1c070863          	beqz	a4,12a0 <.L20>
    10d4:	13071863          	bne	a4,a6,1204 <.L27>

000010d8 <.L63>:
    10d8:	00400513          	li	a0,4
    10dc:	1c00006f          	j	129c <.L21>

000010e0 <.L49>:
    10e0:	02c00513          	li	a0,44
    10e4:	1ea71c63          	bne	a4,a0,12dc <.L65>
    10e8:	00700513          	li	a0,7
    10ec:	1b00006f          	j	129c <.L21>

000010f0 <.L26>:
    10f0:	02d00513          	li	a0,45
    10f4:	02a69463          	bne	a3,a0,111c <.L28>

000010f8 <.L73>:
    10f8:	00178793          	addi	a5,a5,1
    10fc:	00f5a023          	sw	a5,0(a1)
    1100:	00074683          	lbu	a3,0(a4)
    1104:	00070793          	mv	a5,a4
    1108:	00200513          	li	a0,2
    110c:	18068a63          	beqz	a3,12a0 <.L20>
    1110:	07069063          	bne	a3,a6,1170 <.L29>
    1114:	00200513          	li	a0,2
    1118:	1840006f          	j	129c <.L21>

0000111c <.L28>:
    111c:	02e00513          	li	a0,46
    1120:	02a69463          	bne	a3,a0,1148 <.L30>
    1124:	00178793          	addi	a5,a5,1
    1128:	00f5a023          	sw	a5,0(a1)
    112c:	00074683          	lbu	a3,0(a4)
    1130:	00070793          	mv	a5,a4
    1134:	00500513          	li	a0,5
    1138:	16068463          	beqz	a3,12a0 <.L20>
    113c:	07069863          	bne	a3,a6,11ac <.L68>

00001140 <.L59>:
    1140:	00500513          	li	a0,5
    1144:	1580006f          	j	129c <.L21>

00001148 <.L30>:
    1148:	02b00513          	li	a0,43
    114c:	faa686e3          	beq	a3,a0,10f8 <.L73>
    1150:	0045a683          	lw	a3,4(a1)
    1154:	00178793          	addi	a5,a5,1
    1158:	00f5a023          	sw	a5,0(a1)
    115c:	00168693          	addi	a3,a3,1
    1160:	00d5a223          	sw	a3,4(a1)
    1164:	00070793          	mv	a5,a4

00001168 <.L69>:
    1168:	00100513          	li	a0,1
    116c:	1340006f          	j	12a0 <.L20>

00001170 <.L29>:
    1170:	0085a503          	lw	a0,8(a1)
    1174:	fd068813          	addi	a6,a3,-48
    1178:	0ff87813          	zext.b	a6,a6
    117c:	00900893          	li	a7,9
    1180:	00150513          	addi	a0,a0,1
    1184:	0708f263          	bgeu	a7,a6,11e8 <.L32>
    1188:	02e00813          	li	a6,46
    118c:	09069a63          	bne	a3,a6,1220 <.L66>
    1190:	00a5a423          	sw	a0,8(a1)

00001194 <.L36>:
    1194:	00174683          	lbu	a3,1(a4)
    1198:	00178793          	addi	a5,a5,1
    119c:	00500513          	li	a0,5
    11a0:	10068063          	beqz	a3,12a0 <.L20>
    11a4:	02c00713          	li	a4,44
    11a8:	f8e68ce3          	beq	a3,a4,1140 <.L59>

000011ac <.L68>:
    11ac:	0df6f513          	andi	a0,a3,223
    11b0:	04500813          	li	a6,69
    11b4:	00078713          	mv	a4,a5
    11b8:	09051a63          	bne	a0,a6,124c <.L40>
    11bc:	0145a683          	lw	a3,20(a1)
    11c0:	00178793          	addi	a5,a5,1
    11c4:	00300513          	li	a0,3
    11c8:	00168693          	addi	a3,a3,1
    11cc:	00d5aa23          	sw	a3,20(a1)
    11d0:	00174683          	lbu	a3,1(a4)
    11d4:	0c068663          	beqz	a3,12a0 <.L20>
    11d8:	02c00813          	li	a6,44
    11dc:	09069863          	bne	a3,a6,126c <.L67>
    11e0:	00300513          	li	a0,3
    11e4:	0b80006f          	j	129c <.L21>

000011e8 <.L32>:
    11e8:	00a5a423          	sw	a0,8(a1)

000011ec <.L39>:
    11ec:	0017c703          	lbu	a4,1(a5)
    11f0:	00178793          	addi	a5,a5,1
    11f4:	00400513          	li	a0,4
    11f8:	0a070463          	beqz	a4,12a0 <.L20>
    11fc:	02c00693          	li	a3,44
    1200:	ecd70ce3          	beq	a4,a3,10d8 <.L63>

00001204 <.L27>:
    1204:	02e00693          	li	a3,46
    1208:	02d71263          	bne	a4,a3,122c <.L38>
    120c:	0105a703          	lw	a4,16(a1)
    1210:	00170713          	addi	a4,a4,1
    1214:	00e5a823          	sw	a4,16(a1)
    1218:	00078713          	mv	a4,a5
    121c:	f79ff06f          	j	1194 <.L36>

00001220 <.L66>:
    1220:	00a5a423          	sw	a0,8(a1)

00001224 <.L37>:
    1224:	00178793          	addi	a5,a5,1
    1228:	f41ff06f          	j	1168 <.L69>

0000122c <.L38>:
    122c:	fd070713          	addi	a4,a4,-48
    1230:	0ff77713          	zext.b	a4,a4
    1234:	00900693          	li	a3,9
    1238:	fae6fae3          	bgeu	a3,a4,11ec <.L39>
    123c:	0105a703          	lw	a4,16(a1)
    1240:	00170713          	addi	a4,a4,1
    1244:	00e5a823          	sw	a4,16(a1)
    1248:	fddff06f          	j	1224 <.L37>

0000124c <.L40>:
    124c:	fd068693          	addi	a3,a3,-48
    1250:	0ff6f693          	zext.b	a3,a3
    1254:	00900513          	li	a0,9
    1258:	f2d57ee3          	bgeu	a0,a3,1194 <.L36>
    125c:	0145a703          	lw	a4,20(a1)
    1260:	00170713          	addi	a4,a4,1
    1264:	00e5aa23          	sw	a4,20(a1)
    1268:	fbdff06f          	j	1224 <.L37>

0000126c <.L67>:
    126c:	00c5a503          	lw	a0,12(a1)
    1270:	fd568693          	addi	a3,a3,-43
    1274:	0fd6f693          	andi	a3,a3,253
    1278:	00150513          	addi	a0,a0,1
    127c:	00a5a623          	sw	a0,12(a1)
    1280:	fa0692e3          	bnez	a3,1224 <.L37>
    1284:	00270793          	addi	a5,a4,2
    1288:	00274703          	lbu	a4,2(a4)
    128c:	00600513          	li	a0,6
    1290:	00070863          	beqz	a4,12a0 <.L20>
    1294:	01071a63          	bne	a4,a6,12a8 <.L64>
    1298:	00600513          	li	a0,6

0000129c <.L21>:
    129c:	00178793          	addi	a5,a5,1

000012a0 <.L20>:
    12a0:	00f62023          	sw	a5,0(a2)
    12a4:	00008067          	ret

000012a8 <.L64>:
    12a8:	0185a683          	lw	a3,24(a1)
    12ac:	fd070713          	addi	a4,a4,-48
    12b0:	0ff77713          	zext.b	a4,a4
    12b4:	00168693          	addi	a3,a3,1
    12b8:	00900513          	li	a0,9
    12bc:	00d5ac23          	sw	a3,24(a1)
    12c0:	f6e562e3          	bltu	a0,a4,1224 <.L37>
    12c4:	00900693          	li	a3,9

000012c8 <.L47>:
    12c8:	0017c703          	lbu	a4,1(a5)
    12cc:	00178793          	addi	a5,a5,1
    12d0:	e00718e3          	bnez	a4,10e0 <.L49>
    12d4:	00700513          	li	a0,7
    12d8:	fc9ff06f          	j	12a0 <.L20>

000012dc <.L65>:
    12dc:	fd070713          	addi	a4,a4,-48
    12e0:	0ff77713          	zext.b	a4,a4
    12e4:	fee6f2e3          	bgeu	a3,a4,12c8 <.L47>
    12e8:	0045a703          	lw	a4,4(a1)
    12ec:	00170713          	addi	a4,a4,1
    12f0:	00e5a223          	sw	a4,4(a1)
    12f4:	f31ff06f          	j	1224 <.L37>

000012f8 <core_bench_state>:
    12f8:	f8010113          	addi	sp,sp,-128
    12fc:	07312623          	sw	s3,108(sp)
    1300:	03010993          	addi	s3,sp,48
    1304:	06812c23          	sw	s0,120(sp)
    1308:	07212823          	sw	s2,112(sp)
    130c:	05812c23          	sw	s8,88(sp)
    1310:	00b12623          	sw	a1,12(sp)
    1314:	00050913          	mv	s2,a0
    1318:	00058413          	mv	s0,a1
    131c:	00060c13          	mv	s8,a2
    1320:	00000593          	li	a1,0
    1324:	02000613          	li	a2,32
    1328:	00098513          	mv	a0,s3
    132c:	06112e23          	sw	ra,124(sp)
    1330:	06912a23          	sw	s1,116(sp)
    1334:	07412423          	sw	s4,104(sp)
    1338:	07512223          	sw	s5,100(sp)
    133c:	07612023          	sw	s6,96(sp)
    1340:	05712e23          	sw	s7,92(sp)
    1344:	00068a93          	mv	s5,a3
    1348:	00070a13          	mv	s4,a4
    134c:	00078493          	mv	s1,a5
    1350:	01010b13          	addi	s6,sp,16
    1354:	4dc020ef          	jal	ra,3830 <__GI_memset>
    1358:	02000613          	li	a2,32
    135c:	00000593          	li	a1,0
    1360:	000b0513          	mv	a0,s6
    1364:	4cc020ef          	jal	ra,3830 <__GI_memset>
    1368:	00c10b93          	addi	s7,sp,12

0000136c <.L75>:
    136c:	00c12783          	lw	a5,12(sp)
    1370:	0007c783          	lbu	a5,0(a5)
    1374:	08079c63          	bnez	a5,140c <.L76>
    1378:	00040b93          	mv	s7,s0
    137c:	00040793          	mv	a5,s0
    1380:	01240933          	add	s2,s0,s2
    1384:	02c00693          	li	a3,44

00001388 <.L77>:
    1388:	0b27e663          	bltu	a5,s2,1434 <.L79>
    138c:	00812623          	sw	s0,12(sp)
    1390:	00c10413          	addi	s0,sp,12

00001394 <.L80>:
    1394:	00c12783          	lw	a5,12(sp)
    1398:	0007c783          	lbu	a5,0(a5)
    139c:	0a079863          	bnez	a5,144c <.L81>
    13a0:	02c00713          	li	a4,44

000013a4 <.L82>:
    13a4:	0d2be863          	bltu	s7,s2,1474 <.L84>
    13a8:	00000413          	li	s0,0
    13ac:	02000913          	li	s2,32

000013b0 <.L85>:
    13b0:	008b07b3          	add	a5,s6,s0
    13b4:	0007a503          	lw	a0,0(a5)
    13b8:	00048593          	mv	a1,s1
    13bc:	224000ef          	jal	ra,15e0 <crcu32>
    13c0:	008987b3          	add	a5,s3,s0
    13c4:	00050593          	mv	a1,a0
    13c8:	0007a503          	lw	a0,0(a5)
    13cc:	00440413          	addi	s0,s0,4
    13d0:	210000ef          	jal	ra,15e0 <crcu32>
    13d4:	00050493          	mv	s1,a0
    13d8:	fd241ce3          	bne	s0,s2,13b0 <.L85>
    13dc:	07c12083          	lw	ra,124(sp)
    13e0:	07812403          	lw	s0,120(sp)
    13e4:	07412483          	lw	s1,116(sp)
    13e8:	07012903          	lw	s2,112(sp)
    13ec:	06c12983          	lw	s3,108(sp)
    13f0:	06812a03          	lw	s4,104(sp)
    13f4:	06412a83          	lw	s5,100(sp)
    13f8:	06012b03          	lw	s6,96(sp)
    13fc:	05c12b83          	lw	s7,92(sp)
    1400:	05812c03          	lw	s8,88(sp)
    1404:	08010113          	addi	sp,sp,128
    1408:	00008067          	ret

0000140c <.L76>:
    140c:	00098593          	mv	a1,s3
    1410:	000b8513          	mv	a0,s7
    1414:	c71ff0ef          	jal	ra,1084 <core_state_transition>
    1418:	00251513          	slli	a0,a0,0x2
    141c:	05050793          	addi	a5,a0,80
    1420:	00278533          	add	a0,a5,sp
    1424:	fc052783          	lw	a5,-64(a0)
    1428:	00178793          	addi	a5,a5,1
    142c:	fcf52023          	sw	a5,-64(a0)
    1430:	f3dff06f          	j	136c <.L75>

00001434 <.L79>:
    1434:	0007c703          	lbu	a4,0(a5)
    1438:	00d70663          	beq	a4,a3,1444 <.L78>
    143c:	01874733          	xor	a4,a4,s8
    1440:	00e78023          	sb	a4,0(a5)

00001444 <.L78>:
    1444:	014787b3          	add	a5,a5,s4
    1448:	f41ff06f          	j	1388 <.L77>

0000144c <.L81>:
    144c:	00098593          	mv	a1,s3
    1450:	00040513          	mv	a0,s0
    1454:	c31ff0ef          	jal	ra,1084 <core_state_transition>
    1458:	00251513          	slli	a0,a0,0x2
    145c:	05050793          	addi	a5,a0,80
    1460:	00278533          	add	a0,a5,sp
    1464:	fc052783          	lw	a5,-64(a0)
    1468:	00178793          	addi	a5,a5,1
    146c:	fcf52023          	sw	a5,-64(a0)
    1470:	f25ff06f          	j	1394 <.L80>

00001474 <.L84>:
    1474:	000bc783          	lbu	a5,0(s7)
    1478:	00e78663          	beq	a5,a4,1484 <.L83>
    147c:	0157c7b3          	xor	a5,a5,s5
    1480:	00fb8023          	sb	a5,0(s7)

00001484 <.L83>:
    1484:	014b8bb3          	add	s7,s7,s4
    1488:	f1dff06f          	j	13a4 <.L82>

0000148c <parseval>:
    148c:	00054703          	lbu	a4,0(a0)
    1490:	02d00793          	li	a5,45
    1494:	00100613          	li	a2,1
    1498:	00f71663          	bne	a4,a5,14a4 <.L2>
    149c:	00150513          	addi	a0,a0,1
    14a0:	fff00613          	li	a2,-1

000014a4 <.L2>:
    14a4:	00054703          	lbu	a4,0(a0)
    14a8:	03000793          	li	a5,48
    14ac:	02f70863          	beq	a4,a5,14dc <.L3>
    14b0:	00000793          	li	a5,0

000014b4 <.L5>:
    14b4:	00900693          	li	a3,9
    14b8:	00a00813          	li	a6,10

000014bc <.L4>:
    14bc:	00054703          	lbu	a4,0(a0)
    14c0:	fd070713          	addi	a4,a4,-48
    14c4:	0ff77593          	zext.b	a1,a4
    14c8:	04b6e663          	bltu	a3,a1,1514 <.L10>
    14cc:	030787b3          	mul	a5,a5,a6
    14d0:	00150513          	addi	a0,a0,1
    14d4:	00f707b3          	add	a5,a4,a5
    14d8:	fe5ff06f          	j	14bc <.L4>

000014dc <.L3>:
    14dc:	00154683          	lbu	a3,1(a0)
    14e0:	07800713          	li	a4,120
    14e4:	00000793          	li	a5,0
    14e8:	fce696e3          	bne	a3,a4,14b4 <.L5>
    14ec:	00250513          	addi	a0,a0,2
    14f0:	00900813          	li	a6,9
    14f4:	00500593          	li	a1,5

000014f8 <.L6>:
    14f8:	00054683          	lbu	a3,0(a0)
    14fc:	fd068713          	addi	a4,a3,-48
    1500:	0ff77893          	zext.b	a7,a4
    1504:	03187663          	bgeu	a6,a7,1530 <.L7>
    1508:	f9f68713          	addi	a4,a3,-97
    150c:	0ff77713          	zext.b	a4,a4
    1510:	00e5fe63          	bgeu	a1,a4,152c <.L9>

00001514 <.L10>:
    1514:	00054703          	lbu	a4,0(a0)
    1518:	04b00693          	li	a3,75
    151c:	02d71263          	bne	a4,a3,1540 <.L12>
    1520:	00a79793          	slli	a5,a5,0xa

00001524 <.L13>:
    1524:	02c78533          	mul	a0,a5,a2
    1528:	00008067          	ret

0000152c <.L9>:
    152c:	fa968713          	addi	a4,a3,-87

00001530 <.L7>:
    1530:	00479793          	slli	a5,a5,0x4
    1534:	00f707b3          	add	a5,a4,a5
    1538:	00150513          	addi	a0,a0,1
    153c:	fbdff06f          	j	14f8 <.L6>

00001540 <.L12>:
    1540:	04d00693          	li	a3,77
    1544:	fed710e3          	bne	a4,a3,1524 <.L13>
    1548:	01479793          	slli	a5,a5,0x14
    154c:	fd9ff06f          	j	1524 <.L13>

00001550 <get_seed_args>:
    1550:	00b55a63          	bge	a0,a1,1564 <.L17>
    1554:	00251513          	slli	a0,a0,0x2
    1558:	00a60633          	add	a2,a2,a0
    155c:	00062503          	lw	a0,0(a2)
    1560:	f2dff06f          	j	148c <parseval>

00001564 <.L17>:
    1564:	00000513          	li	a0,0
    1568:	00008067          	ret

0000156c <crcu8>:
    156c:	ffffa6b7          	lui	a3,0xffffa
    1570:	00050713          	mv	a4,a0
    1574:	00800793          	li	a5,8
    1578:	00058513          	mv	a0,a1
    157c:	00168693          	addi	a3,a3,1 # ffffa001 <_ebss+0xfffea1b1>

00001580 <.L20>:
    1580:	00a74633          	xor	a2,a4,a0
    1584:	00167613          	andi	a2,a2,1
    1588:	00175713          	srli	a4,a4,0x1
    158c:	00155513          	srli	a0,a0,0x1
    1590:	00060863          	beqz	a2,15a0 <.L19>
    1594:	00d545b3          	xor	a1,a0,a3
    1598:	01059513          	slli	a0,a1,0x10
    159c:	01055513          	srli	a0,a0,0x10

000015a0 <.L19>:
    15a0:	fff78793          	addi	a5,a5,-1
    15a4:	0ff7f793          	zext.b	a5,a5
    15a8:	fc079ce3          	bnez	a5,1580 <.L20>
    15ac:	00008067          	ret

000015b0 <crcu16>:
    15b0:	ff010113          	addi	sp,sp,-16
    15b4:	00812423          	sw	s0,8(sp)
    15b8:	00050413          	mv	s0,a0
    15bc:	0ff57513          	zext.b	a0,a0
    15c0:	00112623          	sw	ra,12(sp)
    15c4:	fa9ff0ef          	jal	ra,156c <crcu8>
    15c8:	00050593          	mv	a1,a0
    15cc:	00845513          	srli	a0,s0,0x8
    15d0:	00812403          	lw	s0,8(sp)
    15d4:	00c12083          	lw	ra,12(sp)
    15d8:	01010113          	addi	sp,sp,16
    15dc:	f91ff06f          	j	156c <crcu8>

000015e0 <crcu32>:
    15e0:	ff010113          	addi	sp,sp,-16
    15e4:	00812423          	sw	s0,8(sp)
    15e8:	00050413          	mv	s0,a0
    15ec:	01051513          	slli	a0,a0,0x10
    15f0:	01055513          	srli	a0,a0,0x10
    15f4:	00112623          	sw	ra,12(sp)
    15f8:	fb9ff0ef          	jal	ra,15b0 <crcu16>
    15fc:	00050593          	mv	a1,a0
    1600:	01045513          	srli	a0,s0,0x10
    1604:	00812403          	lw	s0,8(sp)
    1608:	00c12083          	lw	ra,12(sp)
    160c:	01010113          	addi	sp,sp,16
    1610:	fa1ff06f          	j	15b0 <crcu16>

00001614 <crc16>:
    1614:	01051513          	slli	a0,a0,0x10
    1618:	01055513          	srli	a0,a0,0x10
    161c:	f95ff06f          	j	15b0 <crcu16>

00001620 <check_data_types>:
    1620:	00000513          	li	a0,0
    1624:	00008067          	ret

00001628 <__divdf3>:
#include "soft-fp.h"
#include "double.h"

DFtype
__divdf3 (DFtype a, DFtype b)
{
    1628:	fd010113          	addi	sp,sp,-48
    162c:	01712623          	sw	s7,12(sp)
    1630:	00060b93          	mv	s7,a2

00001634 <.LBB3>:
  FP_DECL_D (B);
  FP_DECL_D (R);
  DFtype r;

  FP_INIT_ROUNDMODE;
  FP_UNPACK_D (A, a);
    1634:	0145d613          	srli	a2,a1,0x14

00001638 <.LBE3>:
{
    1638:	02812423          	sw	s0,40(sp)
    163c:	03212023          	sw	s2,32(sp)
    1640:	01312e23          	sw	s3,28(sp)
    1644:	01612823          	sw	s6,16(sp)

00001648 <.LBB4>:
  FP_UNPACK_D (A, a);
    1648:	00c59413          	slli	s0,a1,0xc

0000164c <.LBE4>:
{
    164c:	02112623          	sw	ra,44(sp)
    1650:	02912223          	sw	s1,36(sp)
    1654:	01412c23          	sw	s4,24(sp)
    1658:	01512a23          	sw	s5,20(sp)

0000165c <.LBB5>:
  FP_UNPACK_D (A, a);
    165c:	7ff67613          	andi	a2,a2,2047

00001660 <.LBE5>:
{
    1660:	00050b13          	mv	s6,a0
    1664:	00068913          	mv	s2,a3

00001668 <.LBB6>:
  FP_UNPACK_D (A, a);
    1668:	00c45413          	srli	s0,s0,0xc

0000166c <.LVL2>:
    166c:	01f5d993          	srli	s3,a1,0x1f

00001670 <.LBE6>:
    1670:	0a060063          	beqz	a2,1710 <.L2>
    1674:	7ff00793          	li	a5,2047
    1678:	10f60063          	beq	a2,a5,1778 <.L3>

0000167c <.LVL4>:
    167c:	01d55693          	srli	a3,a0,0x1d
    1680:	00341413          	slli	s0,s0,0x3

00001684 <.LVL5>:
    1684:	0086e6b3          	or	a3,a3,s0
    1688:	008007b7          	lui	a5,0x800
    168c:	00f6ea33          	or	s4,a3,a5

00001690 <.LVL6>:
    1690:	00351493          	slli	s1,a0,0x3

00001694 <.LVL7>:
    1694:	c0160a93          	addi	s5,a2,-1023

00001698 <.L103>:
    1698:	00000b13          	li	s6,0

0000169c <.L4>:
  FP_UNPACK_D (B, b);
    169c:	01495793          	srli	a5,s2,0x14
    16a0:	00c91413          	slli	s0,s2,0xc
    16a4:	7ff7f793          	andi	a5,a5,2047
    16a8:	00c45413          	srli	s0,s0,0xc

000016ac <.LVL10>:
    16ac:	01f95913          	srli	s2,s2,0x1f

000016b0 <.LBE11>:
    16b0:	10078263          	beqz	a5,17b4 <.L9>
    16b4:	7ff00713          	li	a4,2047
    16b8:	16e78663          	beq	a5,a4,1824 <.L10>

000016bc <.LVL12>:
    16bc:	00341413          	slli	s0,s0,0x3

000016c0 <.LVL13>:
    16c0:	01dbd713          	srli	a4,s7,0x1d
    16c4:	00876733          	or	a4,a4,s0
    16c8:	00800437          	lui	s0,0x800
    16cc:	00876433          	or	s0,a4,s0

000016d0 <.LVL14>:
    16d0:	003b9f13          	slli	t5,s7,0x3

000016d4 <.LVL15>:
    16d4:	c0178693          	addi	a3,a5,-1023 # 7ffc01 <_ebss+0x7efdb1>

000016d8 <.L104>:
    16d8:	00000593          	li	a1,0

000016dc <.L11>:
  FP_DIV_D (R, A, B);
    16dc:	002b1793          	slli	a5,s6,0x2
    16e0:	00b7e7b3          	or	a5,a5,a1
    16e4:	40da8633          	sub	a2,s5,a3
    16e8:	fff78793          	addi	a5,a5,-1
    16ec:	00e00693          	li	a3,14

000016f0 <.LVL18>:
    16f0:	0129c733          	xor	a4,s3,s2

000016f4 <.LVL19>:
    16f4:	18f6ec63          	bltu	a3,a5,188c <.L16>
    16f8:	82418693          	addi	a3,gp,-2012 # bf44 <.L18>
    16fc:	00279793          	slli	a5,a5,0x2
    1700:	00d787b3          	add	a5,a5,a3
    1704:	0007a783          	lw	a5,0(a5)
    1708:	00d787b3          	add	a5,a5,a3
    170c:	00078067          	jr	a5

00001710 <.L2>:
  FP_UNPACK_D (A, a);
    1710:	00a46a33          	or	s4,s0,a0
    1714:	080a0063          	beqz	s4,1794 <.L71>

00001718 <.LBB16>:
    1718:	02040e63          	beqz	s0,1754 <.L5>
    171c:	00040513          	mv	a0,s0

00001720 <.LVL21>:
    1720:	191000ef          	jal	ra,20b0 <__clzsi2>

00001724 <.LVL22>:
    1724:	ff550793          	addi	a5,a0,-11

00001728 <.L6>:
    1728:	01d00693          	li	a3,29
    172c:	ff850713          	addi	a4,a0,-8
    1730:	40f686b3          	sub	a3,a3,a5
    1734:	00e41433          	sll	s0,s0,a4

00001738 <.LVL24>:
    1738:	00db56b3          	srl	a3,s6,a3
    173c:	0086ea33          	or	s4,a3,s0

00001740 <.LVL25>:
    1740:	00eb1433          	sll	s0,s6,a4

00001744 <.L8>:
    1744:	c0d00613          	li	a2,-1011
    1748:	40a60ab3          	sub	s5,a2,a0

0000174c <.LVL27>:
    174c:	00040493          	mv	s1,s0
    1750:	f49ff06f          	j	1698 <.L103>

00001754 <.L5>:
    1754:	15d000ef          	jal	ra,20b0 <__clzsi2>

00001758 <.LVL29>:
    1758:	00050a13          	mv	s4,a0

0000175c <.LVL30>:
    175c:	015a0793          	addi	a5,s4,21 # fffff015 <_ebss+0xfffef1c5>
    1760:	01c00713          	li	a4,28
    1764:	02050513          	addi	a0,a0,32

00001768 <.LVL31>:
    1768:	fcf750e3          	bge	a4,a5,1728 <.L6>
    176c:	ff8a0a13          	addi	s4,s4,-8
    1770:	014b1a33          	sll	s4,s6,s4

00001774 <.LVL32>:
    1774:	fd1ff06f          	j	1744 <.L8>

00001778 <.L3>:
    1778:	00a46a33          	or	s4,s0,a0
    177c:	020a0463          	beqz	s4,17a4 <.L72>
    1780:	00050493          	mv	s1,a0

00001784 <.LBB17>:
    1784:	00040a13          	mv	s4,s0
    1788:	7ff00a93          	li	s5,2047

0000178c <.LBE17>:
    178c:	00300b13          	li	s6,3
    1790:	f0dff06f          	j	169c <.L4>

00001794 <.L71>:
    1794:	00000493          	li	s1,0
    1798:	00000a93          	li	s5,0

0000179c <.LBE18>:
    179c:	00100b13          	li	s6,1
    17a0:	efdff06f          	j	169c <.L4>

000017a4 <.L72>:
    17a4:	00000493          	li	s1,0
    17a8:	7ff00a93          	li	s5,2047

000017ac <.LBE19>:
    17ac:	00200b13          	li	s6,2
    17b0:	eedff06f          	j	169c <.L4>

000017b4 <.L9>:
  FP_UNPACK_D (B, b);
    17b4:	01746f33          	or	t5,s0,s7
    17b8:	080f0263          	beqz	t5,183c <.L73>

000017bc <.LBB20>:
    17bc:	04040063          	beqz	s0,17fc <.L12>
    17c0:	00040513          	mv	a0,s0
    17c4:	0ed000ef          	jal	ra,20b0 <__clzsi2>

000017c8 <.LVL35>:
    17c8:	ff550713          	addi	a4,a0,-11

000017cc <.L13>:
    17cc:	01d00793          	li	a5,29
    17d0:	ff850693          	addi	a3,a0,-8
    17d4:	40e787b3          	sub	a5,a5,a4
    17d8:	00d41433          	sll	s0,s0,a3

000017dc <.LVL37>:
    17dc:	00fbd7b3          	srl	a5,s7,a5
    17e0:	0087e7b3          	or	a5,a5,s0

000017e4 <.LVL38>:
    17e4:	00db9433          	sll	s0,s7,a3

000017e8 <.L15>:
    17e8:	c0d00693          	li	a3,-1011
    17ec:	00040f13          	mv	t5,s0
    17f0:	40a686b3          	sub	a3,a3,a0

000017f4 <.LVL40>:
    17f4:	00078413          	mv	s0,a5

000017f8 <.LVL41>:
    17f8:	ee1ff06f          	j	16d8 <.L104>

000017fc <.L12>:
    17fc:	000b8513          	mv	a0,s7
    1800:	0b1000ef          	jal	ra,20b0 <__clzsi2>

00001804 <.LVL43>:
    1804:	00050793          	mv	a5,a0

00001808 <.LVL44>:
    1808:	01578713          	addi	a4,a5,21
    180c:	01c00693          	li	a3,28
    1810:	02050513          	addi	a0,a0,32

00001814 <.LVL45>:
    1814:	fae6dce3          	bge	a3,a4,17cc <.L13>
    1818:	ff878793          	addi	a5,a5,-8
    181c:	00fb97b3          	sll	a5,s7,a5

00001820 <.LVL46>:
    1820:	fc9ff06f          	j	17e8 <.L15>

00001824 <.L10>:
    1824:	01746f33          	or	t5,s0,s7
    1828:	020f0263          	beqz	t5,184c <.L74>
    182c:	000b8f13          	mv	t5,s7

00001830 <.LBB21>:
    1830:	7ff00693          	li	a3,2047

00001834 <.LBE21>:
    1834:	00300593          	li	a1,3
    1838:	ea5ff06f          	j	16dc <.L11>

0000183c <.L73>:
    183c:	00000413          	li	s0,0

00001840 <.LVL48>:
    1840:	00000693          	li	a3,0

00001844 <.LBE22>:
    1844:	00100593          	li	a1,1
    1848:	e95ff06f          	j	16dc <.L11>

0000184c <.L74>:
    184c:	00000413          	li	s0,0

00001850 <.LVL50>:
    1850:	7ff00693          	li	a3,2047

00001854 <.LBE23>:
    1854:	00200593          	li	a1,2
    1858:	e85ff06f          	j	16dc <.L11>

0000185c <.L19>:
  FP_UNPACK_D (A, a);
    185c:	00098713          	mv	a4,s3

00001860 <.LVL52>:
    1860:	000a0413          	mv	s0,s4

00001864 <.LVL53>:
    1864:	00048f13          	mv	t5,s1

00001868 <.L23>:
  FP_PACK_D (r, R);
    1868:	00200793          	li	a5,2
    186c:	46fb0263          	beq	s6,a5,1cd0 <.L88>
    1870:	00300793          	li	a5,3
    1874:	44fb0463          	beq	s6,a5,1cbc <.L86>
    1878:	00100793          	li	a5,1
    187c:	2cfb1263          	bne	s6,a5,1b40 <.L44>

00001880 <.L90>:
    1880:	00000413          	li	s0,0
    1884:	00000693          	li	a3,0
    1888:	3f80006f          	j	1c80 <.L105>

0000188c <.L16>:
  FP_DIV_D (R, A, B);
    188c:	01446663          	bltu	s0,s4,1898 <.L24>
    1890:	348a1e63          	bne	s4,s0,1bec <.L25>
    1894:	35e4ec63          	bltu	s1,t5,1bec <.L25>

00001898 <.L24>:
    1898:	01fa1693          	slli	a3,s4,0x1f
    189c:	0014d793          	srli	a5,s1,0x1

000018a0 <.LVL58>:
    18a0:	01f49313          	slli	t1,s1,0x1f

000018a4 <.LVL59>:
    18a4:	001a5a13          	srli	s4,s4,0x1

000018a8 <.LVL60>:
    18a8:	00f6e4b3          	or	s1,a3,a5

000018ac <.L26>:
    18ac:	00841413          	slli	s0,s0,0x8

000018b0 <.LBB32>:
    18b0:	01045893          	srli	a7,s0,0x10
    18b4:	031a5eb3          	divu	t4,s4,a7

000018b8 <.LBE32>:
    18b8:	018f5593          	srli	a1,t5,0x18

000018bc <.LVL63>:
    18bc:	0085e5b3          	or	a1,a1,s0

000018c0 <.LBB34>:
    18c0:	01059813          	slli	a6,a1,0x10
    18c4:	01085813          	srli	a6,a6,0x10
    18c8:	0104d793          	srli	a5,s1,0x10

000018cc <.LBE34>:
    18cc:	008f1513          	slli	a0,t5,0x8

000018d0 <.LBB36>:
    18d0:	031a76b3          	remu	a3,s4,a7

000018d4 <.LVL66>:
    18d4:	03d80e33          	mul	t3,a6,t4

000018d8 <.LVL67>:
    18d8:	01069693          	slli	a3,a3,0x10

000018dc <.LVL68>:
    18dc:	00d7e7b3          	or	a5,a5,a3

000018e0 <.LVL69>:
    18e0:	000e8693          	mv	a3,t4
    18e4:	01c7fe63          	bgeu	a5,t3,1900 <.L27>
    18e8:	00f587b3          	add	a5,a1,a5

000018ec <.LVL70>:
    18ec:	fffe8693          	addi	a3,t4,-1

000018f0 <.LVL71>:
    18f0:	00b7e863          	bltu	a5,a1,1900 <.L27>
    18f4:	01c7f663          	bgeu	a5,t3,1900 <.L27>
    18f8:	ffee8693          	addi	a3,t4,-2
    18fc:	00b787b3          	add	a5,a5,a1

00001900 <.L27>:
    1900:	41c787b3          	sub	a5,a5,t3

00001904 <.LVL74>:
    1904:	0317deb3          	divu	t4,a5,a7

00001908 <.LVL75>:
    1908:	01049493          	slli	s1,s1,0x10

0000190c <.LVL76>:
    190c:	0104d493          	srli	s1,s1,0x10
    1910:	0317f7b3          	remu	a5,a5,a7

00001914 <.LVL77>:
    1914:	03d80e33          	mul	t3,a6,t4
    1918:	01079793          	slli	a5,a5,0x10

0000191c <.LVL79>:
    191c:	00f4e4b3          	or	s1,s1,a5

00001920 <.LVL80>:
    1920:	000e8793          	mv	a5,t4
    1924:	01c4fe63          	bgeu	s1,t3,1940 <.L30>
    1928:	009584b3          	add	s1,a1,s1

0000192c <.LVL81>:
    192c:	fffe8793          	addi	a5,t4,-1

00001930 <.LVL82>:
    1930:	00b4e863          	bltu	s1,a1,1940 <.L30>
    1934:	01c4f663          	bgeu	s1,t3,1940 <.L30>
    1938:	ffee8793          	addi	a5,t4,-2
    193c:	00b484b3          	add	s1,s1,a1

00001940 <.L30>:
    1940:	01069693          	slli	a3,a3,0x10

00001944 <.LVL85>:
    1944:	000103b7          	lui	t2,0x10
    1948:	00f6efb3          	or	t6,a3,a5
    194c:	41c484b3          	sub	s1,s1,t3

00001950 <.LBB37>:
    1950:	fff38e13          	addi	t3,t2,-1 # ffff <_ebss+0x1af>

00001954 <.LVL87>:
    1954:	01cff7b3          	and	a5,t6,t3

00001958 <.LVL88>:
    1958:	010fdf13          	srli	t5,t6,0x10

0000195c <.LVL89>:
    195c:	01055e93          	srli	t4,a0,0x10

00001960 <.LVL90>:
    1960:	01c57e33          	and	t3,a0,t3
    1964:	02fe02b3          	mul	t0,t3,a5

00001968 <.LVL91>:
    1968:	03cf0433          	mul	s0,t5,t3

0000196c <.LVL92>:
    196c:	0102d693          	srli	a3,t0,0x10
    1970:	02fe87b3          	mul	a5,t4,a5

00001974 <.LVL93>:
    1974:	008787b3          	add	a5,a5,s0

00001978 <.LVL94>:
    1978:	00f686b3          	add	a3,a3,a5
    197c:	03df0f33          	mul	t5,t5,t4

00001980 <.LVL95>:
    1980:	0086f463          	bgeu	a3,s0,1988 <.L33>
    1984:	007f0f33          	add	t5,t5,t2

00001988 <.L33>:
    1988:	0106d793          	srli	a5,a3,0x10
    198c:	01e787b3          	add	a5,a5,t5

00001990 <.LVL97>:
    1990:	00010f37          	lui	t5,0x10

00001994 <.LVL98>:
    1994:	ffff0f13          	addi	t5,t5,-1 # ffff <_ebss+0x1af>
    1998:	01e6f6b3          	and	a3,a3,t5

0000199c <.LVL99>:
    199c:	01069693          	slli	a3,a3,0x10
    19a0:	01e2f2b3          	and	t0,t0,t5

000019a4 <.LVL100>:
    19a4:	005686b3          	add	a3,a3,t0

000019a8 <.LBE37>:
    19a8:	00f4e863          	bltu	s1,a5,19b8 <.L34>

000019ac <.LBB38>:
    19ac:	000f8413          	mv	s0,t6

000019b0 <.LBE38>:
    19b0:	04f49863          	bne	s1,a5,1a00 <.L35>

000019b4 <.LVL103>:
    19b4:	04d37663          	bgeu	t1,a3,1a00 <.L35>

000019b8 <.L34>:
    19b8:	00a30f33          	add	t5,t1,a0

000019bc <.LVL105>:
    19bc:	006f32b3          	sltu	t0,t5,t1

000019c0 <.LBB39>:
    19c0:	00b283b3          	add	t2,t0,a1

000019c4 <.LVL106>:
    19c4:	007484b3          	add	s1,s1,t2

000019c8 <.LBE39>:
    19c8:	ffff8413          	addi	s0,t6,-1

000019cc <.LBB40>:
    19cc:	000f0313          	mv	t1,t5

000019d0 <.LBE40>:
    19d0:	0095e663          	bltu	a1,s1,19dc <.L38>
    19d4:	02959663          	bne	a1,s1,1a00 <.L35>
    19d8:	02029463          	bnez	t0,1a00 <.L35>

000019dc <.L38>:
    19dc:	00f4e663          	bltu	s1,a5,19e8 <.L39>
    19e0:	02979063          	bne	a5,s1,1a00 <.L35>
    19e4:	00df7e63          	bgeu	t5,a3,1a00 <.L35>

000019e8 <.L39>:
    19e8:	01e50f33          	add	t5,a0,t5

000019ec <.LBB41>:
    19ec:	000f0313          	mv	t1,t5

000019f0 <.LVL110>:
    19f0:	00af3f33          	sltu	t5,t5,a0
    19f4:	00bf0f33          	add	t5,t5,a1

000019f8 <.LBE41>:
    19f8:	ffef8413          	addi	s0,t6,-2

000019fc <.LBB42>:
    19fc:	01e484b3          	add	s1,s1,t5

00001a00 <.L35>:
    1a00:	40d306b3          	sub	a3,t1,a3

00001a04 <.LVL113>:
    1a04:	40f484b3          	sub	s1,s1,a5

00001a08 <.LVL114>:
    1a08:	00d33333          	sltu	t1,t1,a3

00001a0c <.LVL115>:
    1a0c:	406484b3          	sub	s1,s1,t1

00001a10 <.LBE43>:
    1a10:	fff00f13          	li	t5,-1
    1a14:	12958663          	beq	a1,s1,1b40 <.L44>

00001a18 <.LBB44>:
    1a18:	0314dfb3          	divu	t6,s1,a7

00001a1c <.LVL118>:
    1a1c:	0106d793          	srli	a5,a3,0x10

00001a20 <.LVL119>:
    1a20:	0314f4b3          	remu	s1,s1,a7

00001a24 <.LVL120>:
    1a24:	000f8313          	mv	t1,t6
    1a28:	03f80f33          	mul	t5,a6,t6

00001a2c <.LVL121>:
    1a2c:	01049493          	slli	s1,s1,0x10

00001a30 <.LVL122>:
    1a30:	0097e7b3          	or	a5,a5,s1

00001a34 <.LVL123>:
    1a34:	01e7fe63          	bgeu	a5,t5,1a50 <.L45>
    1a38:	00f587b3          	add	a5,a1,a5

00001a3c <.LVL124>:
    1a3c:	ffff8313          	addi	t1,t6,-1

00001a40 <.LVL125>:
    1a40:	00b7e863          	bltu	a5,a1,1a50 <.L45>
    1a44:	01e7f663          	bgeu	a5,t5,1a50 <.L45>
    1a48:	ffef8313          	addi	t1,t6,-2
    1a4c:	00b787b3          	add	a5,a5,a1

00001a50 <.L45>:
    1a50:	41e787b3          	sub	a5,a5,t5

00001a54 <.LVL128>:
    1a54:	0317df33          	divu	t5,a5,a7

00001a58 <.LVL129>:
    1a58:	01069693          	slli	a3,a3,0x10

00001a5c <.LVL130>:
    1a5c:	0106d693          	srli	a3,a3,0x10
    1a60:	0317f7b3          	remu	a5,a5,a7

00001a64 <.LVL131>:
    1a64:	03e80833          	mul	a6,a6,t5

00001a68 <.LVL132>:
    1a68:	01079793          	slli	a5,a5,0x10

00001a6c <.LVL133>:
    1a6c:	00f6e7b3          	or	a5,a3,a5

00001a70 <.LVL134>:
    1a70:	000f0693          	mv	a3,t5
    1a74:	0107fe63          	bgeu	a5,a6,1a90 <.L48>
    1a78:	00f587b3          	add	a5,a1,a5

00001a7c <.LVL135>:
    1a7c:	ffff0693          	addi	a3,t5,-1

00001a80 <.LVL136>:
    1a80:	00b7e863          	bltu	a5,a1,1a90 <.L48>
    1a84:	0107f663          	bgeu	a5,a6,1a90 <.L48>
    1a88:	ffef0693          	addi	a3,t5,-2
    1a8c:	00b787b3          	add	a5,a5,a1

00001a90 <.L48>:
    1a90:	01031313          	slli	t1,t1,0x10

00001a94 <.LVL139>:
    1a94:	00d36333          	or	t1,t1,a3
    1a98:	01031693          	slli	a3,t1,0x10

00001a9c <.LVL140>:
    1a9c:	0106d693          	srli	a3,a3,0x10

00001aa0 <.LBB45>:
    1aa0:	01035893          	srli	a7,t1,0x10

00001aa4 <.LVL141>:
    1aa4:	03c68f33          	mul	t5,a3,t3

00001aa8 <.LBB46>:
    1aa8:	410787b3          	sub	a5,a5,a6

00001aac <.LBB47>:
    1aac:	03c88e33          	mul	t3,a7,t3

00001ab0 <.LVL143>:
    1ab0:	031e88b3          	mul	a7,t4,a7

00001ab4 <.LVL144>:
    1ab4:	02de8eb3          	mul	t4,t4,a3

00001ab8 <.LVL145>:
    1ab8:	010f5693          	srli	a3,t5,0x10
    1abc:	01ce8eb3          	add	t4,t4,t3

00001ac0 <.LVL146>:
    1ac0:	01d686b3          	add	a3,a3,t4

00001ac4 <.LVL147>:
    1ac4:	01c6f663          	bgeu	a3,t3,1ad0 <.L51>
    1ac8:	00010837          	lui	a6,0x10

00001acc <.LVL148>:
    1acc:	010888b3          	add	a7,a7,a6

00001ad0 <.L51>:
    1ad0:	0106d813          	srli	a6,a3,0x10
    1ad4:	01180833          	add	a6,a6,a7

00001ad8 <.LVL150>:
    1ad8:	000108b7          	lui	a7,0x10

00001adc <.LVL151>:
    1adc:	fff88893          	addi	a7,a7,-1 # ffff <_ebss+0x1af>
    1ae0:	0116f6b3          	and	a3,a3,a7

00001ae4 <.LVL152>:
    1ae4:	01069693          	slli	a3,a3,0x10
    1ae8:	011f7f33          	and	t5,t5,a7

00001aec <.LVL153>:
    1aec:	01e686b3          	add	a3,a3,t5

00001af0 <.LBE47>:
    1af0:	0107e863          	bltu	a5,a6,1b00 <.L52>

00001af4 <.LBB48>:
    1af4:	00030f13          	mv	t5,t1

00001af8 <.LBE48>:
    1af8:	05079263          	bne	a5,a6,1b3c <.L53>
    1afc:	04068263          	beqz	a3,1b40 <.L44>

00001b00 <.L52>:
    1b00:	00f587b3          	add	a5,a1,a5

00001b04 <.LVL155>:
    1b04:	fff30f13          	addi	t5,t1,-1

00001b08 <.LBB49>:
    1b08:	00078893          	mv	a7,a5

00001b0c <.LBE49>:
    1b0c:	02b7e463          	bltu	a5,a1,1b34 <.L56>
    1b10:	0107e663          	bltu	a5,a6,1b1c <.L57>
    1b14:	03079463          	bne	a5,a6,1b3c <.L53>
    1b18:	02d57063          	bgeu	a0,a3,1b38 <.L58>

00001b1c <.L57>:
    1b1c:	ffe30f13          	addi	t5,t1,-2

00001b20 <.LBB50>:
    1b20:	00151313          	slli	t1,a0,0x1

00001b24 <.LVL159>:
    1b24:	00a338b3          	sltu	a7,t1,a0
    1b28:	00b888b3          	add	a7,a7,a1
    1b2c:	011788b3          	add	a7,a5,a7

00001b30 <.LVL160>:
    1b30:	00030513          	mv	a0,t1

00001b34 <.L56>:
    1b34:	01089463          	bne	a7,a6,1b3c <.L53>

00001b38 <.L58>:
    1b38:	00a68463          	beq	a3,a0,1b40 <.L44>

00001b3c <.L53>:
    1b3c:	001f6f13          	ori	t5,t5,1

00001b40 <.L44>:
  FP_PACK_D (r, R);
    1b40:	3ff60793          	addi	a5,a2,1023

00001b44 <.LVL165>:
    1b44:	0cf05063          	blez	a5,1c04 <.L59>
    1b48:	007f7693          	andi	a3,t5,7
    1b4c:	02068063          	beqz	a3,1b6c <.L60>
    1b50:	00ff7693          	andi	a3,t5,15
    1b54:	00400593          	li	a1,4
    1b58:	00b68a63          	beq	a3,a1,1b6c <.L60>

00001b5c <.LBB51>:
    1b5c:	004f0693          	addi	a3,t5,4
    1b60:	01e6b5b3          	sltu	a1,a3,t5
    1b64:	00b40433          	add	s0,s0,a1
    1b68:	00068f13          	mv	t5,a3

00001b6c <.L60>:
    1b6c:	010006b7          	lui	a3,0x1000
    1b70:	00d476b3          	and	a3,s0,a3
    1b74:	00068a63          	beqz	a3,1b88 <.L63>
    1b78:	ff0007b7          	lui	a5,0xff000

00001b7c <.LVL167>:
    1b7c:	fff78793          	addi	a5,a5,-1 # feffffff <_ebss+0xfeff01af>
    1b80:	00f47433          	and	s0,s0,a5
    1b84:	40060793          	addi	a5,a2,1024

00001b88 <.L63>:
    1b88:	7fe00693          	li	a3,2046
    1b8c:	14f6c263          	blt	a3,a5,1cd0 <.L88>
    1b90:	01d41693          	slli	a3,s0,0x1d

00001b94 <.LVL170>:
    1b94:	003f5f13          	srli	t5,t5,0x3

00001b98 <.LVL171>:
    1b98:	01e6e6b3          	or	a3,a3,t5

00001b9c <.LVL172>:
    1b9c:	00345413          	srli	s0,s0,0x3

00001ba0 <.L17>:
    1ba0:	00c41413          	slli	s0,s0,0xc

00001ba4 <.LVL174>:
    1ba4:	00c45413          	srli	s0,s0,0xc
    1ba8:	01479793          	slli	a5,a5,0x14

00001bac <.LBE54>:
  FP_HANDLE_EXCEPTIONS;

  return r;
}
    1bac:	02c12083          	lw	ra,44(sp)

00001bb0 <.LBB55>:
  FP_PACK_D (r, R);
    1bb0:	0087e7b3          	or	a5,a5,s0

00001bb4 <.LBE55>:
}
    1bb4:	02812403          	lw	s0,40(sp)

00001bb8 <.LBB56>:
  FP_PACK_D (r, R);
    1bb8:	01f71713          	slli	a4,a4,0x1f

00001bbc <.LVL176>:
    1bbc:	00e7e633          	or	a2,a5,a4

00001bc0 <.LBE56>:
}
    1bc0:	02412483          	lw	s1,36(sp)
    1bc4:	02012903          	lw	s2,32(sp)

00001bc8 <.LVL178>:
    1bc8:	01c12983          	lw	s3,28(sp)

00001bcc <.LVL179>:
    1bcc:	01812a03          	lw	s4,24(sp)
    1bd0:	01412a83          	lw	s5,20(sp)

00001bd4 <.LVL180>:
    1bd4:	01012b03          	lw	s6,16(sp)
    1bd8:	00c12b83          	lw	s7,12(sp)
    1bdc:	00068513          	mv	a0,a3
    1be0:	00060593          	mv	a1,a2
    1be4:	03010113          	addi	sp,sp,48
    1be8:	00008067          	ret

00001bec <.L25>:
  FP_DIV_D (R, A, B);
    1bec:	fff60613          	addi	a2,a2,-1

00001bf0 <.LVL182>:
    1bf0:	00000313          	li	t1,0
    1bf4:	cb9ff06f          	j	18ac <.L26>

00001bf8 <.L20>:
  FP_UNPACK_D (B, b);
    1bf8:	00090713          	mv	a4,s2

00001bfc <.LBE58>:
  FP_DIV_D (R, A, B);
    1bfc:	00058b13          	mv	s6,a1

00001c00 <.LVL185>:
    1c00:	c69ff06f          	j	1868 <.L23>

00001c04 <.L59>:
  FP_PACK_D (r, R);
    1c04:	00100593          	li	a1,1
    1c08:	00078c63          	beqz	a5,1c20 <.L64>
    1c0c:	40f585b3          	sub	a1,a1,a5

00001c10 <.LVL187>:
    1c10:	03800693          	li	a3,56
    1c14:	c6b6c6e3          	blt	a3,a1,1880 <.L90>
    1c18:	01f00693          	li	a3,31
    1c1c:	06b6c663          	blt	a3,a1,1c88 <.L65>

00001c20 <.L64>:
    1c20:	41e60613          	addi	a2,a2,1054
    1c24:	00bf57b3          	srl	a5,t5,a1
    1c28:	00cf1f33          	sll	t5,t5,a2
    1c2c:	01e03f33          	snez	t5,t5
    1c30:	00c41633          	sll	a2,s0,a2
    1c34:	00cf6f33          	or	t5,t5,a2
    1c38:	01e7e7b3          	or	a5,a5,t5

00001c3c <.LVL189>:
    1c3c:	00b45433          	srl	s0,s0,a1

00001c40 <.L66>:
    1c40:	0077f693          	andi	a3,a5,7
    1c44:	02068063          	beqz	a3,1c64 <.L68>
    1c48:	00f7f693          	andi	a3,a5,15
    1c4c:	00400613          	li	a2,4
    1c50:	00c68a63          	beq	a3,a2,1c64 <.L68>

00001c54 <.LBB27>:
    1c54:	00478693          	addi	a3,a5,4
    1c58:	00f6b633          	sltu	a2,a3,a5
    1c5c:	00c40433          	add	s0,s0,a2

00001c60 <.LVL191>:
    1c60:	00068793          	mv	a5,a3

00001c64 <.L68>:
    1c64:	008006b7          	lui	a3,0x800
    1c68:	00d476b3          	and	a3,s0,a3
    1c6c:	06069a63          	bnez	a3,1ce0 <.L92>

00001c70 <.LVL193>:
    1c70:	01d41693          	slli	a3,s0,0x1d
    1c74:	0037d793          	srli	a5,a5,0x3

00001c78 <.LVL194>:
    1c78:	00f6e6b3          	or	a3,a3,a5

00001c7c <.LVL195>:
    1c7c:	00345413          	srli	s0,s0,0x3

00001c80 <.L105>:
    1c80:	00000793          	li	a5,0
    1c84:	f1dff06f          	j	1ba0 <.L17>

00001c88 <.L65>:
    1c88:	fe100693          	li	a3,-31
    1c8c:	40f687b3          	sub	a5,a3,a5
    1c90:	02000513          	li	a0,32
    1c94:	00f457b3          	srl	a5,s0,a5
    1c98:	00000693          	li	a3,0
    1c9c:	00a58663          	beq	a1,a0,1ca8 <.L67>
    1ca0:	43e60613          	addi	a2,a2,1086
    1ca4:	00c416b3          	sll	a3,s0,a2

00001ca8 <.L67>:
    1ca8:	01e6e6b3          	or	a3,a3,t5
    1cac:	00d036b3          	snez	a3,a3
    1cb0:	00d7e7b3          	or	a5,a5,a3

00001cb4 <.LVL198>:
    1cb4:	00000413          	li	s0,0
    1cb8:	f89ff06f          	j	1c40 <.L66>

00001cbc <.L86>:
    1cbc:	00080437          	lui	s0,0x80
    1cc0:	00000693          	li	a3,0
    1cc4:	7ff00793          	li	a5,2047
    1cc8:	00000713          	li	a4,0

00001ccc <.LVL200>:
    1ccc:	ed5ff06f          	j	1ba0 <.L17>

00001cd0 <.L88>:
    1cd0:	00000413          	li	s0,0
    1cd4:	00000693          	li	a3,0
    1cd8:	7ff00793          	li	a5,2047
    1cdc:	ec5ff06f          	j	1ba0 <.L17>

00001ce0 <.L92>:
    1ce0:	00000413          	li	s0,0

00001ce4 <.LVL203>:
    1ce4:	00000693          	li	a3,0
    1ce8:	00100793          	li	a5,1

00001cec <.LVL204>:
    1cec:	eb5ff06f          	j	1ba0 <.L17>

00001cf0 <__gedf2>:
  FP_DECL_D (B);
  CMPtype r;

  FP_INIT_EXCEPTIONS;
  FP_UNPACK_RAW_D (A, a);
  FP_UNPACK_RAW_D (B, b);
    1cf0:	0146d793          	srli	a5,a3,0x14

00001cf4 <.LBB4>:
  FP_UNPACK_RAW_D (A, a);
    1cf4:	0145d313          	srli	t1,a1,0x14
    1cf8:	00100737          	lui	a4,0x100
    1cfc:	fff70713          	addi	a4,a4,-1 # fffff <_ebss+0xf01af>

00001d00 <.LBE4>:
{
    1d00:	00050813          	mv	a6,a0
    1d04:	00050e13          	mv	t3,a0

00001d08 <.LBB5>:
  FP_UNPACK_RAW_D (A, a);
    1d08:	7ff37313          	andi	t1,t1,2047

00001d0c <.LBB6>:
  FP_UNPACK_RAW_D (B, b);
    1d0c:	7ff7f513          	andi	a0,a5,2047

00001d10 <.LBE6>:
  FP_CMP_D (r, A, B, -2, 2);
    1d10:	7ff00793          	li	a5,2047

00001d14 <.LBB7>:
  FP_UNPACK_RAW_D (A, a);
    1d14:	00b778b3          	and	a7,a4,a1

00001d18 <.LVL3>:
    1d18:	00060e93          	mv	t4,a2

00001d1c <.LBB8>:
  FP_UNPACK_RAW_D (B, b);
    1d1c:	00d77733          	and	a4,a4,a3

00001d20 <.LBB9>:
  FP_UNPACK_RAW_D (A, a);
    1d20:	01f5d593          	srli	a1,a1,0x1f

00001d24 <.LBB10>:
  FP_UNPACK_RAW_D (B, b);
    1d24:	01f6d693          	srli	a3,a3,0x1f

00001d28 <.LBE10>:
  FP_CMP_D (r, A, B, -2, 2);
    1d28:	02f31c63          	bne	t1,a5,1d60 <.L2>
    1d2c:	0108e8b3          	or	a7,a7,a6

00001d30 <.LVL6>:
    1d30:	0c089463          	bnez	a7,1df8 <.L24>
    1d34:	00650a63          	beq	a0,t1,1d48 <.L4>

00001d38 <.L20>:
    1d38:	00100513          	li	a0,1
    1d3c:	0a058c63          	beqz	a1,1df4 <.L1>
    1d40:	fff00513          	li	a0,-1
    1d44:	00008067          	ret

00001d48 <.L4>:
    1d48:	00c76733          	or	a4,a4,a2

00001d4c <.LVL9>:
    1d4c:	ffe00513          	li	a0,-2

00001d50 <.LVL10>:
    1d50:	0a071263          	bnez	a4,1df4 <.L1>

00001d54 <.LBB12>:
    1d54:	fed592e3          	bne	a1,a3,1d38 <.L20>
    1d58:	00000513          	li	a0,0
    1d5c:	00008067          	ret

00001d60 <.L2>:
    1d60:	04f51063          	bne	a0,a5,1da0 <.L8>
    1d64:	00c76733          	or	a4,a4,a2

00001d68 <.LVL12>:
    1d68:	ffe00513          	li	a0,-2

00001d6c <.LVL13>:
    1d6c:	08071463          	bnez	a4,1df4 <.L1>

00001d70 <.LBB13>:
    1d70:	00030c63          	beqz	t1,1d88 <.L9>

00001d74 <.L60>:
    1d74:	fcd592e3          	bne	a1,a3,1d38 <.L20>

00001d78 <.L21>:
    1d78:	fff00513          	li	a0,-1
    1d7c:	06058c63          	beqz	a1,1df4 <.L1>
    1d80:	00058513          	mv	a0,a1
    1d84:	00008067          	ret

00001d88 <.L9>:
    1d88:	0108e8b3          	or	a7,a7,a6

00001d8c <.LVL17>:
    1d8c:	fe0894e3          	bnez	a7,1d74 <.L60>

00001d90 <.L11>:
    1d90:	fff00513          	li	a0,-1
    1d94:	06068063          	beqz	a3,1df4 <.L1>
    1d98:	00068513          	mv	a0,a3
    1d9c:	00008067          	ret

00001da0 <.L8>:
    1da0:	02030663          	beqz	t1,1dcc <.L12>

00001da4 <.LVL20>:
    1da4:	f8050ae3          	beqz	a0,1d38 <.L20>

00001da8 <.LVL21>:
    1da8:	f8d598e3          	bne	a1,a3,1d38 <.L20>
    1dac:	f86546e3          	blt	a0,t1,1d38 <.L20>
    1db0:	fca344e3          	blt	t1,a0,1d78 <.L21>

00001db4 <.L19>:
    1db4:	f91762e3          	bltu	a4,a7,1d38 <.L20>
    1db8:	fce890e3          	bne	a7,a4,1d78 <.L21>
    1dbc:	f7ceeee3          	bltu	t4,t3,1d38 <.L20>
    1dc0:	00000513          	li	a0,0

00001dc4 <.LVL23>:
    1dc4:	03de7863          	bgeu	t3,t4,1df4 <.L1>
    1dc8:	fb1ff06f          	j	1d78 <.L21>

00001dcc <.L12>:
    1dcc:	0108e833          	or	a6,a7,a6

00001dd0 <.LVL25>:
    1dd0:	00050663          	beqz	a0,1ddc <.L14>

00001dd4 <.LVL26>:
    1dd4:	fa080ee3          	beqz	a6,1d90 <.L11>
    1dd8:	f9dff06f          	j	1d74 <.L60>

00001ddc <.L14>:
    1ddc:	00c76633          	or	a2,a4,a2

00001de0 <.LVL28>:
    1de0:	00060863          	beqz	a2,1df0 <.L15>

00001de4 <.LVL29>:
    1de4:	fa0806e3          	beqz	a6,1d90 <.L11>

00001de8 <.LVL30>:
    1de8:	fcd586e3          	beq	a1,a3,1db4 <.L19>
    1dec:	f4dff06f          	j	1d38 <.L20>

00001df0 <.L15>:
    1df0:	f40814e3          	bnez	a6,1d38 <.L20>

00001df4 <.L1>:
  FP_HANDLE_EXCEPTIONS;

  return r;
}
    1df4:	00008067          	ret

00001df8 <.L24>:
  FP_CMP_D (r, A, B, -2, 2);
    1df8:	ffe00513          	li	a0,-2

00001dfc <.LVL34>:
    1dfc:	00008067          	ret

00001e00 <__ledf2>:
  FP_DECL_D (B);
  CMPtype r;

  FP_INIT_EXCEPTIONS;
  FP_UNPACK_RAW_D (A, a);
  FP_UNPACK_RAW_D (B, b);
    1e00:	0146d793          	srli	a5,a3,0x14

00001e04 <.LBB4>:
  FP_UNPACK_RAW_D (A, a);
    1e04:	0145d313          	srli	t1,a1,0x14
    1e08:	00100737          	lui	a4,0x100
    1e0c:	fff70713          	addi	a4,a4,-1 # fffff <_ebss+0xf01af>

00001e10 <.LBE4>:
{
    1e10:	00050813          	mv	a6,a0
    1e14:	00050e13          	mv	t3,a0

00001e18 <.LBB5>:
  FP_UNPACK_RAW_D (A, a);
    1e18:	7ff37313          	andi	t1,t1,2047

00001e1c <.LBB6>:
  FP_UNPACK_RAW_D (B, b);
    1e1c:	7ff7f513          	andi	a0,a5,2047

00001e20 <.LBE6>:
  FP_CMP_D (r, A, B, 2, 2);
    1e20:	7ff00793          	li	a5,2047

00001e24 <.LBB7>:
  FP_UNPACK_RAW_D (A, a);
    1e24:	00b778b3          	and	a7,a4,a1

00001e28 <.LVL3>:
    1e28:	00060e93          	mv	t4,a2

00001e2c <.LBB8>:
  FP_UNPACK_RAW_D (B, b);
    1e2c:	00d77733          	and	a4,a4,a3

00001e30 <.LBB9>:
  FP_UNPACK_RAW_D (A, a);
    1e30:	01f5d593          	srli	a1,a1,0x1f

00001e34 <.LBB10>:
  FP_UNPACK_RAW_D (B, b);
    1e34:	01f6d693          	srli	a3,a3,0x1f

00001e38 <.LBE10>:
  FP_CMP_D (r, A, B, 2, 2);
    1e38:	02f31c63          	bne	t1,a5,1e70 <.L2>
    1e3c:	0108e8b3          	or	a7,a7,a6

00001e40 <.LVL6>:
    1e40:	0c089463          	bnez	a7,1f08 <.L24>
    1e44:	00650a63          	beq	a0,t1,1e58 <.L4>

00001e48 <.L20>:
    1e48:	00100513          	li	a0,1
    1e4c:	0a058c63          	beqz	a1,1f04 <.L1>
    1e50:	fff00513          	li	a0,-1
    1e54:	00008067          	ret

00001e58 <.L4>:
    1e58:	00c76733          	or	a4,a4,a2

00001e5c <.LVL9>:
    1e5c:	00200513          	li	a0,2

00001e60 <.LVL10>:
    1e60:	0a071263          	bnez	a4,1f04 <.L1>

00001e64 <.LBB12>:
    1e64:	fed592e3          	bne	a1,a3,1e48 <.L20>
    1e68:	00000513          	li	a0,0
    1e6c:	00008067          	ret

00001e70 <.L2>:
    1e70:	04f51063          	bne	a0,a5,1eb0 <.L8>
    1e74:	00c76733          	or	a4,a4,a2

00001e78 <.LVL12>:
    1e78:	00200513          	li	a0,2

00001e7c <.LVL13>:
    1e7c:	08071463          	bnez	a4,1f04 <.L1>

00001e80 <.LBB13>:
    1e80:	00030c63          	beqz	t1,1e98 <.L9>

00001e84 <.L60>:
    1e84:	fcd592e3          	bne	a1,a3,1e48 <.L20>

00001e88 <.L21>:
    1e88:	fff00513          	li	a0,-1
    1e8c:	06058c63          	beqz	a1,1f04 <.L1>
    1e90:	00058513          	mv	a0,a1
    1e94:	00008067          	ret

00001e98 <.L9>:
    1e98:	0108e8b3          	or	a7,a7,a6

00001e9c <.LVL17>:
    1e9c:	fe0894e3          	bnez	a7,1e84 <.L60>

00001ea0 <.L11>:
    1ea0:	fff00513          	li	a0,-1
    1ea4:	06068063          	beqz	a3,1f04 <.L1>
    1ea8:	00068513          	mv	a0,a3
    1eac:	00008067          	ret

00001eb0 <.L8>:
    1eb0:	02030663          	beqz	t1,1edc <.L12>

00001eb4 <.LVL20>:
    1eb4:	f8050ae3          	beqz	a0,1e48 <.L20>

00001eb8 <.LVL21>:
    1eb8:	f8d598e3          	bne	a1,a3,1e48 <.L20>
    1ebc:	f86546e3          	blt	a0,t1,1e48 <.L20>
    1ec0:	fca344e3          	blt	t1,a0,1e88 <.L21>

00001ec4 <.L19>:
    1ec4:	f91762e3          	bltu	a4,a7,1e48 <.L20>
    1ec8:	fce890e3          	bne	a7,a4,1e88 <.L21>
    1ecc:	f7ceeee3          	bltu	t4,t3,1e48 <.L20>
    1ed0:	00000513          	li	a0,0

00001ed4 <.LVL23>:
    1ed4:	03de7863          	bgeu	t3,t4,1f04 <.L1>
    1ed8:	fb1ff06f          	j	1e88 <.L21>

00001edc <.L12>:
    1edc:	0108e833          	or	a6,a7,a6

00001ee0 <.LVL25>:
    1ee0:	00050663          	beqz	a0,1eec <.L14>

00001ee4 <.LVL26>:
    1ee4:	fa080ee3          	beqz	a6,1ea0 <.L11>
    1ee8:	f9dff06f          	j	1e84 <.L60>

00001eec <.L14>:
    1eec:	00c76633          	or	a2,a4,a2

00001ef0 <.LVL28>:
    1ef0:	00060863          	beqz	a2,1f00 <.L15>

00001ef4 <.LVL29>:
    1ef4:	fa0806e3          	beqz	a6,1ea0 <.L11>

00001ef8 <.LVL30>:
    1ef8:	fcd586e3          	beq	a1,a3,1ec4 <.L19>
    1efc:	f4dff06f          	j	1e48 <.L20>

00001f00 <.L15>:
    1f00:	f40814e3          	bnez	a6,1e48 <.L20>

00001f04 <.L1>:
  FP_HANDLE_EXCEPTIONS;

  return r;
}
    1f04:	00008067          	ret

00001f08 <.L24>:
  FP_CMP_D (r, A, B, 2, 2);
    1f08:	00200513          	li	a0,2

00001f0c <.LVL34>:
    1f0c:	00008067          	ret

00001f10 <__fixunsdfsi>:
  FP_DECL_EX;
  FP_DECL_D (A);
  USItype r;

  FP_INIT_EXCEPTIONS;
  FP_UNPACK_RAW_D (A, a);
    1f10:	0145d713          	srli	a4,a1,0x14
    1f14:	00100637          	lui	a2,0x100

00001f18 <.LBE2>:
{
    1f18:	00050693          	mv	a3,a0

00001f1c <.LBB3>:
  FP_UNPACK_RAW_D (A, a);
    1f1c:	fff60793          	addi	a5,a2,-1 # fffff <_ebss+0xf01af>
    1f20:	7ff77713          	andi	a4,a4,2047

00001f24 <.LBE3>:
  FP_TO_INT_D (r, A, SI_BITS, 0);
    1f24:	3fe00513          	li	a0,1022

00001f28 <.LBB4>:
  FP_UNPACK_RAW_D (A, a);
    1f28:	00b7f7b3          	and	a5,a5,a1

00001f2c <.LVL3>:
    1f2c:	01f5d593          	srli	a1,a1,0x1f

00001f30 <.LBE4>:
  FP_TO_INT_D (r, A, SI_BITS, 0);
    1f30:	04e55863          	bge	a0,a4,1f80 <.L4>
    1f34:	00000513          	li	a0,0
    1f38:	04059663          	bnez	a1,1f84 <.L1>
    1f3c:	41e00593          	li	a1,1054

00001f40 <.LVL5>:
    1f40:	fff00513          	li	a0,-1
    1f44:	04e5c063          	blt	a1,a4,1f84 <.L1>

00001f48 <.LBB5>:
    1f48:	00c7e7b3          	or	a5,a5,a2
    1f4c:	43300613          	li	a2,1075
    1f50:	40e60633          	sub	a2,a2,a4
    1f54:	01f00593          	li	a1,31
    1f58:	00c5cc63          	blt	a1,a2,1f70 <.L3>

00001f5c <.LVL8>:
    1f5c:	bed70713          	addi	a4,a4,-1043

00001f60 <.LVL9>:
    1f60:	00e797b3          	sll	a5,a5,a4

00001f64 <.LVL10>:
    1f64:	00c6d533          	srl	a0,a3,a2
    1f68:	00a7e533          	or	a0,a5,a0

00001f6c <.LVL11>:
    1f6c:	00008067          	ret

00001f70 <.L3>:
    1f70:	41300693          	li	a3,1043
    1f74:	40e68733          	sub	a4,a3,a4

00001f78 <.LVL13>:
    1f78:	00e7d533          	srl	a0,a5,a4

00001f7c <.LVL14>:
    1f7c:	00008067          	ret

00001f80 <.L4>:
    1f80:	00000513          	li	a0,0

00001f84 <.L1>:
  FP_HANDLE_EXCEPTIONS;

  return r;
}
    1f84:	00008067          	ret

00001f88 <__floatsidf>:
#include "soft-fp.h"
#include "double.h"

DFtype
__floatsidf (SItype i)
{
    1f88:	ff010113          	addi	sp,sp,-16
    1f8c:	00112623          	sw	ra,12(sp)
    1f90:	00812423          	sw	s0,8(sp)
    1f94:	00912223          	sw	s1,4(sp)

00001f98 <.LBB10>:
  FP_DECL_D (A);
  DFtype a;

  FP_FROM_INT_D (A, i, SI_BITS, USItype);
    1f98:	08050663          	beqz	a0,2024 <.L5>

00001f9c <.LBB3>:
    1f9c:	41f55793          	srai	a5,a0,0x1f
    1fa0:	00a7c433          	xor	s0,a5,a0
    1fa4:	40f40433          	sub	s0,s0,a5
    1fa8:	01f55493          	srli	s1,a0,0x1f

00001fac <.LBB4>:
    1fac:	00040513          	mv	a0,s0

00001fb0 <.LVL3>:
    1fb0:	100000ef          	jal	ra,20b0 <__clzsi2>

00001fb4 <.LVL4>:
    1fb4:	41e00713          	li	a4,1054

00001fb8 <.LBE4>:
    1fb8:	00a00793          	li	a5,10

00001fbc <.LBB5>:
    1fbc:	40a70733          	sub	a4,a4,a0

00001fc0 <.LBE5>:
    1fc0:	04a7c863          	blt	a5,a0,2010 <.L4>
    1fc4:	00b00793          	li	a5,11
    1fc8:	40a787b3          	sub	a5,a5,a0
    1fcc:	01550513          	addi	a0,a0,21

00001fd0 <.LVL6>:
    1fd0:	00f457b3          	srl	a5,s0,a5

00001fd4 <.LVL7>:
    1fd4:	00a41433          	sll	s0,s0,a0

00001fd8 <.LVL8>:
    1fd8:	00048513          	mv	a0,s1

00001fdc <.L2>:
  FP_PACK_RAW_D (a, A);
    1fdc:	00c79793          	slli	a5,a5,0xc

00001fe0 <.LVL10>:
    1fe0:	00c7d793          	srli	a5,a5,0xc
    1fe4:	01471713          	slli	a4,a4,0x14

00001fe8 <.LVL11>:
    1fe8:	01f51513          	slli	a0,a0,0x1f

00001fec <.LVL12>:
    1fec:	00f76733          	or	a4,a4,a5

00001ff0 <.LBE11>:

  return a;
}
    1ff0:	00c12083          	lw	ra,12(sp)

00001ff4 <.LBB12>:
  FP_PACK_RAW_D (a, A);
    1ff4:	00a767b3          	or	a5,a4,a0

00001ff8 <.LBE12>:
}
    1ff8:	00040513          	mv	a0,s0
    1ffc:	00812403          	lw	s0,8(sp)

00002000 <.LVL14>:
    2000:	00412483          	lw	s1,4(sp)
    2004:	00078593          	mv	a1,a5
    2008:	01010113          	addi	sp,sp,16
    200c:	00008067          	ret

00002010 <.L4>:
  FP_FROM_INT_D (A, i, SI_BITS, USItype);
    2010:	ff550513          	addi	a0,a0,-11

00002014 <.LVL16>:
    2014:	00a417b3          	sll	a5,s0,a0

00002018 <.LVL17>:
    2018:	00048513          	mv	a0,s1

0000201c <.L7>:
    201c:	00000413          	li	s0,0
    2020:	fbdff06f          	j	1fdc <.L2>

00002024 <.L5>:
    2024:	00000713          	li	a4,0
    2028:	00000793          	li	a5,0
    202c:	ff1ff06f          	j	201c <.L7>

00002030 <__floatunsidf>:
#include "soft-fp.h"
#include "double.h"

DFtype
__floatunsidf (USItype i)
{
    2030:	ff010113          	addi	sp,sp,-16
    2034:	00812423          	sw	s0,8(sp)
    2038:	00112623          	sw	ra,12(sp)
    203c:	00050413          	mv	s0,a0

00002040 <.LBB10>:
  FP_DECL_D (A);
  DFtype a;

  FP_FROM_INT_D (A, i, SI_BITS, USItype);
    2040:	06050263          	beqz	a0,20a4 <.L4>

00002044 <.LBB3>:
    2044:	06c000ef          	jal	ra,20b0 <__clzsi2>

00002048 <.LVL2>:
    2048:	41e00713          	li	a4,1054

0000204c <.LBE4>:
    204c:	00a00793          	li	a5,10

00002050 <.LBB5>:
    2050:	40a70733          	sub	a4,a4,a0

00002054 <.LBE5>:
    2054:	04a7c063          	blt	a5,a0,2094 <.L3>
    2058:	00b00793          	li	a5,11
    205c:	40a787b3          	sub	a5,a5,a0
    2060:	01550513          	addi	a0,a0,21

00002064 <.LVL4>:
    2064:	00f457b3          	srl	a5,s0,a5

00002068 <.LVL5>:
    2068:	00a41433          	sll	s0,s0,a0

0000206c <.L2>:
  FP_PACK_RAW_D (a, A);

  return a;
}
    206c:	00c12083          	lw	ra,12(sp)
    2070:	00040513          	mv	a0,s0

00002074 <.LBB12>:
  FP_PACK_RAW_D (a, A);
    2074:	00c79793          	slli	a5,a5,0xc

00002078 <.LBE12>:
}
    2078:	00812403          	lw	s0,8(sp)

0000207c <.LBB13>:
  FP_PACK_RAW_D (a, A);
    207c:	01471713          	slli	a4,a4,0x14

00002080 <.LVL9>:
    2080:	00c7d793          	srli	a5,a5,0xc
    2084:	00f766b3          	or	a3,a4,a5

00002088 <.LBE13>:
}
    2088:	00068593          	mv	a1,a3
    208c:	01010113          	addi	sp,sp,16
    2090:	00008067          	ret

00002094 <.L3>:
  FP_FROM_INT_D (A, i, SI_BITS, USItype);
    2094:	ff550513          	addi	a0,a0,-11

00002098 <.LVL11>:
    2098:	00a417b3          	sll	a5,s0,a0

0000209c <.LVL12>:
    209c:	00000413          	li	s0,0

000020a0 <.LVL13>:
    20a0:	fcdff06f          	j	206c <.L2>

000020a4 <.L4>:
    20a4:	00000793          	li	a5,0
    20a8:	00000713          	li	a4,0
    20ac:	fc1ff06f          	j	206c <.L2>

000020b0 <__clzsi2>:
int
__clzSI2 (UWtype x)
{
  Wtype ret;

  count_leading_zeros (ret, x);
    20b0:	000107b7          	lui	a5,0x10
    20b4:	02f57a63          	bgeu	a0,a5,20e8 <.L2>
    20b8:	10053793          	sltiu	a5,a0,256
    20bc:	0017c793          	xori	a5,a5,1
    20c0:	00379793          	slli	a5,a5,0x3

000020c4 <.L3>:
    20c4:	02000713          	li	a4,32
    20c8:	40f70733          	sub	a4,a4,a5
    20cc:	00f55533          	srl	a0,a0,a5

000020d0 <.LVL2>:
    20d0:	0000a797          	auipc	a5,0xa
    20d4:	df07a783          	lw	a5,-528(a5) # bec0 <.LLST21+0xe>

000020d8 <.LVL3>:
    20d8:	00a787b3          	add	a5,a5,a0
    20dc:	0007c503          	lbu	a0,0(a5)

000020e0 <.LBE3>:

  return ret;
}
    20e0:	40a70533          	sub	a0,a4,a0
    20e4:	00008067          	ret

000020e8 <.L2>:
  count_leading_zeros (ret, x);
    20e8:	01000737          	lui	a4,0x1000
    20ec:	01000793          	li	a5,16
    20f0:	fce56ae3          	bltu	a0,a4,20c4 <.L3>
    20f4:	01800793          	li	a5,24
    20f8:	fcdff06f          	j	20c4 <.L3>

000020fc <puts>:
    20fc:	0000a797          	auipc	a5,0xa
    2100:	d907a783          	lw	a5,-624(a5) # be8c <_GLOBAL_OFFSET_TABLE_+0x4>
    2104:	0007a583          	lw	a1,0(a5)
    2108:	fe010113          	addi	sp,sp,-32
    210c:	00912a23          	sw	s1,20(sp)
    2110:	00b12623          	sw	a1,12(sp)
    2114:	00112e23          	sw	ra,28(sp)
    2118:	00812c23          	sw	s0,24(sp)
    211c:	fff00493          	li	s1,-1
    2120:	33c010ef          	jal	ra,345c <__GI_fputs>
    2124:	00c12583          	lw	a1,12(sp)
    2128:	02951063          	bne	a0,s1,2148 <.L2>

0000212c <.L4>:
    212c:	fff00413          	li	s0,-1

00002130 <.L1>:
    2130:	01c12083          	lw	ra,28(sp)
    2134:	00040513          	mv	a0,s0
    2138:	01812403          	lw	s0,24(sp)
    213c:	01412483          	lw	s1,20(sp)
    2140:	02010113          	addi	sp,sp,32
    2144:	00008067          	ret

00002148 <.L2>:
    2148:	00150413          	addi	s0,a0,1
    214c:	00a00513          	li	a0,10
    2150:	214010ef          	jal	ra,3364 <__GI___fputc_unlocked>
    2154:	fc951ee3          	bne	a0,s1,2130 <.L1>
    2158:	fd5ff06f          	j	212c <.L4>

0000215c <__GI_printf>:
    215c:	fc010113          	addi	sp,sp,-64
    2160:	02b12223          	sw	a1,36(sp)
    2164:	02c12423          	sw	a2,40(sp)
    2168:	02f12a23          	sw	a5,52(sp)
    216c:	02d12623          	sw	a3,44(sp)
    2170:	02e12823          	sw	a4,48(sp)
    2174:	03012c23          	sw	a6,56(sp)
    2178:	03112e23          	sw	a7,60(sp)
    217c:	0000a797          	auipc	a5,0xa
    2180:	d107a783          	lw	a5,-752(a5) # be8c <_GLOBAL_OFFSET_TABLE_+0x4>
    2184:	00050593          	mv	a1,a0
    2188:	0007a503          	lw	a0,0(a5)
    218c:	02410613          	addi	a2,sp,36
    2190:	00112e23          	sw	ra,28(sp)
    2194:	00c12623          	sw	a2,12(sp)
    2198:	134000ef          	jal	ra,22cc <__GI_vfprintf>
    219c:	01c12083          	lw	ra,28(sp)
    21a0:	04010113          	addi	sp,sp,64
    21a4:	00008067          	ret

000021a8 <_stdio_term>:
    21a8:	ff010113          	addi	sp,sp,-16
    21ac:	0000a797          	auipc	a5,0xa
    21b0:	cf87a783          	lw	a5,-776(a5) # bea4 <_GLOBAL_OFFSET_TABLE_+0x1c>
    21b4:	00812423          	sw	s0,8(sp)
    21b8:	0007a403          	lw	s0,0(a5)
    21bc:	00912223          	sw	s1,4(sp)
    21c0:	00112623          	sw	ra,12(sp)
    21c4:	ffe00493          	li	s1,-2

000021c8 <.L2>:
    21c8:	00041c63          	bnez	s0,21e0 <.L5>
    21cc:	00c12083          	lw	ra,12(sp)
    21d0:	00812403          	lw	s0,8(sp)
    21d4:	00412483          	lw	s1,4(sp)
    21d8:	01010113          	addi	sp,sp,16
    21dc:	00008067          	ret

000021e0 <.L5>:
    21e0:	00045783          	lhu	a5,0(s0) # 80000 <_ebss+0x701b0>
    21e4:	0407f793          	andi	a5,a5,64
    21e8:	00078663          	beqz	a5,21f4 <.L3>
    21ec:	00040513          	mv	a0,s0
    21f0:	098000ef          	jal	ra,2288 <__stdio_wcommit>

000021f4 <.L3>:
    21f4:	00442783          	lw	a5,4(s0)
    21f8:	00979a63          	bne	a5,s1,220c <.L4>
    21fc:	03442783          	lw	a5,52(s0)
    2200:	00078663          	beqz	a5,220c <.L4>
    2204:	02442503          	lw	a0,36(s0)
    2208:	000780e7          	jalr	a5

0000220c <.L4>:
    220c:	02042403          	lw	s0,32(s0)
    2210:	fb9ff06f          	j	21c8 <.L2>

00002214 <_stdio_init>:
    2214:	ff010113          	addi	sp,sp,-16
    2218:	00812423          	sw	s0,8(sp)
    221c:	00000513          	li	a0,0
    2220:	0000a417          	auipc	s0,0xa
    2224:	c7442403          	lw	s0,-908(s0) # be94 <_GLOBAL_OFFSET_TABLE_+0xc>
    2228:	00912223          	sw	s1,4(sp)
    222c:	00112623          	sw	ra,12(sp)
    2230:	00042483          	lw	s1,0(s0)
    2234:	13d010ef          	jal	ra,3b70 <__GI_isatty>
    2238:	00051c63          	bnez	a0,2250 <.L14>
    223c:	0000c717          	auipc	a4,0xc
    2240:	a9870713          	addi	a4,a4,-1384 # dcd4 <_stdio_streams>
    2244:	00075783          	lhu	a5,0(a4)
    2248:	1007c793          	xori	a5,a5,256
    224c:	00f71023          	sh	a5,0(a4)

00002250 <.L14>:
    2250:	00100513          	li	a0,1
    2254:	11d010ef          	jal	ra,3b70 <__GI_isatty>
    2258:	00051c63          	bnez	a0,2270 <.L15>
    225c:	0000c717          	auipc	a4,0xc
    2260:	a7870713          	addi	a4,a4,-1416 # dcd4 <_stdio_streams>
    2264:	02475783          	lhu	a5,36(a4)
    2268:	1007c793          	xori	a5,a5,256
    226c:	02f71223          	sh	a5,36(a4)

00002270 <.L15>:
    2270:	00942023          	sw	s1,0(s0)
    2274:	00c12083          	lw	ra,12(sp)
    2278:	00812403          	lw	s0,8(sp)
    227c:	00412483          	lw	s1,4(sp)
    2280:	01010113          	addi	sp,sp,16
    2284:	00008067          	ret

00002288 <__stdio_wcommit>:
    2288:	00852583          	lw	a1,8(a0)
    228c:	01052783          	lw	a5,16(a0)
    2290:	ff010113          	addi	sp,sp,-16
    2294:	00812423          	sw	s0,8(sp)
    2298:	00112623          	sw	ra,12(sp)
    229c:	00050413          	mv	s0,a0
    22a0:	40b78633          	sub	a2,a5,a1
    22a4:	00b78663          	beq	a5,a1,22b0 <.L2>
    22a8:	00b52823          	sw	a1,16(a0)
    22ac:	7fd020ef          	jal	ra,52a8 <__stdio_WRITE>

000022b0 <.L2>:
    22b0:	01042503          	lw	a0,16(s0)
    22b4:	00842783          	lw	a5,8(s0)
    22b8:	00c12083          	lw	ra,12(sp)
    22bc:	00812403          	lw	s0,8(sp)
    22c0:	40f50533          	sub	a0,a0,a5
    22c4:	01010113          	addi	sp,sp,16
    22c8:	00008067          	ret

000022cc <__GI_vfprintf>:
    22cc:	00055783          	lhu	a5,0(a0)
    22d0:	fe010113          	addi	sp,sp,-32
    22d4:	00812c23          	sw	s0,24(sp)
    22d8:	00112e23          	sw	ra,28(sp)
    22dc:	0407f793          	andi	a5,a5,64
    22e0:	00050413          	mv	s0,a0
    22e4:	00078c63          	beqz	a5,22fc <.L2>

000022e8 <.L3>:
    22e8:	00040513          	mv	a0,s0
    22ec:	01812403          	lw	s0,24(sp)
    22f0:	01c12083          	lw	ra,28(sp)
    22f4:	02010113          	addi	sp,sp,32
    22f8:	1580006f          	j	2450 <_vfprintf_internal>

000022fc <.L2>:
    22fc:	00c12623          	sw	a2,12(sp)
    2300:	00b12423          	sw	a1,8(sp)
    2304:	4b8030ef          	jal	ra,57bc <__stdio_trans2w>
    2308:	00812583          	lw	a1,8(sp)
    230c:	00c12603          	lw	a2,12(sp)
    2310:	fc050ce3          	beqz	a0,22e8 <.L3>
    2314:	01c12083          	lw	ra,28(sp)
    2318:	01812403          	lw	s0,24(sp)
    231c:	fff00513          	li	a0,-1
    2320:	02010113          	addi	sp,sp,32
    2324:	00008067          	ret

00002328 <_charpad>:
    2328:	fd010113          	addi	sp,sp,-48
    232c:	02812423          	sw	s0,40(sp)
    2330:	02912223          	sw	s1,36(sp)
    2334:	03212023          	sw	s2,32(sp)
    2338:	01312e23          	sw	s3,28(sp)
    233c:	02112623          	sw	ra,44(sp)
    2340:	00050913          	mv	s2,a0
    2344:	00060493          	mv	s1,a2
    2348:	00b10623          	sb	a1,12(sp)
    234c:	00060413          	mv	s0,a2
    2350:	00c10993          	addi	s3,sp,12

00002354 <.L2>:
    2354:	00040e63          	beqz	s0,2370 <.L3>
    2358:	00090613          	mv	a2,s2
    235c:	00100593          	li	a1,1
    2360:	00098513          	mv	a0,s3
    2364:	308030ef          	jal	ra,566c <__stdio_fwrite>
    2368:	00100793          	li	a5,1
    236c:	02f50263          	beq	a0,a5,2390 <.L4>

00002370 <.L3>:
    2370:	40848533          	sub	a0,s1,s0
    2374:	02c12083          	lw	ra,44(sp)
    2378:	02812403          	lw	s0,40(sp)
    237c:	02412483          	lw	s1,36(sp)
    2380:	02012903          	lw	s2,32(sp)
    2384:	01c12983          	lw	s3,28(sp)
    2388:	03010113          	addi	sp,sp,48
    238c:	00008067          	ret

00002390 <.L4>:
    2390:	fff40413          	addi	s0,s0,-1
    2394:	fc1ff06f          	j	2354 <.L2>

00002398 <_fp_out_narrow>:
    2398:	fe010113          	addi	sp,sp,-32
    239c:	00912a23          	sw	s1,20(sp)
    23a0:	01312623          	sw	s3,12(sp)
    23a4:	01412423          	sw	s4,8(sp)
    23a8:	00112e23          	sw	ra,28(sp)
    23ac:	00812c23          	sw	s0,24(sp)
    23b0:	01212823          	sw	s2,16(sp)
    23b4:	01512223          	sw	s5,4(sp)
    23b8:	0805f793          	andi	a5,a1,128
    23bc:	00050a13          	mv	s4,a0
    23c0:	00060493          	mv	s1,a2
    23c4:	00068993          	mv	s3,a3
    23c8:	06078e63          	beqz	a5,2444 <.L13>
    23cc:	00068513          	mv	a0,a3
    23d0:	00058a93          	mv	s5,a1
    23d4:	504010ef          	jal	ra,38d8 <__GI_strlen>
    23d8:	40a484b3          	sub	s1,s1,a0
    23dc:	00050913          	mv	s2,a0
    23e0:	00000413          	li	s0,0
    23e4:	00905e63          	blez	s1,2400 <.L10>
    23e8:	00048613          	mv	a2,s1
    23ec:	07faf593          	andi	a1,s5,127
    23f0:	000a0513          	mv	a0,s4
    23f4:	f35ff0ef          	jal	ra,2328 <_charpad>
    23f8:	00050413          	mv	s0,a0
    23fc:	02a49063          	bne	s1,a0,241c <.L9>

00002400 <.L10>:
    2400:	00000513          	li	a0,0
    2404:	01205a63          	blez	s2,2418 <.L12>
    2408:	000a0613          	mv	a2,s4
    240c:	00090593          	mv	a1,s2
    2410:	00098513          	mv	a0,s3
    2414:	258030ef          	jal	ra,566c <__stdio_fwrite>

00002418 <.L12>:
    2418:	00a40433          	add	s0,s0,a0

0000241c <.L9>:
    241c:	01c12083          	lw	ra,28(sp)
    2420:	00040513          	mv	a0,s0
    2424:	01812403          	lw	s0,24(sp)
    2428:	01412483          	lw	s1,20(sp)
    242c:	01012903          	lw	s2,16(sp)
    2430:	00c12983          	lw	s3,12(sp)
    2434:	00812a03          	lw	s4,8(sp)
    2438:	00412a83          	lw	s5,4(sp)
    243c:	02010113          	addi	sp,sp,32
    2440:	00008067          	ret

00002444 <.L13>:
    2444:	00060913          	mv	s2,a2
    2448:	00000413          	li	s0,0
    244c:	fb5ff06f          	j	2400 <.L10>

00002450 <_vfprintf_internal>:
    2450:	e2010113          	addi	sp,sp,-480
    2454:	0c010793          	addi	a5,sp,192
    2458:	00a12023          	sw	a0,0(sp)
    245c:	00078513          	mv	a0,a5
    2460:	1c812c23          	sw	s0,472(sp)
    2464:	1c912a23          	sw	s1,468(sp)
    2468:	1c112e23          	sw	ra,476(sp)
    246c:	1d212823          	sw	s2,464(sp)
    2470:	1d312623          	sw	s3,460(sp)
    2474:	1d412423          	sw	s4,456(sp)
    2478:	1d512223          	sw	s5,452(sp)
    247c:	1d612023          	sw	s6,448(sp)
    2480:	1b712e23          	sw	s7,444(sp)
    2484:	1b812c23          	sw	s8,440(sp)
    2488:	1b912a23          	sw	s9,436(sp)
    248c:	1ba12823          	sw	s10,432(sp)
    2490:	1bb12623          	sw	s11,428(sp)
    2494:	00058413          	mv	s0,a1
    2498:	00060493          	mv	s1,a2
    249c:	00f12223          	sw	a5,4(sp)
    24a0:	6d0000ef          	jal	ra,2b70 <_ppfs_init>
    24a4:	06055663          	bgez	a0,2510 <.L18>
    24a8:	0c012403          	lw	s0,192(sp)
    24ac:	00040513          	mv	a0,s0
    24b0:	428010ef          	jal	ra,38d8 <__GI_strlen>
    24b4:	00050593          	mv	a1,a0
    24b8:	04051463          	bnez	a0,2500 <.L19>

000024bc <.L84>:
    24bc:	fff00c93          	li	s9,-1

000024c0 <.L17>:
    24c0:	1dc12083          	lw	ra,476(sp)
    24c4:	1d812403          	lw	s0,472(sp)
    24c8:	1d412483          	lw	s1,468(sp)
    24cc:	1d012903          	lw	s2,464(sp)
    24d0:	1cc12983          	lw	s3,460(sp)
    24d4:	1c812a03          	lw	s4,456(sp)
    24d8:	1c412a83          	lw	s5,452(sp)
    24dc:	1c012b03          	lw	s6,448(sp)
    24e0:	1bc12b83          	lw	s7,444(sp)
    24e4:	1b812c03          	lw	s8,440(sp)
    24e8:	1b012d03          	lw	s10,432(sp)
    24ec:	1ac12d83          	lw	s11,428(sp)
    24f0:	000c8513          	mv	a0,s9
    24f4:	1b412c83          	lw	s9,436(sp)
    24f8:	1e010113          	addi	sp,sp,480
    24fc:	00008067          	ret

00002500 <.L19>:
    2500:	00012603          	lw	a2,0(sp)
    2504:	00040513          	mv	a0,s0
    2508:	164030ef          	jal	ra,566c <__stdio_fwrite>
    250c:	fb1ff06f          	j	24bc <.L84>

00002510 <.L18>:
    2510:	00412503          	lw	a0,4(sp)
    2514:	00048593          	mv	a1,s1
    2518:	00001a37          	lui	s4,0x1
    251c:	738000ef          	jal	ra,2c54 <_ppfs_prepargs>
    2520:	40000ab7          	lui	s5,0x40000
    2524:	10000b37          	lui	s6,0x10000
    2528:	00040513          	mv	a0,s0
    252c:	00000c93          	li	s9,0
    2530:	11010b93          	addi	s7,sp,272
    2534:	800a0c13          	addi	s8,s4,-2048 # 800 <core_list_init+0x34>
    2538:	fffa8a93          	addi	s5,s5,-1 # 3fffffff <_ebss+0x3fff01af>
    253c:	fffb0b13          	addi	s6,s6,-1 # fffffff <_ebss+0xfff01af>

00002540 <.L22>:
    2540:	00044783          	lbu	a5,0(s0)
    2544:	60078863          	beqz	a5,2b54 <.L23>
    2548:	02500713          	li	a4,37
    254c:	0ce79063          	bne	a5,a4,260c <.L24>
    2550:	02a40463          	beq	s0,a0,2578 <.L86>

00002554 <.L85>:
    2554:	40a404b3          	sub	s1,s0,a0
    2558:	f69052e3          	blez	s1,24bc <.L84>
    255c:	00012603          	lw	a2,0(sp)
    2560:	00048593          	mv	a1,s1
    2564:	108030ef          	jal	ra,566c <__stdio_fwrite>
    2568:	f4951ae3          	bne	a0,s1,24bc <.L84>
    256c:	00044783          	lbu	a5,0(s0)
    2570:	00ac8cb3          	add	s9,s9,a0
    2574:	f40786e3          	beqz	a5,24c0 <.L17>

00002578 <.L86>:
    2578:	00144703          	lbu	a4,1(s0)
    257c:	02500793          	li	a5,37
    2580:	00140513          	addi	a0,s0,1
    2584:	00240413          	addi	s0,s0,2
    2588:	faf70ce3          	beq	a4,a5,2540 <.L22>
    258c:	0ca12023          	sw	a0,192(sp)
    2590:	00412503          	lw	a0,4(sp)
    2594:	0fd000ef          	jal	ra,2e90 <_ppfs_parsespec>
    2598:	00412503          	lw	a0,4(sp)
    259c:	704000ef          	jal	ra,2ca0 <_ppfs_setargs>
    25a0:	0d812703          	lw	a4,216(sp)
    25a4:	0e614583          	lbu	a1,230(sp)
    25a8:	000b8793          	mv	a5,s7
    25ac:	00e05863          	blez	a4,25bc <.L29>
    25b0:	016587b3          	add	a5,a1,s6
    25b4:	00479793          	slli	a5,a5,0x4
    25b8:	00fb87b3          	add	a5,s7,a5

000025bc <.L29>:
    25bc:	0dc12803          	lw	a6,220(sp)
    25c0:	02c10693          	addi	a3,sp,44
    25c4:	00000713          	li	a4,0
    25c8:	00068613          	mv	a2,a3

000025cc <.L30>:
    25cc:	00471513          	slli	a0,a4,0x4
    25d0:	00a78533          	add	a0,a5,a0
    25d4:	05074063          	blt	a4,a6,2614 <.L31>
    25d8:	0e012783          	lw	a5,224(sp)
    25dc:	04079463          	bnez	a5,2624 <.L32>
    25e0:	0d012583          	lw	a1,208(sp)
    25e4:	f00a0793          	addi	a5,s4,-256
    25e8:	000c8613          	mv	a2,s9
    25ec:	00f5f5b3          	and	a1,a1,a5
    25f0:	02c12783          	lw	a5,44(sp)
    25f4:	41fcd693          	srai	a3,s9,0x1f
    25f8:	0007a503          	lw	a0,0(a5)
    25fc:	310030ef          	jal	ra,590c <_store_inttype>

00002600 <.L33>:
    2600:	0c012403          	lw	s0,192(sp)
    2604:	00040513          	mv	a0,s0
    2608:	f39ff06f          	j	2540 <.L22>

0000260c <.L24>:
    260c:	00140413          	addi	s0,s0,1
    2610:	f31ff06f          	j	2540 <.L22>

00002614 <.L31>:
    2614:	00a6a023          	sw	a0,0(a3) # 800000 <_ebss+0x7f01b0>
    2618:	00170713          	addi	a4,a4,1
    261c:	00468693          	addi	a3,a3,4
    2620:	fadff06f          	j	25cc <.L30>

00002624 <.L32>:
    2624:	00700713          	li	a4,7
    2628:	34f76263          	bltu	a4,a5,296c <.L34>
    262c:	0000b717          	auipc	a4,0xb
    2630:	45470713          	addi	a4,a4,1108 # da80 <spec_base.1>
    2634:	00f70733          	add	a4,a4,a5
    2638:	fff74683          	lbu	a3,-1(a4)
    263c:	00a00613          	li	a2,10
    2640:	05700713          	li	a4,87
    2644:	02c69063          	bne	a3,a2,2664 <.L35>
    2648:	0d012603          	lw	a2,208(sp)
    264c:	02067513          	andi	a0,a2,32
    2650:	00050463          	beqz	a0,2658 <.L36>
    2654:	02c00713          	li	a4,44

00002658 <.L36>:
    2658:	04067613          	andi	a2,a2,64
    265c:	00060463          	beqz	a2,2664 <.L35>
    2660:	08076713          	ori	a4,a4,128

00002664 <.L35>:
    2664:	00500513          	li	a0,5
    2668:	0c412603          	lw	a2,196(sp)
    266c:	0ef56463          	bltu	a0,a5,2754 <.L37>
    2670:	00300513          	li	a0,3
    2674:	10a78063          	beq	a5,a0,2774 <.L38>
    2678:	00100513          	li	a0,1
    267c:	0ea78063          	beq	a5,a0,275c <.L39>

00002680 <.L130>:
    2680:	02000913          	li	s2,32
    2684:	00065463          	bgez	a2,268c <.L41>
    2688:	0d414903          	lbu	s2,212(sp)

0000268c <.L41>:
    268c:	015585b3          	add	a1,a1,s5
    2690:	00259593          	slli	a1,a1,0x2
    2694:	19058793          	addi	a5,a1,400
    2698:	01010613          	addi	a2,sp,16
    269c:	00c785b3          	add	a1,a5,a2
    26a0:	f485a503          	lw	a0,-184(a1)
    26a4:	f00a0793          	addi	a5,s4,-256
    26a8:	00b00d13          	li	s10,11
    26ac:	00f57533          	and	a0,a0,a5

000026b0 <.L42>:
    26b0:	02c12583          	lw	a1,44(sp)
    26b4:	00068613          	mv	a2,a3
    26b8:	00e12623          	sw	a4,12(sp)
    26bc:	00d12423          	sw	a3,8(sp)
    26c0:	1d0030ef          	jal	ra,5890 <_load_inttype>
    26c4:	00c12703          	lw	a4,12(sp)
    26c8:	00812683          	lw	a3,8(sp)
    26cc:	0bf10493          	addi	s1,sp,191
    26d0:	00058613          	mv	a2,a1
    26d4:	00050593          	mv	a1,a0
    26d8:	00048513          	mv	a0,s1
    26dc:	26c030ef          	jal	ra,5948 <_uintmaxtostr>
    26e0:	0e012703          	lw	a4,224(sp)
    26e4:	00500793          	li	a5,5
    26e8:	00050d93          	mv	s11,a0
    26ec:	02e7f263          	bgeu	a5,a4,2710 <.L43>
    26f0:	00054603          	lbu	a2,0(a0)
    26f4:	02d00693          	li	a3,45
    26f8:	0d012783          	lw	a5,208(sp)
    26fc:	08d61663          	bne	a2,a3,2788 <.L44>
    2700:	0027e793          	ori	a5,a5,2
    2704:	0cf12823          	sw	a5,208(sp)
    2708:	00150d93          	addi	s11,a0,1
    270c:	00200d13          	li	s10,2

00002710 <.L43>:
    2710:	0c412403          	lw	s0,196(sp)
    2714:	41b484b3          	sub	s1,s1,s11
    2718:	00045463          	bgez	s0,2720 <.L45>
    271c:	00100413          	li	s0,1

00002720 <.L45>:
    2720:	0d012683          	lw	a3,208(sp)
    2724:	000dc783          	lbu	a5,0(s11)
    2728:	0106f693          	andi	a3,a3,16
    272c:	1c068a63          	beqz	a3,2900 <.L46>
    2730:	00200693          	li	a3,2
    2734:	06e6ea63          	bltu	a3,a4,27a8 <.L47>
    2738:	03000693          	li	a3,48
    273c:	1cd78a63          	beq	a5,a3,2910 <.L48>
    2740:	00040793          	mv	a5,s0
    2744:	4084fc63          	bgeu	s1,s0,2b5c <.L97>
    2748:	40940433          	sub	s0,s0,s1

0000274c <.L49>:
    274c:	00600d13          	li	s10,6
    2750:	1640006f          	j	28b4 <.L136>

00002754 <.L37>:
    2754:	40d006b3          	neg	a3,a3
    2758:	f29ff06f          	j	2680 <.L130>

0000275c <.L39>:
    275c:	02000913          	li	s2,32
    2760:	00065463          	bgez	a2,2768 <.L134>
    2764:	0d414903          	lbu	s2,212(sp)

00002768 <.L134>:
    2768:	00600d13          	li	s10,6
    276c:	40000513          	li	a0,1024
    2770:	f41ff06f          	j	26b0 <.L42>

00002774 <.L38>:
    2774:	02000913          	li	s2,32
    2778:	00065463          	bgez	a2,2780 <.L133>
    277c:	0d414903          	lbu	s2,212(sp)

00002780 <.L133>:
    2780:	03700713          	li	a4,55
    2784:	f09ff06f          	j	268c <.L41>

00002788 <.L44>:
    2788:	0027f693          	andi	a3,a5,2
    278c:	00069a63          	bnez	a3,27a0 <.L95>
    2790:	0017f793          	andi	a5,a5,1
    2794:	f6078ee3          	beqz	a5,2710 <.L43>
    2798:	00400d13          	li	s10,4
    279c:	f75ff06f          	j	2710 <.L43>

000027a0 <.L95>:
    27a0:	00000d13          	li	s10,0
    27a4:	f6dff06f          	j	2710 <.L43>

000027a8 <.L47>:
    27a8:	00300693          	li	a3,3
    27ac:	0cd71c63          	bne	a4,a3,2884 <.L50>
    27b0:	03000713          	li	a4,48
    27b4:	0ae79e63          	bne	a5,a4,2870 <.L51>

000027b8 <.L61>:
    27b8:	00b00d13          	li	s10,11
    27bc:	34040a63          	beqz	s0,2b10 <.L111>

000027c0 <.L87>:
    27c0:	00040793          	mv	a5,s0
    27c4:	3884f463          	bgeu	s1,s0,2b4c <.L106>
    27c8:	40940433          	sub	s0,s0,s1
    27cc:	00b00d13          	li	s10,11

000027d0 <.L52>:
    27d0:	0c812683          	lw	a3,200(sp)
    27d4:	00000993          	li	s3,0
    27d8:	00d7f463          	bgeu	a5,a3,27e0 <.L79>
    27dc:	40f689b3          	sub	s3,a3,a5

000027e0 <.L79>:
    27e0:	00fc87b3          	add	a5,s9,a5
    27e4:	01378cb3          	add	s9,a5,s3
    27e8:	03000793          	li	a5,48
    27ec:	00f91663          	bne	s2,a5,27f8 <.L80>
    27f0:	01340433          	add	s0,s0,s3
    27f4:	00000993          	li	s3,0

000027f8 <.L80>:
    27f8:	0d012783          	lw	a5,208(sp)
    27fc:	0087f793          	andi	a5,a5,8
    2800:	00079e63          	bnez	a5,281c <.L81>
    2804:	00012503          	lw	a0,0(sp)
    2808:	00098613          	mv	a2,s3
    280c:	02000593          	li	a1,32
    2810:	b19ff0ef          	jal	ra,2328 <_charpad>
    2814:	caa994e3          	bne	s3,a0,24bc <.L84>
    2818:	00000993          	li	s3,0

0000281c <.L81>:
    281c:	00012583          	lw	a1,0(sp)
    2820:	96018513          	addi	a0,gp,-1696 # c080 <prefix.0>
    2824:	01a50533          	add	a0,a0,s10
    2828:	435000ef          	jal	ra,345c <__GI_fputs>
    282c:	00012503          	lw	a0,0(sp)
    2830:	00040613          	mv	a2,s0
    2834:	03000593          	li	a1,48
    2838:	af1ff0ef          	jal	ra,2328 <_charpad>
    283c:	c8a410e3          	bne	s0,a0,24bc <.L84>
    2840:	00048c63          	beqz	s1,2858 <.L82>
    2844:	00012603          	lw	a2,0(sp)
    2848:	00048593          	mv	a1,s1
    284c:	000d8513          	mv	a0,s11
    2850:	61d020ef          	jal	ra,566c <__stdio_fwrite>
    2854:	c69514e3          	bne	a0,s1,24bc <.L84>

00002858 <.L82>:
    2858:	00012503          	lw	a0,0(sp)
    285c:	00098613          	mv	a2,s3
    2860:	02000593          	li	a1,32
    2864:	ac5ff0ef          	jal	ra,2328 <_charpad>
    2868:	d8a98ce3          	beq	s3,a0,2600 <.L33>
    286c:	c51ff06f          	j	24bc <.L84>

00002870 <.L51>:
    2870:	00040793          	mv	a5,s0
    2874:	2a84fe63          	bgeu	s1,s0,2b30 <.L100>
    2878:	40940433          	sub	s0,s0,s1

0000287c <.L143>:
    287c:	00900d13          	li	s10,9
    2880:	0340006f          	j	28b4 <.L136>

00002884 <.L50>:
    2884:	00400693          	li	a3,4
    2888:	04d71c63          	bne	a4,a3,28e0 <.L55>
    288c:	03000713          	li	a4,48
    2890:	0284f863          	bgeu	s1,s0,28c0 <.L56>
    2894:	0ce79063          	bne	a5,a4,2954 <.L57>
    2898:	00500793          	li	a5,5
    289c:	f3a7c2e3          	blt	a5,s10,27c0 <.L87>
    28a0:	00040793          	mv	a5,s0

000028a4 <.L135>:
    28a4:	40940433          	sub	s0,s0,s1

000028a8 <.L59>:
    28a8:	00500693          	li	a3,5
    28ac:	00100713          	li	a4,1
    28b0:	01a6d463          	bge	a3,s10,28b8 <.L53>

000028b4 <.L136>:
    28b4:	00200713          	li	a4,2

000028b8 <.L53>:
    28b8:	00e787b3          	add	a5,a5,a4
    28bc:	f15ff06f          	j	27d0 <.L52>

000028c0 <.L56>:
    28c0:	00148413          	addi	s0,s1,1
    28c4:	08e79863          	bne	a5,a4,2954 <.L57>
    28c8:	00500793          	li	a5,5
    28cc:	29a7ce63          	blt	a5,s10,2b68 <.L102>
    28d0:	24048a63          	beqz	s1,2b24 <.L103>

000028d4 <.L108>:
    28d4:	00048793          	mv	a5,s1
    28d8:	00000413          	li	s0,0
    28dc:	fcdff06f          	j	28a8 <.L59>

000028e0 <.L55>:
    28e0:	03000713          	li	a4,48
    28e4:	06e79863          	bne	a5,a4,2954 <.L57>
    28e8:	00500793          	li	a5,5
    28ec:	eda7c6e3          	blt	a5,s10,27b8 <.L61>

000028f0 <.L62>:
    28f0:	20040c63          	beqz	s0,2b08 <.L64>
    28f4:	00040793          	mv	a5,s0
    28f8:	fa84e6e3          	bltu	s1,s0,28a4 <.L135>
    28fc:	fd9ff06f          	j	28d4 <.L108>

00002900 <.L46>:
    2900:	03000693          	li	a3,48
    2904:	04d79863          	bne	a5,a3,2954 <.L57>
    2908:	00500793          	li	a5,5
    290c:	03a7d463          	bge	a5,s10,2934 <.L63>

00002910 <.L48>:
    2910:	00100793          	li	a5,1
    2914:	eaf712e3          	bne	a4,a5,27b8 <.L61>
    2918:	0000bd97          	auipc	s11,0xb
    291c:	158d8d93          	addi	s11,s11,344 # da70 <.LC0>
    2920:	00b00d13          	li	s10,11
    2924:	00500493          	li	s1,5
    2928:	00000413          	li	s0,0
    292c:	00500793          	li	a5,5
    2930:	ea1ff06f          	j	27d0 <.L52>

00002934 <.L63>:
    2934:	00100793          	li	a5,1
    2938:	faf71ce3          	bne	a4,a5,28f0 <.L62>
    293c:	00500793          	li	a5,5
    2940:	00000413          	li	s0,0
    2944:	00500493          	li	s1,5
    2948:	0000bd97          	auipc	s11,0xb
    294c:	128d8d93          	addi	s11,s11,296 # da70 <.LC0>
    2950:	f69ff06f          	j	28b8 <.L53>

00002954 <.L57>:
    2954:	1c84f463          	bgeu	s1,s0,2b1c <.L109>
    2958:	40940433          	sub	s0,s0,s1

0000295c <.L65>:
    295c:	00b00713          	li	a4,11
    2960:	009407b3          	add	a5,s0,s1
    2964:	f4ed12e3          	bne	s10,a4,28a8 <.L59>
    2968:	e69ff06f          	j	27d0 <.L52>

0000296c <.L34>:
    296c:	00f00713          	li	a4,15
    2970:	08f76063          	bltu	a4,a5,29f0 <.L66>
    2974:	0d012703          	lw	a4,208(sp)
    2978:	02c12783          	lw	a5,44(sp)
    297c:	01010413          	addi	s0,sp,16
    2980:	01877733          	and	a4,a4,s8
    2984:	04070463          	beqz	a4,29cc <.L67>
    2988:	0007a603          	lw	a2,0(a5)
    298c:	0047a683          	lw	a3,4(a5)
    2990:	0087a703          	lw	a4,8(a5)
    2994:	00c7a783          	lw	a5,12(a5)

00002998 <.L68>:
    2998:	00012503          	lw	a0,0(sp)
    299c:	00c12823          	sw	a2,16(sp)
    29a0:	00d12a23          	sw	a3,20(sp)
    29a4:	0c410613          	addi	a2,sp,196
    29a8:	00000697          	auipc	a3,0x0
    29ac:	9f068693          	addi	a3,a3,-1552 # 2398 <_fp_out_narrow>
    29b0:	00040593          	mv	a1,s0
    29b4:	00e12c23          	sw	a4,24(sp)
    29b8:	00f12e23          	sw	a5,28(sp)
    29bc:	04c030ef          	jal	ra,5a08 <_fpmaxtostr>

000029c0 <.L142>:
    29c0:	ae054ee3          	bltz	a0,24bc <.L84>
    29c4:	00ac8cb3          	add	s9,s9,a0
    29c8:	c39ff06f          	j	2600 <.L33>

000029cc <.L67>:
    29cc:	0047a603          	lw	a2,4(a5)
    29d0:	0007a583          	lw	a1,0(a5)
    29d4:	00040513          	mv	a0,s0
    29d8:	6f0080ef          	jal	ra,b0c8 <__extenddftf2>
    29dc:	01012603          	lw	a2,16(sp)
    29e0:	01412683          	lw	a3,20(sp)
    29e4:	01812703          	lw	a4,24(sp)
    29e8:	01c12783          	lw	a5,28(sp)
    29ec:	fadff06f          	j	2998 <.L68>

000029f0 <.L66>:
    29f0:	01100713          	li	a4,17
    29f4:	acf774e3          	bgeu	a4,a5,24bc <.L84>
    29f8:	01300713          	li	a4,19
    29fc:	08f76a63          	bltu	a4,a5,2a90 <.L70>
    2a00:	02c12683          	lw	a3,44(sp)
    2a04:	0006a403          	lw	s0,0(a3)
    2a08:	06e79263          	bne	a5,a4,2a6c <.L71>
    2a0c:	0c412703          	lw	a4,196(sp)
    2a10:	02040c63          	beqz	s0,2a48 <.L72>
    2a14:	00040d93          	mv	s11,s0

00002a18 <.L73>:
    2a18:	0c412783          	lw	a5,196(sp)
    2a1c:	fff00593          	li	a1,-1
    2a20:	0007c463          	bltz	a5,2a28 <.L74>
    2a24:	00078593          	mv	a1,a5

00002a28 <.L74>:
    2a28:	000d8513          	mv	a0,s11
    2a2c:	741000ef          	jal	ra,396c <__GI_strnlen>
    2a30:	00050793          	mv	a5,a0
    2a34:	00050493          	mv	s1,a0
    2a38:	02000913          	li	s2,32

00002a3c <.L137>:
    2a3c:	00b00d13          	li	s10,11
    2a40:	00000413          	li	s0,0
    2a44:	d8dff06f          	j	27d0 <.L52>

00002a48 <.L72>:
    2a48:	00500793          	li	a5,5
    2a4c:	0000bd97          	auipc	s11,0xb
    2a50:	02cd8d93          	addi	s11,s11,44 # da78 <.LC1>
    2a54:	02000913          	li	s2,32
    2a58:	00b00d13          	li	s10,11
    2a5c:	0ae7fa63          	bgeu	a5,a4,2b10 <.L111>
    2a60:	00600493          	li	s1,6
    2a64:	00600793          	li	a5,6
    2a68:	d69ff06f          	j	27d0 <.L52>

00002a6c <.L71>:
    2a6c:	04810023          	sb	s0,64(sp)
    2a70:	040100a3          	sb	zero,65(sp)
    2a74:	04010d93          	addi	s11,sp,64
    2a78:	02000913          	li	s2,32
    2a7c:	00b00d13          	li	s10,11
    2a80:	00100493          	li	s1,1
    2a84:	00000413          	li	s0,0
    2a88:	00100793          	li	a5,1
    2a8c:	d45ff06f          	j	27d0 <.L52>

00002a90 <.L70>:
    2a90:	01400713          	li	a4,20
    2a94:	02e79263          	bne	a5,a4,2ab8 <.L75>
    2a98:	00009797          	auipc	a5,0x9
    2a9c:	3fc7a783          	lw	a5,1020(a5) # be94 <_GLOBAL_OFFSET_TABLE_+0xc>
    2aa0:	0007a503          	lw	a0,0(a5)
    2aa4:	08000613          	li	a2,128
    2aa8:	04010593          	addi	a1,sp,64
    2aac:	77d000ef          	jal	ra,3a28 <__GI___glibc_strerror_r>
    2ab0:	00050d93          	mv	s11,a0
    2ab4:	f65ff06f          	j	2a18 <.L73>

00002ab8 <.L75>:
    2ab8:	0cc12583          	lw	a1,204(sp)
    2abc:	0000b717          	auipc	a4,0xb
    2ac0:	29c72703          	lw	a4,668(a4) # dd58 <_custom_printf_spec>
    2ac4:	00a70693          	addi	a3,a4,10
    2ac8:	00070793          	mv	a5,a4

00002acc <.L78>:
    2acc:	0007c503          	lbu	a0,0(a5)
    2ad0:	02b51663          	bne	a0,a1,2afc <.L76>
    2ad4:	40e787b3          	sub	a5,a5,a4
    2ad8:	00279793          	slli	a5,a5,0x2
    2adc:	0000d717          	auipc	a4,0xd
    2ae0:	33870713          	addi	a4,a4,824 # fe14 <_custom_printf_handler>
    2ae4:	00f707b3          	add	a5,a4,a5
    2ae8:	0007a783          	lw	a5,0(a5)
    2aec:	00012503          	lw	a0,0(sp)
    2af0:	0c410593          	addi	a1,sp,196
    2af4:	000780e7          	jalr	a5
    2af8:	ec9ff06f          	j	29c0 <.L142>

00002afc <.L76>:
    2afc:	00178793          	addi	a5,a5,1
    2b00:	fcd796e3          	bne	a5,a3,2acc <.L78>
    2b04:	9b9ff06f          	j	24bc <.L84>

00002b08 <.L64>:
    2b08:	00b00793          	li	a5,11
    2b0c:	02fd1863          	bne	s10,a5,2b3c <.L112>

00002b10 <.L111>:
    2b10:	00000493          	li	s1,0
    2b14:	00000793          	li	a5,0
    2b18:	cb9ff06f          	j	27d0 <.L52>

00002b1c <.L109>:
    2b1c:	00000413          	li	s0,0
    2b20:	e3dff06f          	j	295c <.L65>

00002b24 <.L103>:
    2b24:	00100793          	li	a5,1
    2b28:	00100413          	li	s0,1
    2b2c:	d7dff06f          	j	28a8 <.L59>

00002b30 <.L100>:
    2b30:	00048793          	mv	a5,s1
    2b34:	00000413          	li	s0,0
    2b38:	d45ff06f          	j	287c <.L143>

00002b3c <.L112>:
    2b3c:	00000793          	li	a5,0
    2b40:	00000493          	li	s1,0
    2b44:	00100713          	li	a4,1
    2b48:	d71ff06f          	j	28b8 <.L53>

00002b4c <.L106>:
    2b4c:	00048793          	mv	a5,s1
    2b50:	eedff06f          	j	2a3c <.L137>

00002b54 <.L23>:
    2b54:	a0a410e3          	bne	s0,a0,2554 <.L85>
    2b58:	969ff06f          	j	24c0 <.L17>

00002b5c <.L97>:
    2b5c:	00048793          	mv	a5,s1
    2b60:	00000413          	li	s0,0
    2b64:	be9ff06f          	j	274c <.L49>

00002b68 <.L102>:
    2b68:	00100413          	li	s0,1
    2b6c:	c55ff06f          	j	27c0 <.L87>

00002b70 <_ppfs_init>:
    2b70:	fe010113          	addi	sp,sp,-32
    2b74:	00912a23          	sw	s1,20(sp)
    2b78:	0e000613          	li	a2,224
    2b7c:	00058493          	mv	s1,a1
    2b80:	00000593          	li	a1,0
    2b84:	00812c23          	sw	s0,24(sp)
    2b88:	01212823          	sw	s2,16(sp)
    2b8c:	00050413          	mv	s0,a0
    2b90:	00112e23          	sw	ra,28(sp)
    2b94:	01312623          	sw	s3,12(sp)
    2b98:	499000ef          	jal	ra,3830 <__GI_memset>
    2b9c:	01842783          	lw	a5,24(s0)
    2ba0:	02840913          	addi	s2,s0,40
    2ba4:	00942023          	sw	s1,0(s0)
    2ba8:	fff78793          	addi	a5,a5,-1
    2bac:	00f42c23          	sw	a5,24(s0)
    2bb0:	04c40713          	addi	a4,s0,76
    2bb4:	00090793          	mv	a5,s2
    2bb8:	00800693          	li	a3,8

00002bbc <.L2>:
    2bbc:	00478793          	addi	a5,a5,4
    2bc0:	fed7ae23          	sw	a3,-4(a5)
    2bc4:	fee79ce3          	bne	a5,a4,2bbc <.L2>
    2bc8:	00048793          	mv	a5,s1
    2bcc:	02500993          	li	s3,37

00002bd0 <.L3>:
    2bd0:	0007c703          	lbu	a4,0(a5)
    2bd4:	02071063          	bnez	a4,2bf4 <.L8>
    2bd8:	01842783          	lw	a5,24(s0)
    2bdc:	00942023          	sw	s1,0(s0)
    2be0:	00800713          	li	a4,8

00002be4 <.L9>:
    2be4:	fff78793          	addi	a5,a5,-1
    2be8:	0407de63          	bgez	a5,2c44 <.L11>
    2bec:	00000513          	li	a0,0
    2bf0:	0280006f          	j	2c18 <.L1>

00002bf4 <.L8>:
    2bf4:	0017c683          	lbu	a3,1(a5)
    2bf8:	05371263          	bne	a4,s3,2c3c <.L4>
    2bfc:	00178793          	addi	a5,a5,1
    2c00:	03368e63          	beq	a3,s3,2c3c <.L4>
    2c04:	00f42023          	sw	a5,0(s0)
    2c08:	00040513          	mv	a0,s0
    2c0c:	284000ef          	jal	ra,2e90 <_ppfs_parsespec>
    2c10:	02055263          	bgez	a0,2c34 <.L5>

00002c14 <.L10>:
    2c14:	fff00513          	li	a0,-1

00002c18 <.L1>:
    2c18:	01c12083          	lw	ra,28(sp)
    2c1c:	01812403          	lw	s0,24(sp)
    2c20:	01412483          	lw	s1,20(sp)
    2c24:	01012903          	lw	s2,16(sp)
    2c28:	00c12983          	lw	s3,12(sp)
    2c2c:	02010113          	addi	sp,sp,32
    2c30:	00008067          	ret

00002c34 <.L5>:
    2c34:	00042783          	lw	a5,0(s0)
    2c38:	f99ff06f          	j	2bd0 <.L3>

00002c3c <.L4>:
    2c3c:	00178793          	addi	a5,a5,1
    2c40:	f91ff06f          	j	2bd0 <.L3>

00002c44 <.L11>:
    2c44:	00092683          	lw	a3,0(s2)
    2c48:	fce686e3          	beq	a3,a4,2c14 <.L10>
    2c4c:	00490913          	addi	s2,s2,4
    2c50:	f95ff06f          	j	2be4 <.L9>

00002c54 <_ppfs_prepargs>:
    2c54:	ff010113          	addi	sp,sp,-16
    2c58:	00912223          	sw	s1,4(sp)
    2c5c:	01852483          	lw	s1,24(a0)
    2c60:	00112623          	sw	ra,12(sp)
    2c64:	00812423          	sw	s0,8(sp)
    2c68:	04b52623          	sw	a1,76(a0)
    2c6c:	02905063          	blez	s1,2c8c <.L1>
    2c70:	00050413          	mv	s0,a0
    2c74:	00952e23          	sw	s1,28(a0)
    2c78:	00052c23          	sw	zero,24(a0)
    2c7c:	00052223          	sw	zero,4(a0)
    2c80:	00052423          	sw	zero,8(a0)
    2c84:	01c000ef          	jal	ra,2ca0 <_ppfs_setargs>
    2c88:	00942c23          	sw	s1,24(s0)

00002c8c <.L1>:
    2c8c:	00c12083          	lw	ra,12(sp)
    2c90:	00812403          	lw	s0,8(sp)
    2c94:	00412483          	lw	s1,4(sp)
    2c98:	01010113          	addi	sp,sp,16
    2c9c:	00008067          	ret

00002ca0 <_ppfs_setargs>:
    2ca0:	01852603          	lw	a2,24(a0)
    2ca4:	00852783          	lw	a5,8(a0)
    2ca8:	00452683          	lw	a3,4(a0)
    2cac:	05050713          	addi	a4,a0,80
    2cb0:	14061663          	bnez	a2,2dfc <.L2>
    2cb4:	ff010113          	addi	sp,sp,-16
    2cb8:	00812623          	sw	s0,12(sp)
    2cbc:	00912423          	sw	s1,8(sp)
    2cc0:	800005b7          	lui	a1,0x80000
    2cc4:	00b79e63          	bne	a5,a1,2ce0 <.L3>
    2cc8:	04c52783          	lw	a5,76(a0)
    2ccc:	00478593          	addi	a1,a5,4
    2cd0:	0007a783          	lw	a5,0(a5)
    2cd4:	04b52623          	sw	a1,76(a0)
    2cd8:	04f52823          	sw	a5,80(a0)
    2cdc:	00f52423          	sw	a5,8(a0)

00002ce0 <.L3>:
    2ce0:	800007b7          	lui	a5,0x80000
    2ce4:	00f69e63          	bne	a3,a5,2d00 <.L4>
    2ce8:	04c52783          	lw	a5,76(a0)
    2cec:	00478693          	addi	a3,a5,4 # 80000004 <_ebss+0x7fff01b4>
    2cf0:	0007a783          	lw	a5,0(a5)
    2cf4:	04d52623          	sw	a3,76(a0)
    2cf8:	04f52823          	sw	a5,80(a0)
    2cfc:	00f52223          	sw	a5,4(a0)

00002d00 <.L4>:
    2d00:	01c52f03          	lw	t5,28(a0)
    2d04:	000017b7          	lui	a5,0x1
    2d08:	02850893          	addi	a7,a0,40
    2d0c:	00800e13          	li	t3,8
    2d10:	80078f93          	addi	t6,a5,-2048 # 800 <core_list_init+0x34>
    2d14:	80778813          	addi	a6,a5,-2041
    2d18:	00200e93          	li	t4,2
    2d1c:	00700413          	li	s0,7

00002d20 <.L5>:
    2d20:	03e64e63          	blt	a2,t5,2d5c <.L17>
    2d24:	00852783          	lw	a5,8(a0)
    2d28:	0207d263          	bgez	a5,2d4c <.L1>
    2d2c:	40f007b3          	neg	a5,a5
    2d30:	00f52423          	sw	a5,8(a0)
    2d34:	01052783          	lw	a5,16(a0)
    2d38:	ffe7f793          	andi	a5,a5,-2
    2d3c:	0087e793          	ori	a5,a5,8
    2d40:	00f52823          	sw	a5,16(a0)
    2d44:	02000793          	li	a5,32
    2d48:	00f52a23          	sw	a5,20(a0)

00002d4c <.L1>:
    2d4c:	00c12403          	lw	s0,12(sp)
    2d50:	00812483          	lw	s1,8(sp)
    2d54:	01010113          	addi	sp,sp,16
    2d58:	00008067          	ret

00002d5c <.L17>:
    2d5c:	0008a683          	lw	a3,0(a7)
    2d60:	00160613          	addi	a2,a2,1
    2d64:	05c68863          	beq	a3,t3,2db4 <.L6>
    2d68:	04c52783          	lw	a5,76(a0)
    2d6c:	04de4863          	blt	t3,a3,2dbc <.L7>
    2d70:	01d68463          	beq	a3,t4,2d78 <.L10>
    2d74:	00decc63          	blt	t4,a3,2d8c <.L9>

00002d78 <.L10>:
    2d78:	00478693          	addi	a3,a5,4
    2d7c:	04d52623          	sw	a3,76(a0)
    2d80:	0007a783          	lw	a5,0(a5)
    2d84:	00f72023          	sw	a5,0(a4)
    2d88:	0280006f          	j	2db0 <.L16>

00002d8c <.L9>:
    2d8c:	fe8696e3          	bne	a3,s0,2d78 <.L10>

00002d90 <.L12>:
    2d90:	00778793          	addi	a5,a5,7
    2d94:	ff87f793          	andi	a5,a5,-8
    2d98:	00878693          	addi	a3,a5,8
    2d9c:	04d52623          	sw	a3,76(a0)
    2da0:	0007a303          	lw	t1,0(a5)
    2da4:	0047a383          	lw	t2,4(a5)
    2da8:	00672023          	sw	t1,0(a4)
    2dac:	00772223          	sw	t2,4(a4)

00002db0 <.L16>:
    2db0:	01070713          	addi	a4,a4,16

00002db4 <.L6>:
    2db4:	00488893          	addi	a7,a7,4
    2db8:	f69ff06f          	j	2d20 <.L5>

00002dbc <.L7>:
    2dbc:	80068593          	addi	a1,a3,-2048
    2dc0:	fc0588e3          	beqz	a1,2d90 <.L12>
    2dc4:	fadfdae3          	bge	t6,a3,2d78 <.L10>
    2dc8:	fb0698e3          	bne	a3,a6,2d78 <.L10>
    2dcc:	00478693          	addi	a3,a5,4
    2dd0:	04d52623          	sw	a3,76(a0)
    2dd4:	0007a783          	lw	a5,0(a5)
    2dd8:	0007a303          	lw	t1,0(a5)
    2ddc:	0047a583          	lw	a1,4(a5)
    2de0:	0087a683          	lw	a3,8(a5)
    2de4:	00c7a783          	lw	a5,12(a5)
    2de8:	00672023          	sw	t1,0(a4)
    2dec:	00b72223          	sw	a1,4(a4)
    2df0:	00d72423          	sw	a3,8(a4)
    2df4:	00f72623          	sw	a5,12(a4)
    2df8:	fb9ff06f          	j	2db0 <.L16>

00002dfc <.L2>:
    2dfc:	80000637          	lui	a2,0x80000
    2e00:	00c79c63          	bne	a5,a2,2e18 <.L19>
    2e04:	02454783          	lbu	a5,36(a0)
    2e08:	00479793          	slli	a5,a5,0x4
    2e0c:	00f707b3          	add	a5,a4,a5
    2e10:	ff07a783          	lw	a5,-16(a5)
    2e14:	00f52423          	sw	a5,8(a0)

00002e18 <.L19>:
    2e18:	800007b7          	lui	a5,0x80000
    2e1c:	00f69c63          	bne	a3,a5,2e34 <.L26>
    2e20:	02554783          	lbu	a5,37(a0)
    2e24:	00479793          	slli	a5,a5,0x4
    2e28:	00f70733          	add	a4,a4,a5
    2e2c:	ff072783          	lw	a5,-16(a4)
    2e30:	00f52223          	sw	a5,4(a0)

00002e34 <.L26>:
    2e34:	00852783          	lw	a5,8(a0)
    2e38:	0207d463          	bgez	a5,2e60 <.L28>
    2e3c:	40f007b3          	neg	a5,a5
    2e40:	00f52423          	sw	a5,8(a0)
    2e44:	01052783          	lw	a5,16(a0)
    2e48:	ffe7f793          	andi	a5,a5,-2
    2e4c:	0087e793          	ori	a5,a5,8
    2e50:	00f52823          	sw	a5,16(a0)
    2e54:	02000793          	li	a5,32
    2e58:	00f52a23          	sw	a5,20(a0)
    2e5c:	00008067          	ret

00002e60 <.L28>:
    2e60:	00008067          	ret

00002e64 <_promoted_size>:
    2e64:	98418793          	addi	a5,gp,-1660 # c0a4 <type_sizes>
    2e68:	96c18713          	addi	a4,gp,-1684 # c08c <type_codes>

00002e6c <.L3>:
    2e6c:	ffe79683          	lh	a3,-2(a5) # 7ffffffe <_ebss+0x7fff01ae>
    2e70:	ffe78793          	addi	a5,a5,-2
    2e74:	00a68463          	beq	a3,a0,2e7c <.L2>
    2e78:	fee79ae3          	bne	a5,a4,2e6c <.L3>

00002e7c <.L2>:
    2e7c:	40e787b3          	sub	a5,a5,a4
    2e80:	4017d793          	srai	a5,a5,0x1
    2e84:	00f70733          	add	a4,a4,a5
    2e88:	01874503          	lbu	a0,24(a4)
    2e8c:	00008067          	ret

00002e90 <_ppfs_parsespec>:
    2e90:	f9010113          	addi	sp,sp,-112
    2e94:	00800793          	li	a5,8
    2e98:	0cccd8b7          	lui	a7,0xcccd
    2e9c:	80000337          	lui	t1,0x80000
    2ea0:	00052703          	lw	a4,0(a0)
    2ea4:	06912223          	sw	s1,100(sp)
    2ea8:	07212023          	sw	s2,96(sp)
    2eac:	05312e23          	sw	s3,92(sp)
    2eb0:	05412c23          	sw	s4,88(sp)
    2eb4:	01852983          	lw	s3,24(a0)
    2eb8:	05512a23          	sw	s5,84(sp)
    2ebc:	00050493          	mv	s1,a0
    2ec0:	ccb88f93          	addi	t6,a7,-821 # ccccccb <_ebss+0xccbce7b>
    2ec4:	06112623          	sw	ra,108(sp)
    2ec8:	06812423          	sw	s0,104(sp)
    2ecc:	05612823          	sw	s6,80(sp)
    2ed0:	05712623          	sw	s7,76(sp)
    2ed4:	05812423          	sw	s8,72(sp)
    2ed8:	05912223          	sw	s9,68(sp)
    2edc:	05a12023          	sw	s10,64(sp)
    2ee0:	03b12e23          	sw	s11,60(sp)
    2ee4:	00012423          	sw	zero,8(sp)
    2ee8:	00012623          	sw	zero,12(sp)
    2eec:	00f12a23          	sw	a5,20(sp)
    2ef0:	00f12c23          	sw	a5,24(sp)
    2ef4:	0000bf17          	auipc	t5,0xb
    2ef8:	e7cf2f03          	lw	t5,-388(t5) # dd70 <__GI___ctype_b>
    2efc:	00000593          	li	a1,0
    2f00:	00000693          	li	a3,0
    2f04:	00000813          	li	a6,0
    2f08:	02a00513          	li	a0,42
    2f0c:	00a00293          	li	t0,10
    2f10:	ccc88893          	addi	a7,a7,-820
    2f14:	fff34313          	not	t1,t1
    2f18:	03700393          	li	t2,55
    2f1c:	02500e13          	li	t3,37
    2f20:	02e00913          	li	s2,46
    2f24:	02400e93          	li	t4,36
    2f28:	03000a13          	li	s4,48
    2f2c:	06d00a93          	li	s5,109

00002f30 <.L6>:
    2f30:	00074783          	lbu	a5,0(a4)
    2f34:	00070413          	mv	s0,a4
    2f38:	00a79c63          	bne	a5,a0,2f50 <.L7>
    2f3c:	00259793          	slli	a5,a1,0x2
    2f40:	03010613          	addi	a2,sp,48
    2f44:	40f607b3          	sub	a5,a2,a5
    2f48:	fe07a223          	sw	zero,-28(a5)
    2f4c:	00170413          	addi	s0,a4,1

00002f50 <.L7>:
    2f50:	00000793          	li	a5,0

00002f54 <.L8>:
    2f54:	00044603          	lbu	a2,0(s0)
    2f58:	00161b13          	slli	s6,a2,0x1
    2f5c:	016f0b33          	add	s6,t5,s6
    2f60:	000b5b03          	lhu	s6,0(s6)
    2f64:	008b7b13          	andi	s6,s6,8
    2f68:	040b1e63          	bnez	s6,2fc4 <.L11>
    2f6c:	fff74b03          	lbu	s6,-1(a4)
    2f70:	17cb1263          	bne	s6,t3,30d4 <.L12>
    2f74:	0dd61c63          	bne	a2,t4,304c <.L13>
    2f78:	0af05663          	blez	a5,3024 <.L14>
    2f7c:	00140713          	addi	a4,s0,1
    2f80:	06099663          	bnez	s3,2fec <.L15>

00002f84 <.L19>:
    2f84:	fff00513          	li	a0,-1

00002f88 <.L5>:
    2f88:	06c12083          	lw	ra,108(sp)
    2f8c:	06812403          	lw	s0,104(sp)
    2f90:	06412483          	lw	s1,100(sp)
    2f94:	06012903          	lw	s2,96(sp)
    2f98:	05c12983          	lw	s3,92(sp)
    2f9c:	05812a03          	lw	s4,88(sp)
    2fa0:	05412a83          	lw	s5,84(sp)
    2fa4:	05012b03          	lw	s6,80(sp)
    2fa8:	04c12b83          	lw	s7,76(sp)
    2fac:	04812c03          	lw	s8,72(sp)
    2fb0:	04412c83          	lw	s9,68(sp)
    2fb4:	04012d03          	lw	s10,64(sp)
    2fb8:	03c12d83          	lw	s11,60(sp)
    2fbc:	07010113          	addi	sp,sp,112
    2fc0:	00008067          	ret

00002fc4 <.L11>:
    2fc4:	00ffd663          	bge	t6,a5,2fd0 <.L9>
    2fc8:	01179e63          	bne	a5,a7,2fe4 <.L54>
    2fcc:	00c3ec63          	bltu	t2,a2,2fe4 <.L54>

00002fd0 <.L9>:
    2fd0:	025787b3          	mul	a5,a5,t0
    2fd4:	fd060613          	addi	a2,a2,-48 # 7fffffd0 <_ebss+0x7fff0180>
    2fd8:	00f607b3          	add	a5,a2,a5

00002fdc <.L10>:
    2fdc:	00140413          	addi	s0,s0,1
    2fe0:	f75ff06f          	j	2f54 <.L8>

00002fe4 <.L54>:
    2fe4:	00030793          	mv	a5,t1
    2fe8:	ff5ff06f          	j	2fdc <.L10>

00002fec <.L15>:
    2fec:	00f12823          	sw	a5,16(sp)
    2ff0:	00f9d463          	bge	s3,a5,2ff8 <.L18>
    2ff4:	00078993          	mv	s3,a5

00002ff8 <.L18>:
    2ff8:	00070413          	mv	s0,a4

00002ffc <.L25>:
    2ffc:	00044b03          	lbu	s6,0(s0)
    3000:	00100793          	li	a5,1
    3004:	0000b717          	auipc	a4,0xb
    3008:	a9c70713          	addi	a4,a4,-1380 # daa0 <spec_flags.5>

0000300c <.L26>:
    300c:	00074603          	lbu	a2,0(a4)
    3010:	00170713          	addi	a4,a4,1
    3014:	09661c63          	bne	a2,s6,30ac <.L24>
    3018:	00140413          	addi	s0,s0,1
    301c:	00f6e6b3          	or	a3,a3,a5
    3020:	fddff06f          	j	2ffc <.L25>

00003024 <.L14>:
    3024:	f73040e3          	bgtz	s3,2f84 <.L19>

00003028 <.L20>:
    3028:	00074603          	lbu	a2,0(a4)
    302c:	06877c63          	bgeu	a4,s0,30a4 <.L56>
    3030:	07460a63          	beq	a2,s4,30a4 <.L56>
    3034:	00000993          	li	s3,0
    3038:	04a61663          	bne	a2,a0,3084 <.L22>

0000303c <.L23>:
    303c:	00170713          	addi	a4,a4,1
    3040:	f4e412e3          	bne	s0,a4,2f84 <.L19>
    3044:	00000993          	li	s3,0
    3048:	0380006f          	j	3080 <.L74>

0000304c <.L13>:
    304c:	fd305ee3          	blez	s3,3028 <.L20>
    3050:	f3561ae3          	bne	a2,s5,2f84 <.L19>
    3054:	00074703          	lbu	a4,0(a4)
    3058:	02a71663          	bne	a4,a0,3084 <.L22>

0000305c <.L21>:
    305c:	00044703          	lbu	a4,0(s0)
    3060:	00140613          	addi	a2,s0,1
    3064:	f3d710e3          	bne	a4,t4,2f84 <.L19>
    3068:	f0f05ee3          	blez	a5,2f84 <.L19>
    306c:	03010413          	addi	s0,sp,48
    3070:	00259713          	slli	a4,a1,0x2
    3074:	40e40733          	sub	a4,s0,a4
    3078:	fcf72c23          	sw	a5,-40(a4)
    307c:	00060413          	mv	s0,a2

00003080 <.L74>:
    3080:	800007b7          	lui	a5,0x80000

00003084 <.L22>:
    3084:	00044b03          	lbu	s6,0(s0)
    3088:	06059263          	bnez	a1,30ec <.L28>
    308c:	052b1c63          	bne	s6,s2,30e4 <.L57>
    3090:	00140413          	addi	s0,s0,1
    3094:	00078813          	mv	a6,a5
    3098:	fff00593          	li	a1,-1

0000309c <.L27>:
    309c:	00040713          	mv	a4,s0
    30a0:	e91ff06f          	j	2f30 <.L6>

000030a4 <.L56>:
    30a4:	00000993          	li	s3,0
    30a8:	f51ff06f          	j	2ff8 <.L18>

000030ac <.L24>:
    30ac:	00074603          	lbu	a2,0(a4)
    30b0:	00179793          	slli	a5,a5,0x1
    30b4:	f4061ce3          	bnez	a2,300c <.L26>
    30b8:	4016d793          	srai	a5,a3,0x1
    30bc:	0057f793          	andi	a5,a5,5
    30c0:	fff7c793          	not	a5,a5
    30c4:	00f6f6b3          	and	a3,a3,a5
    30c8:	fff44783          	lbu	a5,-1(s0)
    30cc:	fdc798e3          	bne	a5,t3,309c <.L27>
    30d0:	00000793          	li	a5,0

000030d4 <.L12>:
    30d4:	00074603          	lbu	a2,0(a4)
    30d8:	faa616e3          	bne	a2,a0,3084 <.L22>
    30dc:	f60980e3          	beqz	s3,303c <.L23>
    30e0:	f7dff06f          	j	305c <.L21>

000030e4 <.L57>:
    30e4:	00078813          	mv	a6,a5
    30e8:	fff00793          	li	a5,-1

000030ec <.L28>:
    30ec:	99018713          	addi	a4,gp,-1648 # c0b0 <qual_chars.4>
    30f0:	00070613          	mv	a2,a4

000030f4 <.L31>:
    30f4:	00074583          	lbu	a1,0(a4)
    30f8:	1b659663          	bne	a1,s6,32a4 <.L29>
    30fc:	00140413          	addi	s0,s0,1

00003100 <.L30>:
    3100:	40c70633          	sub	a2,a4,a2
    3104:	00100513          	li	a0,1
    3108:	00044583          	lbu	a1,0(s0)
    310c:	00c54a63          	blt	a0,a2,3120 <.L32>
    3110:	00074603          	lbu	a2,0(a4)
    3114:	00b61663          	bne	a2,a1,3120 <.L32>
    3118:	00970713          	addi	a4,a4,9
    311c:	00140413          	addi	s0,s0,1

00003120 <.L32>:
    3120:	00974603          	lbu	a2,9(a4)
    3124:	00044583          	lbu	a1,0(s0)
    3128:	00861613          	slli	a2,a2,0x8
    312c:	e4058ce3          	beqz	a1,2f84 <.L19>
    3130:	0000b717          	auipc	a4,0xb
    3134:	95870713          	addi	a4,a4,-1704 # da88 <spec_chars.3>
    3138:	00070893          	mv	a7,a4

0000313c <.L37>:
    313c:	00074503          	lbu	a0,0(a4)
    3140:	16b51a63          	bne	a0,a1,32b4 <.L33>
    3144:	41170733          	sub	a4,a4,a7
    3148:	01100593          	li	a1,17
    314c:	00e5d863          	bge	a1,a4,315c <.L34>
    3150:	40067593          	andi	a1,a2,1024
    3154:	00058463          	beqz	a1,315c <.L34>
    3158:	ffe70713          	addi	a4,a4,-2

0000315c <.L34>:
    315c:	9a418513          	addi	a0,gp,-1628 # c0c4 <spec_ranges.2>
    3160:	02e4a023          	sw	a4,32(s1)
    3164:	00050893          	mv	a7,a0

00003168 <.L35>:
    3168:	00050593          	mv	a1,a0
    316c:	0005c303          	lbu	t1,0(a1) # 80000000 <_ebss+0x7fff01b0>
    3170:	00150513          	addi	a0,a0,1
    3174:	fee34ae3          	blt	t1,a4,3168 <.L35>
    3178:	411585b3          	sub	a1,a1,a7
    317c:	96c18713          	addi	a4,gp,-1684 # c08c <type_codes>
    3180:	00159593          	slli	a1,a1,0x1
    3184:	00b705b3          	add	a1,a4,a1
    3188:	04459703          	lh	a4,68(a1)
    318c:	05459583          	lh	a1,84(a1)
    3190:	00c76733          	or	a4,a4,a2
    3194:	00b77733          	and	a4,a4,a1
    3198:	00e12e23          	sw	a4,28(sp)
    319c:	0000b717          	auipc	a4,0xb
    31a0:	8ec70713          	addi	a4,a4,-1812 # da88 <spec_chars.3>

000031a4 <.L36>:
    31a4:	00044583          	lbu	a1,0(s0)
    31a8:	00f4a223          	sw	a5,4(s1)
    31ac:	0104a423          	sw	a6,8(s1)
    31b0:	00b4a623          	sw	a1,12(s1)
    31b4:	0046f793          	andi	a5,a3,4
    31b8:	03000593          	li	a1,48
    31bc:	00079463          	bnez	a5,31c4 <.L38>
    31c0:	02000593          	li	a1,32

000031c4 <.L38>:
    31c4:	000017b7          	lui	a5,0x1
    31c8:	f0078793          	addi	a5,a5,-256 # f00 <matrix_test+0x114>
    31cc:	00f67633          	and	a2,a2,a5
    31d0:	ffb6f693          	andi	a3,a3,-5
    31d4:	00100793          	li	a5,1
    31d8:	00c6e6b3          	or	a3,a3,a2
    31dc:	00b4aa23          	sw	a1,20(s1)
    31e0:	00d4a823          	sw	a3,16(s1)
    31e4:	00f4ae23          	sw	a5,28(s1)
    31e8:	00074783          	lbu	a5,0(a4)
    31ec:	00079e63          	bnez	a5,3208 <.L41>
    31f0:	00044703          	lbu	a4,0(s0)
    31f4:	06d00793          	li	a5,109
    31f8:	0cf71663          	bne	a4,a5,32c4 <.L40>
    31fc:	01400793          	li	a5,20
    3200:	02f4a023          	sw	a5,32(s1)
    3204:	0004ae23          	sw	zero,28(s1)

00003208 <.L41>:
    3208:	13305e63          	blez	s3,3344 <.L44>
    320c:	01410b93          	addi	s7,sp,20
    3210:	00810b13          	addi	s6,sp,8
    3214:	00000a13          	li	s4,0
    3218:	00200d13          	li	s10,2
    321c:	00900d93          	li	s11,9
    3220:	00800c93          	li	s9,8

00003224 <.L50>:
    3224:	114d4863          	blt	s10,s4,3334 <.L45>
    3228:	000b2783          	lw	a5,0(s6)
    322c:	01448733          	add	a4,s1,s4
    3230:	02f70223          	sb	a5,36(a4)
    3234:	0ff7f793          	zext.b	a5,a5

00003238 <.L46>:
    3238:	00f9d663          	bge	s3,a5,3244 <.L47>
    323c:	d4fdc4e3          	blt	s11,a5,2f84 <.L19>
    3240:	00078993          	mv	s3,a5

00003244 <.L47>:
    3244:	000baa83          	lw	s5,0(s7)
    3248:	039a8863          	beq	s5,s9,3278 <.L48>
    324c:	00279793          	slli	a5,a5,0x2
    3250:	00f48933          	add	s2,s1,a5
    3254:	02492503          	lw	a0,36(s2)
    3258:	01950e63          	beq	a0,s9,3274 <.L49>
    325c:	01550c63          	beq	a0,s5,3274 <.L49>
    3260:	c05ff0ef          	jal	ra,2e64 <_promoted_size>
    3264:	00050c13          	mv	s8,a0
    3268:	000a8513          	mv	a0,s5
    326c:	bf9ff0ef          	jal	ra,2e64 <_promoted_size>
    3270:	01854463          	blt	a0,s8,3278 <.L48>

00003274 <.L49>:
    3274:	03592223          	sw	s5,36(s2)

00003278 <.L48>:
    3278:	01c4a783          	lw	a5,28(s1)
    327c:	001a0713          	addi	a4,s4,1
    3280:	004b8b93          	addi	s7,s7,4
    3284:	004b0b13          	addi	s6,s6,4
    3288:	0b47d263          	bge	a5,s4,332c <.L59>

0000328c <.L51>:
    328c:	01c4a503          	lw	a0,28(s1)
    3290:	00140413          	addi	s0,s0,1
    3294:	0134ac23          	sw	s3,24(s1)
    3298:	0084a023          	sw	s0,0(s1)
    329c:	00250513          	addi	a0,a0,2
    32a0:	ce9ff06f          	j	2f88 <.L5>

000032a4 <.L29>:
    32a4:	00174583          	lbu	a1,1(a4)
    32a8:	00170713          	addi	a4,a4,1
    32ac:	e40594e3          	bnez	a1,30f4 <.L31>
    32b0:	e51ff06f          	j	3100 <.L30>

000032b4 <.L33>:
    32b4:	00174503          	lbu	a0,1(a4)
    32b8:	00170713          	addi	a4,a4,1
    32bc:	e80510e3          	bnez	a0,313c <.L37>
    32c0:	ee5ff06f          	j	31a4 <.L36>

000032c4 <.L40>:
    32c4:	01500793          	li	a5,21
    32c8:	02f4a023          	sw	a5,32(s1)
    32cc:	00044603          	lbu	a2,0(s0)
    32d0:	0000b717          	auipc	a4,0xb
    32d4:	a8872703          	lw	a4,-1400(a4) # dd58 <_custom_printf_spec>
    32d8:	00a70693          	addi	a3,a4,10
    32dc:	00070793          	mv	a5,a4

000032e0 <.L43>:
    32e0:	0007c583          	lbu	a1,0(a5)
    32e4:	02c59e63          	bne	a1,a2,3320 <.L42>
    32e8:	40e787b3          	sub	a5,a5,a4
    32ec:	00279793          	slli	a5,a5,0x2
    32f0:	0000d717          	auipc	a4,0xd
    32f4:	afc70713          	addi	a4,a4,-1284 # fdec <_custom_printf_arginfo>
    32f8:	00f707b3          	add	a5,a4,a5
    32fc:	0007a783          	lw	a5,0(a5)
    3300:	01c10613          	addi	a2,sp,28
    3304:	00500593          	li	a1,5
    3308:	00448513          	addi	a0,s1,4
    330c:	000780e7          	jalr	a5
    3310:	00a4ae23          	sw	a0,28(s1)
    3314:	00500793          	li	a5,5
    3318:	eea7d8e3          	bge	a5,a0,3208 <.L41>
    331c:	c69ff06f          	j	2f84 <.L19>

00003320 <.L42>:
    3320:	00178793          	addi	a5,a5,1
    3324:	faf69ee3          	bne	a3,a5,32e0 <.L43>
    3328:	c5dff06f          	j	2f84 <.L19>

0000332c <.L59>:
    332c:	00070a13          	mv	s4,a4
    3330:	ef5ff06f          	j	3224 <.L50>

00003334 <.L45>:
    3334:	01012703          	lw	a4,16(sp)
    3338:	ffea0793          	addi	a5,s4,-2
    333c:	00e787b3          	add	a5,a5,a4
    3340:	ef9ff06f          	j	3238 <.L46>

00003344 <.L44>:
    3344:	01c4a603          	lw	a2,28(s1)
    3348:	00100793          	li	a5,1
    334c:	02f48323          	sb	a5,38(s1)
    3350:	00261613          	slli	a2,a2,0x2
    3354:	01c10593          	addi	a1,sp,28
    3358:	02848513          	addi	a0,s1,40
    335c:	22c000ef          	jal	ra,3588 <__GI_memcpy>
    3360:	f2dff06f          	j	328c <.L51>

00003364 <__GI___fputc_unlocked>:
    3364:	0105a783          	lw	a5,16(a1)
    3368:	01c5a703          	lw	a4,28(a1)
    336c:	fe010113          	addi	sp,sp,-32
    3370:	00812c23          	sw	s0,24(sp)
    3374:	00912a23          	sw	s1,20(sp)
    3378:	00112e23          	sw	ra,28(sp)
    337c:	00050493          	mv	s1,a0
    3380:	00058413          	mv	s0,a1
    3384:	02e7f463          	bgeu	a5,a4,33ac <.L2>
    3388:	00178713          	addi	a4,a5,1
    338c:	00e5a823          	sw	a4,16(a1)
    3390:	00a78023          	sb	a0,0(a5)

00003394 <.L5>:
    3394:	0ff4f513          	zext.b	a0,s1

00003398 <.L1>:
    3398:	01c12083          	lw	ra,28(sp)
    339c:	01812403          	lw	s0,24(sp)
    33a0:	01412483          	lw	s1,20(sp)
    33a4:	02010113          	addi	sp,sp,32
    33a8:	00008067          	ret

000033ac <.L2>:
    33ac:	0005d783          	lhu	a5,0(a1)
    33b0:	0407f793          	andi	a5,a5,64
    33b4:	06078463          	beqz	a5,341c <.L4>

000033b8 <.L7>:
    33b8:	00442703          	lw	a4,4(s0)
    33bc:	ffd00793          	li	a5,-3
    33c0:	fcf70ae3          	beq	a4,a5,3394 <.L5>
    33c4:	00c42783          	lw	a5,12(s0)
    33c8:	00842703          	lw	a4,8(s0)
    33cc:	06e78a63          	beq	a5,a4,3440 <.L9>
    33d0:	01042703          	lw	a4,16(s0)
    33d4:	04e78e63          	beq	a5,a4,3430 <.L10>

000033d8 <.L14>:
    33d8:	01042783          	lw	a5,16(s0)
    33dc:	00178713          	addi	a4,a5,1
    33e0:	00e42823          	sw	a4,16(s0)
    33e4:	0ff4f713          	zext.b	a4,s1
    33e8:	00e78023          	sb	a4,0(a5)
    33ec:	00045783          	lhu	a5,0(s0)
    33f0:	1007f793          	andi	a5,a5,256
    33f4:	fa0780e3          	beqz	a5,3394 <.L5>
    33f8:	00a00793          	li	a5,10
    33fc:	f8f71ce3          	bne	a4,a5,3394 <.L5>
    3400:	00040513          	mv	a0,s0
    3404:	e85fe0ef          	jal	ra,2288 <__stdio_wcommit>
    3408:	f80506e3          	beqz	a0,3394 <.L5>
    340c:	01042783          	lw	a5,16(s0)
    3410:	fff78793          	addi	a5,a5,-1
    3414:	00f42823          	sw	a5,16(s0)
    3418:	0100006f          	j	3428 <.L8>

0000341c <.L4>:
    341c:	00058513          	mv	a0,a1
    3420:	39c020ef          	jal	ra,57bc <__stdio_trans2w>
    3424:	f8050ae3          	beqz	a0,33b8 <.L7>

00003428 <.L8>:
    3428:	fff00513          	li	a0,-1
    342c:	f6dff06f          	j	3398 <.L1>

00003430 <.L10>:
    3430:	00040513          	mv	a0,s0
    3434:	e55fe0ef          	jal	ra,2288 <__stdio_wcommit>
    3438:	fa0500e3          	beqz	a0,33d8 <.L14>
    343c:	fedff06f          	j	3428 <.L8>

00003440 <.L9>:
    3440:	00100613          	li	a2,1
    3444:	00f10593          	addi	a1,sp,15
    3448:	00040513          	mv	a0,s0
    344c:	009107a3          	sb	s1,15(sp)
    3450:	659010ef          	jal	ra,52a8 <__stdio_WRITE>
    3454:	f40510e3          	bnez	a0,3394 <.L5>
    3458:	fd1ff06f          	j	3428 <.L8>

0000345c <__GI_fputs>:
    345c:	fe010113          	addi	sp,sp,-32
    3460:	00812c23          	sw	s0,24(sp)
    3464:	00912a23          	sw	s1,20(sp)
    3468:	00112e23          	sw	ra,28(sp)
    346c:	00050493          	mv	s1,a0
    3470:	00b12623          	sw	a1,12(sp)
    3474:	464000ef          	jal	ra,38d8 <__GI_strlen>
    3478:	00c12683          	lw	a3,12(sp)
    347c:	00050413          	mv	s0,a0
    3480:	00050613          	mv	a2,a0
    3484:	00100593          	li	a1,1
    3488:	00048513          	mv	a0,s1
    348c:	020000ef          	jal	ra,34ac <__GI_fwrite>
    3490:	00850463          	beq	a0,s0,3498 <.L1>
    3494:	fff00513          	li	a0,-1

00003498 <.L1>:
    3498:	01c12083          	lw	ra,28(sp)
    349c:	01812403          	lw	s0,24(sp)
    34a0:	01412483          	lw	s1,20(sp)
    34a4:	02010113          	addi	sp,sp,32
    34a8:	00008067          	ret

000034ac <__GI_fwrite>:
    34ac:	0006d783          	lhu	a5,0(a3)
    34b0:	fe010113          	addi	sp,sp,-32
    34b4:	00812c23          	sw	s0,24(sp)
    34b8:	00912a23          	sw	s1,20(sp)
    34bc:	01212823          	sw	s2,16(sp)
    34c0:	01312623          	sw	s3,12(sp)
    34c4:	00112e23          	sw	ra,28(sp)
    34c8:	0407f793          	andi	a5,a5,64
    34cc:	00050993          	mv	s3,a0
    34d0:	00058493          	mv	s1,a1
    34d4:	00060913          	mv	s2,a2
    34d8:	00068413          	mv	s0,a3
    34dc:	02078463          	beqz	a5,3504 <.L2>

000034e0 <.L5>:
    34e0:	02049a63          	bnez	s1,3514 <.L3>

000034e4 <.L10>:
    34e4:	00000513          	li	a0,0

000034e8 <.L1>:
    34e8:	01c12083          	lw	ra,28(sp)
    34ec:	01812403          	lw	s0,24(sp)
    34f0:	01412483          	lw	s1,20(sp)
    34f4:	01012903          	lw	s2,16(sp)
    34f8:	00c12983          	lw	s3,12(sp)
    34fc:	02010113          	addi	sp,sp,32
    3500:	00008067          	ret

00003504 <.L2>:
    3504:	00068513          	mv	a0,a3
    3508:	2b4020ef          	jal	ra,57bc <__stdio_trans2w>
    350c:	fc050ae3          	beqz	a0,34e0 <.L5>
    3510:	fd5ff06f          	j	34e4 <.L10>

00003514 <.L3>:
    3514:	fc0908e3          	beqz	s2,34e4 <.L10>
    3518:	0324b7b3          	mulhu	a5,s1,s2
    351c:	00079e63          	bnez	a5,3538 <.L9>
    3520:	032485b3          	mul	a1,s1,s2
    3524:	00040613          	mv	a2,s0
    3528:	00098513          	mv	a0,s3
    352c:	140020ef          	jal	ra,566c <__stdio_fwrite>
    3530:	02955533          	divu	a0,a0,s1
    3534:	fb5ff06f          	j	34e8 <.L1>

00003538 <.L9>:
    3538:	00045783          	lhu	a5,0(s0)
    353c:	01600713          	li	a4,22
    3540:	0087e793          	ori	a5,a5,8
    3544:	00f41023          	sh	a5,0(s0)
    3548:	00009797          	auipc	a5,0x9
    354c:	94c7a783          	lw	a5,-1716(a5) # be94 <_GLOBAL_OFFSET_TABLE_+0xc>
    3550:	00e7a023          	sw	a4,0(a5)
    3554:	f91ff06f          	j	34e4 <.L10>

00003558 <putchar>:
    3558:	00009717          	auipc	a4,0x9
    355c:	93472703          	lw	a4,-1740(a4) # be8c <_GLOBAL_OFFSET_TABLE_+0x4>
    3560:	00072583          	lw	a1,0(a4)
    3564:	0105a703          	lw	a4,16(a1)
    3568:	01c5a683          	lw	a3,28(a1)
    356c:	00d76463          	bltu	a4,a3,3574 <.L5>
    3570:	df5ff06f          	j	3364 <__GI___fputc_unlocked>

00003574 <.L5>:
    3574:	00170693          	addi	a3,a4,1
    3578:	00d5a823          	sw	a3,16(a1)
    357c:	00a70023          	sb	a0,0(a4)
    3580:	0ff57513          	zext.b	a0,a0
    3584:	00008067          	ret

00003588 <__GI_memcpy>:
    3588:	00f00713          	li	a4,15
    358c:	00050693          	mv	a3,a0
    3590:	00058793          	mv	a5,a1
    3594:	16c77a63          	bgeu	a4,a2,3708 <.L2>
    3598:	40a007b3          	neg	a5,a0
    359c:	0037f793          	andi	a5,a5,3
    35a0:	40f60633          	sub	a2,a2,a5
    35a4:	00000713          	li	a4,0

000035a8 <.L3>:
    35a8:	04e79463          	bne	a5,a4,35f0 <.L4>
    35ac:	00f585b3          	add	a1,a1,a5
    35b0:	00f508b3          	add	a7,a0,a5
    35b4:	0035fe13          	andi	t3,a1,3
    35b8:	00088793          	mv	a5,a7
    35bc:	00265713          	srli	a4,a2,0x2
    35c0:	140e1a63          	bnez	t3,3714 <.L5>
    35c4:	00777693          	andi	a3,a4,7
    35c8:	fff68693          	addi	a3,a3,-1
    35cc:	00600313          	li	t1,6
    35d0:	0005a803          	lw	a6,0(a1)
    35d4:	0ed36863          	bltu	t1,a3,36c4 <.L6>
    35d8:	9d018313          	addi	t1,gp,-1584 # c0f0 <.L8>
    35dc:	00269693          	slli	a3,a3,0x2
    35e0:	006686b3          	add	a3,a3,t1
    35e4:	0006a683          	lw	a3,0(a3)
    35e8:	006686b3          	add	a3,a3,t1
    35ec:	00068067          	jr	a3

000035f0 <.L4>:
    35f0:	00e586b3          	add	a3,a1,a4
    35f4:	0006c803          	lbu	a6,0(a3)
    35f8:	00e506b3          	add	a3,a0,a4
    35fc:	00170713          	addi	a4,a4,1
    3600:	01068023          	sb	a6,0(a3)
    3604:	fa5ff06f          	j	35a8 <.L3>

00003608 <.L13>:
    3608:	fe858693          	addi	a3,a1,-24
    360c:	fe488793          	addi	a5,a7,-28
    3610:	00670713          	addi	a4,a4,6

00003614 <.L15>:
    3614:	01c6a303          	lw	t1,28(a3)
    3618:	ff870713          	addi	a4,a4,-8
    361c:	0107ae23          	sw	a6,28(a5)
    3620:	02078813          	addi	a6,a5,32
    3624:	0c070863          	beqz	a4,36f4 <.L23>
    3628:	00080793          	mv	a5,a6
    362c:	02068693          	addi	a3,a3,32
    3630:	00030813          	mv	a6,t1
    3634:	0b00006f          	j	36e4 <.L22>

00003638 <.L12>:
    3638:	fec58693          	addi	a3,a1,-20
    363c:	fe888793          	addi	a5,a7,-24
    3640:	00570713          	addi	a4,a4,5

00003644 <.L16>:
    3644:	0186a303          	lw	t1,24(a3)
    3648:	0107ac23          	sw	a6,24(a5)
    364c:	00030813          	mv	a6,t1
    3650:	fc5ff06f          	j	3614 <.L15>

00003654 <.L11>:
    3654:	ff058693          	addi	a3,a1,-16
    3658:	fec88793          	addi	a5,a7,-20
    365c:	00470713          	addi	a4,a4,4

00003660 <.L17>:
    3660:	0146a303          	lw	t1,20(a3)
    3664:	0107aa23          	sw	a6,20(a5)
    3668:	00030813          	mv	a6,t1
    366c:	fd9ff06f          	j	3644 <.L16>

00003670 <.L10>:
    3670:	ff458693          	addi	a3,a1,-12
    3674:	ff088793          	addi	a5,a7,-16
    3678:	00370713          	addi	a4,a4,3

0000367c <.L18>:
    367c:	0106a303          	lw	t1,16(a3)
    3680:	0107a823          	sw	a6,16(a5)
    3684:	00030813          	mv	a6,t1
    3688:	fd9ff06f          	j	3660 <.L17>

0000368c <.L9>:
    368c:	ff858693          	addi	a3,a1,-8
    3690:	ff488793          	addi	a5,a7,-12
    3694:	00270713          	addi	a4,a4,2

00003698 <.L19>:
    3698:	00c6a303          	lw	t1,12(a3)
    369c:	0107a623          	sw	a6,12(a5)
    36a0:	00030813          	mv	a6,t1
    36a4:	fd9ff06f          	j	367c <.L18>

000036a8 <.L7>:
    36a8:	ffc58693          	addi	a3,a1,-4
    36ac:	ff888793          	addi	a5,a7,-8
    36b0:	00170713          	addi	a4,a4,1

000036b4 <.L20>:
    36b4:	0086a303          	lw	t1,8(a3)
    36b8:	0107a423          	sw	a6,8(a5)
    36bc:	00030813          	mv	a6,t1
    36c0:	fd9ff06f          	j	3698 <.L19>

000036c4 <.L6>:
    36c4:	00058693          	mv	a3,a1
    36c8:	ffc88793          	addi	a5,a7,-4

000036cc <.L21>:
    36cc:	0046a303          	lw	t1,4(a3)
    36d0:	0107a223          	sw	a6,4(a5)
    36d4:	00030813          	mv	a6,t1
    36d8:	fddff06f          	j	36b4 <.L20>

000036dc <.L14>:
    36dc:	00458693          	addi	a3,a1,4
    36e0:	fff70713          	addi	a4,a4,-1

000036e4 <.L22>:
    36e4:	0006a303          	lw	t1,0(a3)
    36e8:	0107a023          	sw	a6,0(a5)
    36ec:	00030813          	mv	a6,t1
    36f0:	fddff06f          	j	36cc <.L21>

000036f4 <.L23>:
    36f4:	0267a023          	sw	t1,32(a5)

000036f8 <.L24>:
    36f8:	ffc67693          	andi	a3,a2,-4
    36fc:	00b687b3          	add	a5,a3,a1
    3700:	00367613          	andi	a2,a2,3
    3704:	011686b3          	add	a3,a3,a7

00003708 <.L2>:
    3708:	00000713          	li	a4,0

0000370c <.L34>:
    370c:	10e61663          	bne	a2,a4,3818 <.L35>
    3710:	00008067          	ret

00003714 <.L5>:
    3714:	ffc5fe93          	andi	t4,a1,-4
    3718:	003e1e13          	slli	t3,t3,0x3
    371c:	02000f93          	li	t6,32
    3720:	00377f13          	andi	t5,a4,3
    3724:	00200293          	li	t0,2
    3728:	000ea683          	lw	a3,0(t4)
    372c:	004ea803          	lw	a6,4(t4)
    3730:	41cf8fb3          	sub	t6,t6,t3
    3734:	004e8313          	addi	t1,t4,4
    3738:	025f0e63          	beq	t5,t0,3774 <.L25>
    373c:	00300293          	li	t0,3
    3740:	065f0a63          	beq	t5,t0,37b4 <.L26>
    3744:	00100293          	li	t0,1
    3748:	085f1c63          	bne	t5,t0,37e0 <.L36>
    374c:	008e8313          	addi	t1,t4,8
    3750:	fff70713          	addi	a4,a4,-1

00003754 <.L32>:
    3754:	00032e83          	lw	t4,0(t1) # 80000000 <_ebss+0x7fff01b0>
    3758:	01f81f33          	sll	t5,a6,t6
    375c:	01c6d6b3          	srl	a3,a3,t3
    3760:	01e6e6b3          	or	a3,a3,t5
    3764:	00d7a023          	sw	a3,0(a5)
    3768:	00080693          	mv	a3,a6
    376c:	000e8813          	mv	a6,t4
    3770:	0740006f          	j	37e4 <.L31>

00003774 <.L25>:
    3774:	ffce8313          	addi	t1,t4,-4
    3778:	ff488793          	addi	a5,a7,-12
    377c:	00270713          	addi	a4,a4,2

00003780 <.L29>:
    3780:	01c6d6b3          	srl	a3,a3,t3
    3784:	01f81f33          	sll	t5,a6,t6
    3788:	01e6e6b3          	or	a3,a3,t5
    378c:	00c32e83          	lw	t4,12(t1)
    3790:	ffc70713          	addi	a4,a4,-4
    3794:	00d7a623          	sw	a3,12(a5)
    3798:	01078693          	addi	a3,a5,16
    379c:	06070463          	beqz	a4,3804 <.L33>
    37a0:	00068793          	mv	a5,a3
    37a4:	01030313          	addi	t1,t1,16
    37a8:	00080693          	mv	a3,a6
    37ac:	000e8813          	mv	a6,t4
    37b0:	fa5ff06f          	j	3754 <.L32>

000037b4 <.L26>:
    37b4:	000e8313          	mv	t1,t4
    37b8:	ff888793          	addi	a5,a7,-8
    37bc:	00170713          	addi	a4,a4,1

000037c0 <.L30>:
    37c0:	00832e83          	lw	t4,8(t1)
    37c4:	01f81f33          	sll	t5,a6,t6
    37c8:	01c6d6b3          	srl	a3,a3,t3
    37cc:	01e6e6b3          	or	a3,a3,t5
    37d0:	00d7a423          	sw	a3,8(a5)
    37d4:	00080693          	mv	a3,a6
    37d8:	000e8813          	mv	a6,t4
    37dc:	fa5ff06f          	j	3780 <.L29>

000037e0 <.L36>:
    37e0:	ffc88793          	addi	a5,a7,-4

000037e4 <.L31>:
    37e4:	00432e83          	lw	t4,4(t1)
    37e8:	01f81f33          	sll	t5,a6,t6
    37ec:	01c6d6b3          	srl	a3,a3,t3
    37f0:	01e6e6b3          	or	a3,a3,t5
    37f4:	00d7a223          	sw	a3,4(a5)
    37f8:	00080693          	mv	a3,a6
    37fc:	000e8813          	mv	a6,t4
    3800:	fc1ff06f          	j	37c0 <.L30>

00003804 <.L33>:
    3804:	01c85833          	srl	a6,a6,t3
    3808:	01fe9eb3          	sll	t4,t4,t6
    380c:	01d86833          	or	a6,a6,t4
    3810:	0107a823          	sw	a6,16(a5)
    3814:	ee5ff06f          	j	36f8 <.L24>

00003818 <.L35>:
    3818:	00e785b3          	add	a1,a5,a4
    381c:	0005c803          	lbu	a6,0(a1)
    3820:	00e685b3          	add	a1,a3,a4
    3824:	00170713          	addi	a4,a4,1
    3828:	01058023          	sb	a6,0(a1)
    382c:	ee1ff06f          	j	370c <.L34>

00003830 <__GI_memset>:
    3830:	00700713          	li	a4,7
    3834:	00050793          	mv	a5,a0
    3838:	04c77463          	bgeu	a4,a2,3880 <.L2>
    383c:	010106b7          	lui	a3,0x1010
    3840:	0ff5f713          	zext.b	a4,a1
    3844:	10168693          	addi	a3,a3,257 # 1010101 <_ebss+0x10002b1>
    3848:	02d70733          	mul	a4,a4,a3
    384c:	0ff5f813          	zext.b	a6,a1

00003850 <.L3>:
    3850:	0037f693          	andi	a3,a5,3
    3854:	02069c63          	bnez	a3,388c <.L4>
    3858:	00c50633          	add	a2,a0,a2
    385c:	40f60633          	sub	a2,a2,a5
    3860:	fe067813          	andi	a6,a2,-32
    3864:	00f80833          	add	a6,a6,a5
    3868:	00080693          	mv	a3,a6

0000386c <.L5>:
    386c:	03079663          	bne	a5,a6,3898 <.L6>
    3870:	01c67813          	andi	a6,a2,28
    3874:	00f807b3          	add	a5,a6,a5

00003878 <.L7>:
    3878:	04f69463          	bne	a3,a5,38c0 <.L8>
    387c:	00367613          	andi	a2,a2,3

00003880 <.L2>:
    3880:	00c78633          	add	a2,a5,a2

00003884 <.L9>:
    3884:	04c79463          	bne	a5,a2,38cc <.L10>
    3888:	00008067          	ret

0000388c <.L4>:
    388c:	01078023          	sb	a6,0(a5)
    3890:	00178793          	addi	a5,a5,1
    3894:	fbdff06f          	j	3850 <.L3>

00003898 <.L6>:
    3898:	00e7a023          	sw	a4,0(a5)
    389c:	00e7a223          	sw	a4,4(a5)
    38a0:	00e7a423          	sw	a4,8(a5)
    38a4:	00e7a623          	sw	a4,12(a5)
    38a8:	00e7a823          	sw	a4,16(a5)
    38ac:	00e7aa23          	sw	a4,20(a5)
    38b0:	00e7ac23          	sw	a4,24(a5)
    38b4:	00e7ae23          	sw	a4,28(a5)
    38b8:	02078793          	addi	a5,a5,32
    38bc:	fb1ff06f          	j	386c <.L5>

000038c0 <.L8>:
    38c0:	00e6a023          	sw	a4,0(a3)
    38c4:	00468693          	addi	a3,a3,4
    38c8:	fb1ff06f          	j	3878 <.L7>

000038cc <.L10>:
    38cc:	00b78023          	sb	a1,0(a5)
    38d0:	00178793          	addi	a5,a5,1
    38d4:	fb1ff06f          	j	3884 <.L9>

000038d8 <__GI_strlen>:
    38d8:	00050793          	mv	a5,a0

000038dc <.L2>:
    38dc:	0037f713          	andi	a4,a5,3
    38e0:	04071263          	bnez	a4,3924 <.L5>
    38e4:	feff0637          	lui	a2,0xfeff0
    38e8:	808085b7          	lui	a1,0x80808
    38ec:	eff60613          	addi	a2,a2,-257 # fefefeff <_ebss+0xfefe00af>
    38f0:	08058593          	addi	a1,a1,128 # 80808080 <_ebss+0x807f8230>

000038f4 <.L6>:
    38f4:	0007a683          	lw	a3,0(a5)
    38f8:	00478713          	addi	a4,a5,4
    38fc:	00c686b3          	add	a3,a3,a2
    3900:	00b6f6b3          	and	a3,a3,a1
    3904:	02068c63          	beqz	a3,393c <.L7>
    3908:	ffc74683          	lbu	a3,-4(a4)
    390c:	02068063          	beqz	a3,392c <.L14>
    3910:	ffd74683          	lbu	a3,-3(a4)
    3914:	02069863          	bnez	a3,3944 <.L9>
    3918:	40a787b3          	sub	a5,a5,a0
    391c:	00178513          	addi	a0,a5,1
    3920:	00008067          	ret

00003924 <.L5>:
    3924:	0007c703          	lbu	a4,0(a5)
    3928:	00071663          	bnez	a4,3934 <.L3>

0000392c <.L14>:
    392c:	40a78533          	sub	a0,a5,a0
    3930:	00008067          	ret

00003934 <.L3>:
    3934:	00178793          	addi	a5,a5,1
    3938:	fa5ff06f          	j	38dc <.L2>

0000393c <.L7>:
    393c:	00070793          	mv	a5,a4
    3940:	fb5ff06f          	j	38f4 <.L6>

00003944 <.L9>:
    3944:	ffe74683          	lbu	a3,-2(a4)
    3948:	00069863          	bnez	a3,3958 <.L10>
    394c:	40a787b3          	sub	a5,a5,a0
    3950:	00278513          	addi	a0,a5,2
    3954:	00008067          	ret

00003958 <.L10>:
    3958:	fff74683          	lbu	a3,-1(a4)
    395c:	fe0690e3          	bnez	a3,393c <.L7>
    3960:	40a787b3          	sub	a5,a5,a0
    3964:	00378513          	addi	a0,a5,3
    3968:	00008067          	ret

0000396c <__GI_strnlen>:
    396c:	00050713          	mv	a4,a0
    3970:	00058513          	mv	a0,a1
    3974:	06058a63          	beqz	a1,39e8 <.L2>
    3978:	00b705b3          	add	a1,a4,a1
    397c:	00e5f463          	bgeu	a1,a4,3984 <.L3>
    3980:	fff00593          	li	a1,-1

00003984 <.L3>:
    3984:	00070793          	mv	a5,a4

00003988 <.L4>:
    3988:	0037f693          	andi	a3,a5,3
    398c:	04069463          	bnez	a3,39d4 <.L7>
    3990:	feff0537          	lui	a0,0xfeff0
    3994:	80808837          	lui	a6,0x80808
    3998:	00078693          	mv	a3,a5
    399c:	eff50513          	addi	a0,a0,-257 # fefefeff <_ebss+0xfefe00af>
    39a0:	08080813          	addi	a6,a6,128 # 80808080 <_ebss+0x807f8230>

000039a4 <.L8>:
    39a4:	02b6fc63          	bgeu	a3,a1,39dc <.L10>
    39a8:	0006a783          	lw	a5,0(a3)
    39ac:	00468613          	addi	a2,a3,4
    39b0:	00a787b3          	add	a5,a5,a0
    39b4:	0107f7b3          	and	a5,a5,a6
    39b8:	04078e63          	beqz	a5,3a14 <.L17>
    39bc:	ffc64783          	lbu	a5,-4(a2)
    39c0:	06078063          	beqz	a5,3a20 <.L16>
    39c4:	ffd64783          	lbu	a5,-3(a2)
    39c8:	02079663          	bnez	a5,39f4 <.L11>
    39cc:	00168793          	addi	a5,a3,1
    39d0:	00c0006f          	j	39dc <.L10>

000039d4 <.L7>:
    39d4:	0007c683          	lbu	a3,0(a5)
    39d8:	00069a63          	bnez	a3,39ec <.L5>

000039dc <.L10>:
    39dc:	00b7f463          	bgeu	a5,a1,39e4 <.L14>
    39e0:	00078593          	mv	a1,a5

000039e4 <.L14>:
    39e4:	40e58533          	sub	a0,a1,a4

000039e8 <.L2>:
    39e8:	00008067          	ret

000039ec <.L5>:
    39ec:	00178793          	addi	a5,a5,1
    39f0:	f99ff06f          	j	3988 <.L4>

000039f4 <.L11>:
    39f4:	ffe64783          	lbu	a5,-2(a2)
    39f8:	00079663          	bnez	a5,3a04 <.L12>
    39fc:	00268793          	addi	a5,a3,2
    3a00:	fddff06f          	j	39dc <.L10>

00003a04 <.L12>:
    3a04:	fff64783          	lbu	a5,-1(a2)
    3a08:	00079663          	bnez	a5,3a14 <.L17>
    3a0c:	00368793          	addi	a5,a3,3
    3a10:	fcdff06f          	j	39dc <.L10>

00003a14 <.L17>:
    3a14:	00058793          	mv	a5,a1
    3a18:	00060693          	mv	a3,a2
    3a1c:	f89ff06f          	j	39a4 <.L8>

00003a20 <.L16>:
    3a20:	00068793          	mv	a5,a3
    3a24:	fb9ff06f          	j	39dc <.L10>

00003a28 <__GI___glibc_strerror_r>:
    3a28:	ff010113          	addi	sp,sp,-16
    3a2c:	00812423          	sw	s0,8(sp)
    3a30:	00112623          	sw	ra,12(sp)
    3a34:	00058413          	mv	s0,a1
    3a38:	018000ef          	jal	ra,3a50 <__GI___xpg_strerror_r>
    3a3c:	00c12083          	lw	ra,12(sp)
    3a40:	00040513          	mv	a0,s0
    3a44:	00812403          	lw	s0,8(sp)
    3a48:	01010113          	addi	sp,sp,16
    3a4c:	00008067          	ret

00003a50 <__GI___xpg_strerror_r>:
    3a50:	fa010113          	addi	sp,sp,-96
    3a54:	04812c23          	sw	s0,88(sp)
    3a58:	05312623          	sw	s3,76(sp)
    3a5c:	04112e23          	sw	ra,92(sp)
    3a60:	04912a23          	sw	s1,84(sp)
    3a64:	05212823          	sw	s2,80(sp)
    3a68:	05412423          	sw	s4,72(sp)
    3a6c:	07c00793          	li	a5,124
    3a70:	00058413          	mv	s0,a1
    3a74:	00060993          	mv	s3,a2
    3a78:	0aa7f063          	bgeu	a5,a0,3b18 <.L13>

00003a7c <.L3>:
    3a7c:	00050593          	mv	a1,a0
    3a80:	41f55613          	srai	a2,a0,0x1f
    3a84:	00000713          	li	a4,0
    3a88:	ff600693          	li	a3,-10
    3a8c:	03d10513          	addi	a0,sp,61
    3a90:	6b9010ef          	jal	ra,5948 <_uintmaxtostr>
    3a94:	ff250493          	addi	s1,a0,-14
    3a98:	00e00613          	li	a2,14
    3a9c:	0000a597          	auipc	a1,0xa
    3aa0:	00c58593          	addi	a1,a1,12 # daa8 <unknown.0>
    3aa4:	00048513          	mv	a0,s1
    3aa8:	ae1ff0ef          	jal	ra,3588 <__GI_memcpy>
    3aac:	01600913          	li	s2,22
    3ab0:	01c0006f          	j	3acc <.L6>

00003ab4 <.L5>:
    3ab4:	00079463          	bnez	a5,3abc <.L4>
    3ab8:	fff90913          	addi	s2,s2,-1

00003abc <.L4>:
    3abc:	00148493          	addi	s1,s1,1

00003ac0 <.L2>:
    3ac0:	0004c783          	lbu	a5,0(s1)
    3ac4:	fe0918e3          	bnez	s2,3ab4 <.L5>
    3ac8:	fa078ae3          	beqz	a5,3a7c <.L3>

00003acc <.L6>:
    3acc:	00048513          	mv	a0,s1
    3ad0:	e09ff0ef          	jal	ra,38d8 <__GI_strlen>
    3ad4:	00050a13          	mv	s4,a0
    3ad8:	00150613          	addi	a2,a0,1
    3adc:	04041663          	bnez	s0,3b28 <.L7>
    3ae0:	08060263          	beqz	a2,3b64 <.L9>

00003ae4 <.L8>:
    3ae4:	02200913          	li	s2,34

00003ae8 <.L11>:
    3ae8:	00008797          	auipc	a5,0x8
    3aec:	3ac7a783          	lw	a5,940(a5) # be94 <_GLOBAL_OFFSET_TABLE_+0xc>
    3af0:	0127a023          	sw	s2,0(a5)

00003af4 <.L1>:
    3af4:	05c12083          	lw	ra,92(sp)
    3af8:	05812403          	lw	s0,88(sp)
    3afc:	05412483          	lw	s1,84(sp)
    3b00:	04c12983          	lw	s3,76(sp)
    3b04:	04812a03          	lw	s4,72(sp)
    3b08:	00090513          	mv	a0,s2
    3b0c:	05012903          	lw	s2,80(sp)
    3b10:	06010113          	addi	sp,sp,96
    3b14:	00008067          	ret

00003b18 <.L13>:
    3b18:	00050913          	mv	s2,a0
    3b1c:	00008497          	auipc	s1,0x8
    3b20:	5f048493          	addi	s1,s1,1520 # c10c <_string_syserrmsgs>
    3b24:	f9dff06f          	j	3ac0 <.L2>

00003b28 <.L7>:
    3b28:	02c9f263          	bgeu	s3,a2,3b4c <.L10>
    3b2c:	fa098ce3          	beqz	s3,3ae4 <.L8>
    3b30:	00040513          	mv	a0,s0
    3b34:	00098613          	mv	a2,s3
    3b38:	00048593          	mv	a1,s1
    3b3c:	01340433          	add	s0,s0,s3
    3b40:	a49ff0ef          	jal	ra,3588 <__GI_memcpy>
    3b44:	fe040fa3          	sb	zero,-1(s0)
    3b48:	f9dff06f          	j	3ae4 <.L8>

00003b4c <.L10>:
    3b4c:	00060c63          	beqz	a2,3b64 <.L9>
    3b50:	00040513          	mv	a0,s0
    3b54:	00048593          	mv	a1,s1
    3b58:	01440433          	add	s0,s0,s4
    3b5c:	a2dff0ef          	jal	ra,3588 <__GI_memcpy>
    3b60:	00040023          	sb	zero,0(s0)

00003b64 <.L9>:
    3b64:	f80908e3          	beqz	s2,3af4 <.L1>
    3b68:	01600913          	li	s2,22
    3b6c:	f7dff06f          	j	3ae8 <.L11>

00003b70 <__GI_isatty>:
    3b70:	fb010113          	addi	sp,sp,-80
    3b74:	00410593          	addi	a1,sp,4
    3b78:	04112623          	sw	ra,76(sp)
    3b7c:	014000ef          	jal	ra,3b90 <__GI_tcgetattr>
    3b80:	04c12083          	lw	ra,76(sp)
    3b84:	00153513          	seqz	a0,a0
    3b88:	05010113          	addi	sp,sp,80
    3b8c:	00008067          	ret

00003b90 <__GI_tcgetattr>:
    3b90:	fc010113          	addi	sp,sp,-64
    3b94:	02812c23          	sw	s0,56(sp)
    3b98:	00058413          	mv	s0,a1
    3b9c:	000055b7          	lui	a1,0x5
    3ba0:	00c10613          	addi	a2,sp,12
    3ba4:	40158593          	addi	a1,a1,1025 # 5401 <.L14+0x11>
    3ba8:	02912a23          	sw	s1,52(sp)
    3bac:	02112e23          	sw	ra,60(sp)
    3bb0:	6c1000ef          	jal	ra,4a70 <__GI_ioctl>
    3bb4:	00050493          	mv	s1,a0
    3bb8:	04051463          	bnez	a0,3c00 <.L1>
    3bbc:	00c12783          	lw	a5,12(sp)
    3bc0:	01300613          	li	a2,19
    3bc4:	01d10593          	addi	a1,sp,29
    3bc8:	00f42023          	sw	a5,0(s0)
    3bcc:	01012783          	lw	a5,16(sp)
    3bd0:	01140513          	addi	a0,s0,17
    3bd4:	00f42223          	sw	a5,4(s0)
    3bd8:	01412783          	lw	a5,20(sp)
    3bdc:	00f42423          	sw	a5,8(s0)
    3be0:	01812783          	lw	a5,24(sp)
    3be4:	00f42623          	sw	a5,12(s0)
    3be8:	01c14783          	lbu	a5,28(sp)
    3bec:	00f40823          	sb	a5,16(s0)
    3bf0:	611020ef          	jal	ra,6a00 <__GI_mempcpy>
    3bf4:	00d00613          	li	a2,13
    3bf8:	00000593          	li	a1,0
    3bfc:	c35ff0ef          	jal	ra,3830 <__GI_memset>

00003c00 <.L1>:
    3c00:	03c12083          	lw	ra,60(sp)
    3c04:	03812403          	lw	s0,56(sp)
    3c08:	00048513          	mv	a0,s1
    3c0c:	03412483          	lw	s1,52(sp)
    3c10:	04010113          	addi	sp,sp,64
    3c14:	00008067          	ret

00003c18 <__malloc_from_heap>:
    3c18:	fd010113          	addi	sp,sp,-48
    3c1c:	01412c23          	sw	s4,24(sp)
    3c20:	01512a23          	sw	s5,20(sp)
    3c24:	00058a13          	mv	s4,a1
    3c28:	00850513          	addi	a0,a0,8
    3c2c:	00c10a93          	addi	s5,sp,12
    3c30:	00a12623          	sw	a0,12(sp)
    3c34:	000a8593          	mv	a1,s5
    3c38:	000a0513          	mv	a0,s4
    3c3c:	03212023          	sw	s2,32(sp)
    3c40:	02112623          	sw	ra,44(sp)
    3c44:	02812423          	sw	s0,40(sp)
    3c48:	02912223          	sw	s1,36(sp)
    3c4c:	01312e23          	sw	s3,28(sp)
    3c50:	354000ef          	jal	ra,3fa4 <__heap_alloc>
    3c54:	00050913          	mv	s2,a0
    3c58:	0a051863          	bnez	a0,3d08 <.L2>
    3c5c:	00050493          	mv	s1,a0
    3c60:	01e00513          	li	a0,30
    3c64:	6e0000ef          	jal	ra,4344 <__GI_sysconf>
    3c68:	00c12783          	lw	a5,12(sp)
    3c6c:	0ca7f863          	bgeu	a5,a0,3d3c <.L3>
    3c70:	01e00513          	li	a0,30
    3c74:	6d0000ef          	jal	ra,4344 <__GI_sysconf>
    3c78:	00050413          	mv	s0,a0

00003c7c <.L4>:
    3c7c:	040006b7          	lui	a3,0x4000
    3c80:	00000793          	li	a5,0
    3c84:	00000713          	li	a4,0
    3c88:	02168693          	addi	a3,a3,33 # 4000021 <_ebss+0x3ff01d1>
    3c8c:	00300613          	li	a2,3
    3c90:	00040593          	mv	a1,s0
    3c94:	00000513          	li	a0,0
    3c98:	629000ef          	jal	ra,4ac0 <__GI_mmap>
    3c9c:	fff00793          	li	a5,-1
    3ca0:	00050993          	mv	s3,a0
    3ca4:	06f50863          	beq	a0,a5,3d14 <.L1>
    3ca8:	00040613          	mv	a2,s0
    3cac:	00050593          	mv	a1,a0
    3cb0:	000a0513          	mv	a0,s4
    3cb4:	378000ef          	jal	ra,402c <__heap_free>
    3cb8:	000a8593          	mv	a1,s5
    3cbc:	000a0513          	mv	a0,s4
    3cc0:	2e4000ef          	jal	ra,3fa4 <__heap_alloc>
    3cc4:	00050913          	mv	s2,a0
    3cc8:	00008597          	auipc	a1,0x8
    3ccc:	20c5a583          	lw	a1,524(a1) # bed4 <.LLST21+0x22>
    3cd0:	00c00513          	li	a0,12
    3cd4:	f45ff0ef          	jal	ra,3c18 <__malloc_from_heap>
    3cd8:	00008617          	auipc	a2,0x8
    3cdc:	1c462603          	lw	a2,452(a2) # be9c <_GLOBAL_OFFSET_TABLE_+0x14>
    3ce0:	00062703          	lw	a4,0(a2)
    3ce4:	00050793          	mv	a5,a0
    3ce8:	00000693          	li	a3,0

00003cec <.L7>:
    3cec:	06071c63          	bnez	a4,3d64 <.L9>

00003cf0 <.L8>:
    3cf0:	00e7a423          	sw	a4,8(a5)
    3cf4:	0137a023          	sw	s3,0(a5)
    3cf8:	0087a223          	sw	s0,4(a5)
    3cfc:	06068e63          	beqz	a3,3d78 <.L10>
    3d00:	00f6a423          	sw	a5,8(a3)

00003d04 <.L11>:
    3d04:	00090863          	beqz	s2,3d14 <.L1>

00003d08 <.L2>:
    3d08:	00c12783          	lw	a5,12(sp)
    3d0c:	00890493          	addi	s1,s2,8
    3d10:	00f92023          	sw	a5,0(s2)

00003d14 <.L1>:
    3d14:	02c12083          	lw	ra,44(sp)
    3d18:	02812403          	lw	s0,40(sp)
    3d1c:	02012903          	lw	s2,32(sp)
    3d20:	01c12983          	lw	s3,28(sp)
    3d24:	01812a03          	lw	s4,24(sp)
    3d28:	01412a83          	lw	s5,20(sp)
    3d2c:	00048513          	mv	a0,s1
    3d30:	02412483          	lw	s1,36(sp)
    3d34:	03010113          	addi	sp,sp,48
    3d38:	00008067          	ret

00003d3c <.L3>:
    3d3c:	01e00513          	li	a0,30
    3d40:	604000ef          	jal	ra,4344 <__GI_sysconf>
    3d44:	00c12903          	lw	s2,12(sp)
    3d48:	fff90913          	addi	s2,s2,-1
    3d4c:	00a90933          	add	s2,s2,a0
    3d50:	01e00513          	li	a0,30
    3d54:	5f0000ef          	jal	ra,4344 <__GI_sysconf>
    3d58:	40a00433          	neg	s0,a0
    3d5c:	01247433          	and	s0,s0,s2
    3d60:	f1dff06f          	j	3c7c <.L4>

00003d64 <.L9>:
    3d64:	00072583          	lw	a1,0(a4)
    3d68:	f8b9e4e3          	bltu	s3,a1,3cf0 <.L8>
    3d6c:	00070693          	mv	a3,a4
    3d70:	00872703          	lw	a4,8(a4)
    3d74:	f79ff06f          	j	3cec <.L7>

00003d78 <.L10>:
    3d78:	00f62023          	sw	a5,0(a2)
    3d7c:	f89ff06f          	j	3d04 <.L11>

00003d80 <malloc>:
    3d80:	02050263          	beqz	a0,3da4 <.L23>
    3d84:	ff000793          	li	a5,-16
    3d88:	02a7f063          	bgeu	a5,a0,3da8 <.L20>
    3d8c:	00008797          	auipc	a5,0x8
    3d90:	1087a783          	lw	a5,264(a5) # be94 <_GLOBAL_OFFSET_TABLE_+0xc>
    3d94:	00c00713          	li	a4,12
    3d98:	00e7a023          	sw	a4,0(a5)
    3d9c:	00000513          	li	a0,0
    3da0:	00008067          	ret

00003da4 <.L23>:
    3da4:	00100513          	li	a0,1

00003da8 <.L20>:
    3da8:	ff010113          	addi	sp,sp,-16
    3dac:	0000a597          	auipc	a1,0xa
    3db0:	fb058593          	addi	a1,a1,-80 # dd5c <__malloc_heap>
    3db4:	00112623          	sw	ra,12(sp)
    3db8:	e61ff0ef          	jal	ra,3c18 <__malloc_from_heap>
    3dbc:	00051c63          	bnez	a0,3dd4 <.L19>
    3dc0:	00008797          	auipc	a5,0x8
    3dc4:	0d47a783          	lw	a5,212(a5) # be94 <_GLOBAL_OFFSET_TABLE_+0xc>
    3dc8:	00c00713          	li	a4,12
    3dcc:	00e7a023          	sw	a4,0(a5)
    3dd0:	00000513          	li	a0,0

00003dd4 <.L19>:
    3dd4:	00c12083          	lw	ra,12(sp)
    3dd8:	01010113          	addi	sp,sp,16
    3ddc:	00008067          	ret

00003de0 <__free_to_heap>:
    3de0:	1a050a63          	beqz	a0,3f94 <.L24>
    3de4:	fd010113          	addi	sp,sp,-48
    3de8:	ff852603          	lw	a2,-8(a0)
    3dec:	03212023          	sw	s2,32(sp)
    3df0:	00058913          	mv	s2,a1
    3df4:	ff850593          	addi	a1,a0,-8
    3df8:	00090513          	mv	a0,s2
    3dfc:	02112623          	sw	ra,44(sp)
    3e00:	02812423          	sw	s0,40(sp)
    3e04:	02912223          	sw	s1,36(sp)
    3e08:	01312e23          	sw	s3,28(sp)
    3e0c:	01412c23          	sw	s4,24(sp)
    3e10:	01512a23          	sw	s5,20(sp)
    3e14:	01612823          	sw	s6,16(sp)
    3e18:	01712623          	sw	s7,12(sp)
    3e1c:	01812423          	sw	s8,8(sp)
    3e20:	01912223          	sw	s9,4(sp)
    3e24:	01a12023          	sw	s10,0(sp)
    3e28:	204000ef          	jal	ra,402c <__heap_free>
    3e2c:	00052483          	lw	s1,0(a0)
    3e30:	00050413          	mv	s0,a0
    3e34:	01e00513          	li	a0,30
    3e38:	50c000ef          	jal	ra,4344 <__GI_sysconf>
    3e3c:	00351513          	slli	a0,a0,0x3
    3e40:	10a4ee63          	bltu	s1,a0,3f5c <.L1>
    3e44:	00042783          	lw	a5,0(s0)
    3e48:	00c40493          	addi	s1,s0,12
    3e4c:	40f407b3          	sub	a5,s0,a5
    3e50:	00c78593          	addi	a1,a5,12
    3e54:	00442783          	lw	a5,4(s0)
    3e58:	00078663          	beqz	a5,3e64 <.L5>
    3e5c:	00842703          	lw	a4,8(s0)
    3e60:	00e7a423          	sw	a4,8(a5)

00003e64 <.L5>:
    3e64:	00842703          	lw	a4,8(s0)
    3e68:	08070a63          	beqz	a4,3efc <.L6>
    3e6c:	00f72223          	sw	a5,4(a4)

00003e70 <.L7>:
    3e70:	00008c17          	auipc	s8,0x8
    3e74:	02cc2c03          	lw	s8,44(s8) # be9c <_GLOBAL_OFFSET_TABLE_+0x14>
    3e78:	000c2403          	lw	s0,0(s8)
    3e7c:	00000a93          	li	s5,0
    3e80:	00008c97          	auipc	s9,0x8
    3e84:	054cac83          	lw	s9,84(s9) # bed4 <.LLST21+0x22>
    3e88:	03000d13          	li	s10,48

00003e8c <.L8>:
    3e8c:	02040663          	beqz	s0,3eb8 <.L12>
    3e90:	00042a03          	lw	s4,0(s0)
    3e94:	00442b83          	lw	s7,4(s0)
    3e98:	014b89b3          	add	s3,s7,s4
    3e9c:	0134ee63          	bltu	s1,s3,3eb8 <.L12>
    3ea0:	00842b03          	lw	s6,8(s0)
    3ea4:	0aba6263          	bltu	s4,a1,3f48 <.L9>
    3ea8:	05459e63          	bne	a1,s4,3f04 <.L10>
    3eac:	07348a63          	beq	s1,s3,3f20 <.L11>
    3eb0:	03098793          	addi	a5,s3,48
    3eb4:	06f4f663          	bgeu	s1,a5,3f20 <.L11>

00003eb8 <.L12>:
    3eb8:	0a958263          	beq	a1,s1,3f5c <.L1>
    3ebc:	02812403          	lw	s0,40(sp)
    3ec0:	02c12083          	lw	ra,44(sp)
    3ec4:	01c12983          	lw	s3,28(sp)
    3ec8:	01812a03          	lw	s4,24(sp)
    3ecc:	01412a83          	lw	s5,20(sp)
    3ed0:	01012b03          	lw	s6,16(sp)
    3ed4:	00c12b83          	lw	s7,12(sp)
    3ed8:	00812c03          	lw	s8,8(sp)
    3edc:	00412c83          	lw	s9,4(sp)
    3ee0:	00012d03          	lw	s10,0(sp)
    3ee4:	40b48633          	sub	a2,s1,a1
    3ee8:	00090513          	mv	a0,s2
    3eec:	02412483          	lw	s1,36(sp)
    3ef0:	02012903          	lw	s2,32(sp)
    3ef4:	03010113          	addi	sp,sp,48
    3ef8:	1340006f          	j	402c <__heap_free>

00003efc <.L6>:
    3efc:	00f92023          	sw	a5,0(s2)
    3f00:	f71ff06f          	j	3e70 <.L7>

00003f04 <.L10>:
    3f04:	40ba0633          	sub	a2,s4,a1
    3f08:	04cd7063          	bgeu	s10,a2,3f48 <.L9>
    3f0c:	01348663          	beq	s1,s3,3f18 <.L13>
    3f10:	03098793          	addi	a5,s3,48
    3f14:	faf4e2e3          	bltu	s1,a5,3eb8 <.L12>

00003f18 <.L13>:
    3f18:	00090513          	mv	a0,s2
    3f1c:	110000ef          	jal	ra,402c <__heap_free>

00003f20 <.L11>:
    3f20:	020a8a63          	beqz	s5,3f54 <.L14>
    3f24:	016aa423          	sw	s6,8(s5)

00003f28 <.L15>:
    3f28:	00040513          	mv	a0,s0
    3f2c:	000c8593          	mv	a1,s9
    3f30:	eb1ff0ef          	jal	ra,3de0 <__free_to_heap>
    3f34:	000b8593          	mv	a1,s7
    3f38:	000a0513          	mv	a0,s4
    3f3c:	3cd000ef          	jal	ra,4b08 <__GI_munmap>
    3f40:	000a8413          	mv	s0,s5
    3f44:	00098593          	mv	a1,s3

00003f48 <.L9>:
    3f48:	00040a93          	mv	s5,s0
    3f4c:	000b0413          	mv	s0,s6
    3f50:	f3dff06f          	j	3e8c <.L8>

00003f54 <.L14>:
    3f54:	016c2023          	sw	s6,0(s8)
    3f58:	fd1ff06f          	j	3f28 <.L15>

00003f5c <.L1>:
    3f5c:	02c12083          	lw	ra,44(sp)
    3f60:	02812403          	lw	s0,40(sp)
    3f64:	02412483          	lw	s1,36(sp)
    3f68:	02012903          	lw	s2,32(sp)
    3f6c:	01c12983          	lw	s3,28(sp)
    3f70:	01812a03          	lw	s4,24(sp)
    3f74:	01412a83          	lw	s5,20(sp)
    3f78:	01012b03          	lw	s6,16(sp)
    3f7c:	00c12b83          	lw	s7,12(sp)
    3f80:	00812c03          	lw	s8,8(sp)
    3f84:	00412c83          	lw	s9,4(sp)
    3f88:	00012d03          	lw	s10,0(sp)
    3f8c:	03010113          	addi	sp,sp,48
    3f90:	00008067          	ret

00003f94 <.L24>:
    3f94:	00008067          	ret

00003f98 <free>:
    3f98:	0000a597          	auipc	a1,0xa
    3f9c:	dc458593          	addi	a1,a1,-572 # dd5c <__malloc_heap>
    3fa0:	e41ff06f          	j	3de0 <__free_to_heap>

00003fa4 <__heap_alloc>:
    3fa4:	0005a783          	lw	a5,0(a1)
    3fa8:	00b00713          	li	a4,11
    3fac:	00050693          	mv	a3,a0
    3fb0:	00778793          	addi	a5,a5,7
    3fb4:	ff87f793          	andi	a5,a5,-8
    3fb8:	00f76463          	bltu	a4,a5,3fc0 <.L2>
    3fbc:	01000793          	li	a5,16

00003fc0 <.L2>:
    3fc0:	0006a503          	lw	a0,0(a3)

00003fc4 <.L3>:
    3fc4:	00051463          	bnez	a0,3fcc <.L11>
    3fc8:	00008067          	ret

00003fcc <.L11>:
    3fcc:	00052703          	lw	a4,0(a0)
    3fd0:	04f76a63          	bltu	a4,a5,4024 <.L4>
    3fd4:	40e50633          	sub	a2,a0,a4
    3fd8:	03078813          	addi	a6,a5,48
    3fdc:	00c60613          	addi	a2,a2,12
    3fe0:	03077a63          	bgeu	a4,a6,4014 <.L5>
    3fe4:	00452783          	lw	a5,4(a0)
    3fe8:	00078663          	beqz	a5,3ff4 <.L6>
    3fec:	00852803          	lw	a6,8(a0)
    3ff0:	0107a423          	sw	a6,8(a5)

00003ff4 <.L6>:
    3ff4:	00852503          	lw	a0,8(a0)
    3ff8:	00050a63          	beqz	a0,400c <.L7>
    3ffc:	00f52223          	sw	a5,4(a0)

00004000 <.L9>:
    4000:	00e5a023          	sw	a4,0(a1)
    4004:	00060513          	mv	a0,a2
    4008:	00008067          	ret

0000400c <.L7>:
    400c:	00f6a023          	sw	a5,0(a3)
    4010:	ff1ff06f          	j	4000 <.L9>

00004014 <.L5>:
    4014:	40f70733          	sub	a4,a4,a5
    4018:	00e52023          	sw	a4,0(a0)
    401c:	00078713          	mv	a4,a5
    4020:	fe1ff06f          	j	4000 <.L9>

00004024 <.L4>:
    4024:	00452503          	lw	a0,4(a0)
    4028:	f9dff06f          	j	3fc4 <.L3>

0000402c <__heap_free>:
    402c:	00050693          	mv	a3,a0
    4030:	00052503          	lw	a0,0(a0)
    4034:	00c58333          	add	t1,a1,a2
    4038:	00000793          	li	a5,0

0000403c <.L2>:
    403c:	02051863          	bnez	a0,406c <.L4>

00004040 <.L5>:
    4040:	ff460713          	addi	a4,a2,-12
    4044:	00e585b3          	add	a1,a1,a4
    4048:	00c5a023          	sw	a2,0(a1)
    404c:	00a5a223          	sw	a0,4(a1)
    4050:	00f5a423          	sw	a5,8(a1)
    4054:	0a078863          	beqz	a5,4104 <.L19>
    4058:	00b7a223          	sw	a1,4(a5)

0000405c <.L20>:
    405c:	00050463          	beqz	a0,4064 <.L21>
    4060:	00b52423          	sw	a1,8(a0)

00004064 <.L21>:
    4064:	00058513          	mv	a0,a1
    4068:	00008067          	ret

0000406c <.L4>:
    406c:	00c50713          	addi	a4,a0,12
    4070:	08b77e63          	bgeu	a4,a1,410c <.L3>
    4074:	00050793          	mv	a5,a0
    4078:	00452503          	lw	a0,4(a0)
    407c:	fc1ff06f          	j	403c <.L2>

00004080 <.L8>:
    4080:	00a6a023          	sw	a0,0(a3)
    4084:	0c40006f          	j	4148 <.L9>

00004088 <.L6>:
    4088:	00452703          	lw	a4,4(a0)
    408c:	02070a63          	beqz	a4,40c0 <.L10>
    4090:	00072583          	lw	a1,0(a4)
    4094:	40b888b3          	sub	a7,a7,a1
    4098:	011708b3          	add	a7,a4,a7
    409c:	03131e63          	bne	t1,a7,40d8 <.L11>
    40a0:	00b80833          	add	a6,a6,a1
    40a4:	00078a63          	beqz	a5,40b8 <.L12>
    40a8:	00e7a223          	sw	a4,4(a5)

000040ac <.L13>:
    40ac:	00f72423          	sw	a5,8(a4)
    40b0:	00070513          	mv	a0,a4
    40b4:	0980006f          	j	414c <.L7>

000040b8 <.L12>:
    40b8:	00e6a023          	sw	a4,0(a3)
    40bc:	ff1ff06f          	j	40ac <.L13>

000040c0 <.L10>:
    40c0:	00c50533          	add	a0,a0,a2
    40c4:	00052223          	sw	zero,4(a0)
    40c8:	00f52423          	sw	a5,8(a0)
    40cc:	02078863          	beqz	a5,40fc <.L14>
    40d0:	00a7a223          	sw	a0,4(a5)
    40d4:	0780006f          	j	414c <.L7>

000040d8 <.L11>:
    40d8:	00c50533          	add	a0,a0,a2
    40dc:	00e52223          	sw	a4,4(a0)
    40e0:	00f52423          	sw	a5,8(a0)
    40e4:	00078863          	beqz	a5,40f4 <.L16>
    40e8:	00a7a223          	sw	a0,4(a5)

000040ec <.L17>:
    40ec:	00a72423          	sw	a0,8(a4)
    40f0:	05c0006f          	j	414c <.L7>

000040f4 <.L16>:
    40f4:	00a6a023          	sw	a0,0(a3)
    40f8:	ff5ff06f          	j	40ec <.L17>

000040fc <.L14>:
    40fc:	00a6a023          	sw	a0,0(a3)
    4100:	04c0006f          	j	414c <.L7>

00004104 <.L19>:
    4104:	00b6a023          	sw	a1,0(a3)
    4108:	f55ff06f          	j	405c <.L20>

0000410c <.L3>:
    410c:	00052803          	lw	a6,0(a0)
    4110:	00c00893          	li	a7,12
    4114:	41088733          	sub	a4,a7,a6
    4118:	00e50733          	add	a4,a0,a4
    411c:	f2e362e3          	bltu	t1,a4,4040 <.L5>
    4120:	00c80833          	add	a6,a6,a2
    4124:	f66712e3          	bne	a4,t1,4088 <.L6>
    4128:	02078263          	beqz	a5,414c <.L7>
    412c:	00c78713          	addi	a4,a5,12
    4130:	00e59e63          	bne	a1,a4,414c <.L7>
    4134:	0007a703          	lw	a4,0(a5)
    4138:	0087a783          	lw	a5,8(a5)
    413c:	00e80833          	add	a6,a6,a4
    4140:	f40780e3          	beqz	a5,4080 <.L8>
    4144:	00a7a223          	sw	a0,4(a5)

00004148 <.L9>:
    4148:	00f52423          	sw	a5,8(a0)

0000414c <.L7>:
    414c:	01052023          	sw	a6,0(a0)
    4150:	00008067          	ret

00004154 <nprocessors_onln>:
    4154:	fd010113          	addi	sp,sp,-48
    4158:	0000a517          	auipc	a0,0xa
    415c:	96050513          	addi	a0,a0,-1696 # dab8 <.LC0>
    4160:	02912223          	sw	s1,36(sp)
    4164:	02112623          	sw	ra,44(sp)
    4168:	02812423          	sw	s0,40(sp)
    416c:	03212023          	sw	s2,32(sp)
    4170:	01312e23          	sw	s3,28(sp)
    4174:	01412c23          	sw	s4,24(sp)
    4178:	01512a23          	sw	s5,20(sp)
    417c:	00012623          	sw	zero,12(sp)
    4180:	46d000ef          	jal	ra,4dec <__GI_config_open>
    4184:	00000493          	li	s1,0
    4188:	0a050a63          	beqz	a0,423c <.L19>
    418c:	00050413          	mv	s0,a0
    4190:	00c10913          	addi	s2,sp,12
    4194:	0000a997          	auipc	s3,0xa
    4198:	93098993          	addi	s3,s3,-1744 # dac4 <.LC1>
    419c:	06300a13          	li	s4,99
    41a0:	07000a93          	li	s5,112

000041a4 <.L2>:
    41a4:	00098693          	mv	a3,s3
    41a8:	10200613          	li	a2,258
    41ac:	00090593          	mv	a1,s2
    41b0:	00040513          	mv	a0,s0
    41b4:	4c9000ef          	jal	ra,4e7c <__GI_config_read>
    41b8:	02051c63          	bnez	a0,41f0 <.L5>

000041bc <.L6>:
    41bc:	00040513          	mv	a0,s0
    41c0:	479000ef          	jal	ra,4e38 <__GI_config_close>
    41c4:	0e048063          	beqz	s1,42a4 <.L8>

000041c8 <.L1>:
    41c8:	02c12083          	lw	ra,44(sp)
    41cc:	02812403          	lw	s0,40(sp)
    41d0:	02012903          	lw	s2,32(sp)
    41d4:	01c12983          	lw	s3,28(sp)
    41d8:	01812a03          	lw	s4,24(sp)
    41dc:	01412a83          	lw	s5,20(sp)
    41e0:	00048513          	mv	a0,s1
    41e4:	02412483          	lw	s1,36(sp)
    41e8:	03010113          	addi	sp,sp,48
    41ec:	00008067          	ret

000041f0 <.L5>:
    41f0:	00c12783          	lw	a5,12(sp)
    41f4:	0007a783          	lw	a5,0(a5)
    41f8:	0007c703          	lbu	a4,0(a5)
    41fc:	fb4714e3          	bne	a4,s4,41a4 <.L2>
    4200:	0017c703          	lbu	a4,1(a5)
    4204:	fb5710e3          	bne	a4,s5,41a4 <.L2>
    4208:	0027c683          	lbu	a3,2(a5)
    420c:	07500713          	li	a4,117
    4210:	f8e69ae3          	bne	a3,a4,41a4 <.L2>
    4214:	0037c703          	lbu	a4,3(a5)
    4218:	0000a797          	auipc	a5,0xa
    421c:	b587a783          	lw	a5,-1192(a5) # dd70 <__GI___ctype_b>
    4220:	00171713          	slli	a4,a4,0x1
    4224:	00e787b3          	add	a5,a5,a4
    4228:	0007d783          	lhu	a5,0(a5)
    422c:	0087f793          	andi	a5,a5,8
    4230:	f6078ae3          	beqz	a5,41a4 <.L2>
    4234:	00148493          	addi	s1,s1,1
    4238:	f6dff06f          	j	41a4 <.L2>

0000423c <.L19>:
    423c:	0000a517          	auipc	a0,0xa
    4240:	88c50513          	addi	a0,a0,-1908 # dac8 <.LC2>
    4244:	3a9000ef          	jal	ra,4dec <__GI_config_open>
    4248:	00050413          	mv	s0,a0
    424c:	04050a63          	beqz	a0,42a0 <.L20>
    4250:	00070937          	lui	s2,0x70
    4254:	00c10993          	addi	s3,sp,12
    4258:	00009a17          	auipc	s4,0x9
    425c:	d8ca0a13          	addi	s4,s4,-628 # cfe4 <.LANCHOR0>
    4260:	20290913          	addi	s2,s2,514 # 70202 <_ebss+0x603b2>
    4264:	0000aa97          	auipc	s5,0xa
    4268:	874a8a93          	addi	s5,s5,-1932 # dad8 <.LC3>

0000426c <.L7>:
    426c:	000a0693          	mv	a3,s4
    4270:	00090613          	mv	a2,s2
    4274:	00098593          	mv	a1,s3
    4278:	00040513          	mv	a0,s0
    427c:	401000ef          	jal	ra,4e7c <__GI_config_read>
    4280:	f2050ee3          	beqz	a0,41bc <.L6>
    4284:	00c12783          	lw	a5,12(sp)
    4288:	000a8513          	mv	a0,s5
    428c:	0007a583          	lw	a1,0(a5)
    4290:	1dd020ef          	jal	ra,6c6c <__GI_strcmp>
    4294:	fc051ce3          	bnez	a0,426c <.L7>
    4298:	00148493          	addi	s1,s1,1
    429c:	fd1ff06f          	j	426c <.L7>

000042a0 <.L20>:
    42a0:	399000ef          	jal	ra,4e38 <__GI_config_close>

000042a4 <.L8>:
    42a4:	00100493          	li	s1,1
    42a8:	f21ff06f          	j	41c8 <.L1>

000042ac <get_phys_pages>:
    42ac:	fb010113          	addi	sp,sp,-80
    42b0:	04112623          	sw	ra,76(sp)
    42b4:	04812423          	sw	s0,72(sp)
    42b8:	74c000ef          	jal	ra,4a04 <__GI_getpagesize>
    42bc:	00050413          	mv	s0,a0
    42c0:	00010513          	mv	a0,sp
    42c4:	06d000ef          	jal	ra,4b30 <sysinfo>
    42c8:	03412783          	lw	a5,52(sp)
    42cc:	01012503          	lw	a0,16(sp)
    42d0:	00f46e63          	bltu	s0,a5,42ec <.L23>
    42d4:	02f45433          	divu	s0,s0,a5
    42d8:	02855533          	divu	a0,a0,s0

000042dc <.L22>:
    42dc:	04c12083          	lw	ra,76(sp)
    42e0:	04812403          	lw	s0,72(sp)
    42e4:	05010113          	addi	sp,sp,80
    42e8:	00008067          	ret

000042ec <.L23>:
    42ec:	0287d7b3          	divu	a5,a5,s0
    42f0:	02a78533          	mul	a0,a5,a0
    42f4:	fe9ff06f          	j	42dc <.L22>

000042f8 <get_avphys_pages>:
    42f8:	fb010113          	addi	sp,sp,-80
    42fc:	04112623          	sw	ra,76(sp)
    4300:	04812423          	sw	s0,72(sp)
    4304:	700000ef          	jal	ra,4a04 <__GI_getpagesize>
    4308:	00050413          	mv	s0,a0
    430c:	00010513          	mv	a0,sp
    4310:	021000ef          	jal	ra,4b30 <sysinfo>
    4314:	03412783          	lw	a5,52(sp)
    4318:	01412503          	lw	a0,20(sp)
    431c:	00f46e63          	bltu	s0,a5,4338 <.L27>
    4320:	02f45433          	divu	s0,s0,a5
    4324:	02855533          	divu	a0,a0,s0

00004328 <.L26>:
    4328:	04c12083          	lw	ra,76(sp)
    432c:	04812403          	lw	s0,72(sp)
    4330:	05010113          	addi	sp,sp,80
    4334:	00008067          	ret

00004338 <.L27>:
    4338:	0287d7b3          	divu	a5,a5,s0
    433c:	02a78533          	mul	a0,a5,a0
    4340:	fe9ff06f          	j	4328 <.L26>

00004344 <__GI_sysconf>:
    4344:	fd010113          	addi	sp,sp,-48
    4348:	02112623          	sw	ra,44(sp)
    434c:	02812423          	sw	s0,40(sp)
    4350:	02912223          	sw	s1,36(sp)
    4354:	03212023          	sw	s2,32(sp)
    4358:	01312e23          	sw	s3,28(sp)
    435c:	01412c23          	sw	s4,24(sp)
    4360:	01512a23          	sw	s5,20(sp)
    4364:	0f000793          	li	a5,240
    4368:	04a7c663          	blt	a5,a0,43b4 <.L31>
    436c:	01600793          	li	a5,22
    4370:	00050413          	mv	s0,a0
    4374:	04a7cc63          	blt	a5,a0,43cc <.L32>
    4378:	00500793          	li	a5,5
    437c:	02a7da63          	bge	a5,a0,43b0 <.L33>
    4380:	00100793          	li	a5,1
    4384:	0041d737          	lui	a4,0x41d
    4388:	00a797b3          	sll	a5,a5,a0
    438c:	f8070713          	addi	a4,a4,-128 # 41cf80 <_ebss+0x40d130>
    4390:	00e7f733          	and	a4,a5,a4
    4394:	1a071c63          	bnez	a4,454c <.L34>
    4398:	003e3737          	lui	a4,0x3e3
    439c:	00e7f7b3          	and	a5,a5,a4
    43a0:	02079263          	bnez	a5,43c4 <.L37>
    43a4:	00600793          	li	a5,6
    43a8:	04f50663          	beq	a0,a5,43f4 <.L49>
    43ac:	0080006f          	j	43b4 <.L31>

000043b0 <.L33>:
    43b0:	06055663          	bgez	a0,441c <.L36>

000043b4 <.L31>:
    43b4:	00008797          	auipc	a5,0x8
    43b8:	ae07a783          	lw	a5,-1312(a5) # be94 <_GLOBAL_OFFSET_TABLE_+0xc>
    43bc:	01600713          	li	a4,22
    43c0:	00e7a023          	sw	a4,0(a5)

000043c4 <.L37>:
    43c4:	fff00413          	li	s0,-1
    43c8:	02c0006f          	j	43f4 <.L49>

000043cc <.L32>:
    43cc:	fe950413          	addi	s0,a0,-23
    43d0:	0d900793          	li	a5,217
    43d4:	fe87e0e3          	bltu	a5,s0,43b4 <.L31>
    43d8:	54818713          	addi	a4,gp,1352 # cc68 <.L38>
    43dc:	00241413          	slli	s0,s0,0x2
    43e0:	00e40433          	add	s0,s0,a4
    43e4:	00042783          	lw	a5,0(s0)
    43e8:	00e787b3          	add	a5,a5,a4
    43ec:	00078067          	jr	a5

000043f0 <.L67>:
    43f0:	00008437          	lui	s0,0x8

000043f4 <.L49>:
    43f4:	02c12083          	lw	ra,44(sp)
    43f8:	00040513          	mv	a0,s0
    43fc:	02812403          	lw	s0,40(sp)
    4400:	02412483          	lw	s1,36(sp)
    4404:	02012903          	lw	s2,32(sp)
    4408:	01c12983          	lw	s3,28(sp)
    440c:	01812a03          	lw	s4,24(sp)
    4410:	01412a83          	lw	s5,20(sp)
    4414:	03010113          	addi	sp,sp,48
    4418:	00008067          	ret

0000441c <.L36>:
    441c:	fff50413          	addi	s0,a0,-1
    4420:	00400793          	li	a5,4
    4424:	0287e463          	bltu	a5,s0,444c <.L68>
    4428:	00009717          	auipc	a4,0x9
    442c:	ba870713          	addi	a4,a4,-1112 # cfd0 <.L70>
    4430:	00241413          	slli	s0,s0,0x2
    4434:	00e40433          	add	s0,s0,a4
    4438:	00042783          	lw	a5,0(s0) # 8000 <.LVL164>
    443c:	00e787b3          	add	a5,a5,a4
    4440:	00078067          	jr	a5

00004444 <.L72>:
    4444:	06400413          	li	s0,100
    4448:	fadff06f          	j	43f4 <.L49>

0000444c <.L68>:
    444c:	00810593          	addi	a1,sp,8
    4450:	00300513          	li	a0,3
    4454:	5bc000ef          	jal	ra,4a10 <__GI_getrlimit>
    4458:	00020437          	lui	s0,0x20
    445c:	f8051ce3          	bnez	a0,43f4 <.L49>
    4460:	00812783          	lw	a5,8(sp)
    4464:	00080737          	lui	a4,0x80
    4468:	f8e7e6e3          	bltu	a5,a4,43f4 <.L49>
    446c:	0027d413          	srli	s0,a5,0x2
    4470:	f85ff06f          	j	43f4 <.L49>

00004474 <.L71>:
    4474:	02812403          	lw	s0,40(sp)
    4478:	02c12083          	lw	ra,44(sp)
    447c:	02412483          	lw	s1,36(sp)
    4480:	02012903          	lw	s2,32(sp)
    4484:	01c12983          	lw	s3,28(sp)
    4488:	01812a03          	lw	s4,24(sp)
    448c:	01412a83          	lw	s5,20(sp)
    4490:	03010113          	addi	sp,sp,48
    4494:	5400006f          	j	49d4 <__GI_getdtablesize>

00004498 <.L50>:
    4498:	01000413          	li	s0,16
    449c:	f59ff06f          	j	43f4 <.L49>

000044a0 <.L66>:
    44a0:	02812403          	lw	s0,40(sp)
    44a4:	02c12083          	lw	ra,44(sp)
    44a8:	02412483          	lw	s1,36(sp)
    44ac:	02012903          	lw	s2,32(sp)
    44b0:	01c12983          	lw	s3,28(sp)
    44b4:	01812a03          	lw	s4,24(sp)
    44b8:	01412a83          	lw	s5,20(sp)
    44bc:	03010113          	addi	sp,sp,48
    44c0:	5440006f          	j	4a04 <__GI_getpagesize>

000044c4 <.L51>:
    44c4:	02000413          	li	s0,32
    44c8:	f2dff06f          	j	43f4 <.L49>

000044cc <.L65>:
    44cc:	06300413          	li	s0,99
    44d0:	f25ff06f          	j	43f4 <.L49>

000044d4 <.L41>:
    44d4:	00001437          	lui	s0,0x1
    44d8:	80040413          	addi	s0,s0,-2048 # 800 <core_list_init+0x34>
    44dc:	f19ff06f          	j	43f4 <.L49>

000044e0 <.L64>:
    44e0:	3e800413          	li	s0,1000
    44e4:	f11ff06f          	j	43f4 <.L49>

000044e8 <.L44>:
    44e8:	0ff00413          	li	s0,255
    44ec:	f09ff06f          	j	43f4 <.L49>

000044f0 <.L46>:
    44f0:	00008437          	lui	s0,0x8

000044f4 <.L90>:
    44f4:	fff40413          	addi	s0,s0,-1 # 7fff <.LVL163+0x7>
    44f8:	efdff06f          	j	43f4 <.L49>

000044fc <.L63>:
    44fc:	10000413          	li	s0,256
    4500:	ef5ff06f          	j	43f4 <.L49>

00004504 <.L62>:
    4504:	00009517          	auipc	a0,0x9
    4508:	5e050513          	addi	a0,a0,1504 # dae4 <.LC5>
    450c:	7dc000ef          	jal	ra,4ce8 <__GI_opendir>
    4510:	00050493          	mv	s1,a0
    4514:	00000413          	li	s0,0
    4518:	06050e63          	beqz	a0,4594 <.L88>
    451c:	00010937          	lui	s2,0x10
    4520:	000079b7          	lui	s3,0x7
    4524:	ffff0a37          	lui	s4,0xffff0
    4528:	63040ab7          	lui	s5,0x63040
    452c:	fff90913          	addi	s2,s2,-1 # ffff <_ebss+0x1af>
    4530:	57098993          	addi	s3,s3,1392 # 7570 <__stdio_trans2r+0x20>

00004534 <.L73>:
    4534:	00048513          	mv	a0,s1
    4538:	01d000ef          	jal	ra,4d54 <__GI_readdir64>
    453c:	00051c63          	bnez	a0,4554 <.L76>
    4540:	00048513          	mv	a0,s1
    4544:	614000ef          	jal	ra,4b58 <__GI_closedir>

00004548 <.L77>:
    4548:	ea0416e3          	bnez	s0,43f4 <.L49>

0000454c <.L34>:
    454c:	00100413          	li	s0,1
    4550:	ea5ff06f          	j	43f4 <.L49>

00004554 <.L76>:
    4554:	01052783          	lw	a5,16(a0)
    4558:	00fa77b3          	and	a5,s4,a5
    455c:	fd579ce3          	bne	a5,s5,4534 <.L73>
    4560:	01452783          	lw	a5,20(a0)
    4564:	0127f7b3          	and	a5,a5,s2
    4568:	fd3796e3          	bne	a5,s3,4534 <.L73>
    456c:	01654703          	lbu	a4,22(a0)
    4570:	0000a797          	auipc	a5,0xa
    4574:	8007a783          	lw	a5,-2048(a5) # dd70 <__GI___ctype_b>
    4578:	00171713          	slli	a4,a4,0x1
    457c:	00e787b3          	add	a5,a5,a4
    4580:	0007d783          	lhu	a5,0(a5)
    4584:	0087f793          	andi	a5,a5,8
    4588:	fa0786e3          	beqz	a5,4534 <.L73>
    458c:	00140413          	addi	s0,s0,1
    4590:	fa5ff06f          	j	4534 <.L73>

00004594 <.L88>:
    4594:	bc1ff0ef          	jal	ra,4154 <nprocessors_onln>
    4598:	00050413          	mv	s0,a0
    459c:	fadff06f          	j	4548 <.L77>

000045a0 <.L61>:
    45a0:	02812403          	lw	s0,40(sp)
    45a4:	02c12083          	lw	ra,44(sp)
    45a8:	02412483          	lw	s1,36(sp)
    45ac:	02012903          	lw	s2,32(sp)
    45b0:	01c12983          	lw	s3,28(sp)
    45b4:	01812a03          	lw	s4,24(sp)
    45b8:	01412a83          	lw	s5,20(sp)
    45bc:	03010113          	addi	sp,sp,48
    45c0:	b95ff06f          	j	4154 <nprocessors_onln>

000045c4 <.L60>:
    45c4:	02812403          	lw	s0,40(sp)
    45c8:	02c12083          	lw	ra,44(sp)
    45cc:	02412483          	lw	s1,36(sp)
    45d0:	02012903          	lw	s2,32(sp)
    45d4:	01c12983          	lw	s3,28(sp)
    45d8:	01812a03          	lw	s4,24(sp)
    45dc:	01412a83          	lw	s5,20(sp)
    45e0:	03010113          	addi	sp,sp,48
    45e4:	cc9ff06f          	j	42ac <get_phys_pages>

000045e8 <.L59>:
    45e8:	02812403          	lw	s0,40(sp)
    45ec:	02c12083          	lw	ra,44(sp)
    45f0:	02412483          	lw	s1,36(sp)
    45f4:	02012903          	lw	s2,32(sp)
    45f8:	01c12983          	lw	s3,28(sp)
    45fc:	01812a03          	lw	s4,24(sp)
    4600:	01412a83          	lw	s5,20(sp)
    4604:	03010113          	addi	sp,sp,48
    4608:	cf1ff06f          	j	42f8 <get_avphys_pages>

0000460c <.L40>:
    460c:	80000437          	lui	s0,0x80000
    4610:	fff44413          	not	s0,s0
    4614:	de1ff06f          	j	43f4 <.L49>

00004618 <.L58>:
    4618:	00001437          	lui	s0,0x1
    461c:	dd9ff06f          	j	43f4 <.L49>

00004620 <.L57>:
    4620:	2bc00413          	li	s0,700
    4624:	dd1ff06f          	j	43f4 <.L49>

00004628 <.L56>:
    4628:	00400413          	li	s0,4
    462c:	dc9ff06f          	j	43f4 <.L49>

00004630 <.L54>:
    4630:	00800413          	li	s0,8
    4634:	dc1ff06f          	j	43f4 <.L49>

00004638 <.L53>:
    4638:	00000413          	li	s0,0
    463c:	db9ff06f          	j	43f4 <.L49>

00004640 <.L52>:
    4640:	80000437          	lui	s0,0x80000
    4644:	db1ff06f          	j	43f4 <.L49>

00004648 <.L48>:
    4648:	07f00413          	li	s0,127
    464c:	da9ff06f          	j	43f4 <.L49>

00004650 <.L47>:
    4650:	f8000413          	li	s0,-128
    4654:	da1ff06f          	j	43f4 <.L49>

00004658 <.L45>:
    4658:	ffff8437          	lui	s0,0xffff8
    465c:	d99ff06f          	j	43f4 <.L49>

00004660 <.L43>:
    4660:	00010437          	lui	s0,0x10
    4664:	e91ff06f          	j	44f4 <.L90>

00004668 <.L42>:
    4668:	00900413          	li	s0,9
    466c:	d89ff06f          	j	43f4 <.L49>

00004670 <.L39>:
    4670:	00000593          	li	a1,0
    4674:	00100513          	li	a0,1
    4678:	334000ef          	jal	ra,49ac <__GI_clock_getres>
    467c:	d40544e3          	bltz	a0,43c4 <.L37>

00004680 <.L55>:
    4680:	00031437          	lui	s0,0x31
    4684:	06940413          	addi	s0,s0,105 # 31069 <_ebss+0x21219>
    4688:	d6dff06f          	j	43f4 <.L49>

0000468c <.L78>:
    468c:	01400413          	li	s0,20
    4690:	d65ff06f          	j	43f4 <.L49>

00004694 <.L79>:
    4694:	00010437          	lui	s0,0x10
    4698:	d5dff06f          	j	43f4 <.L49>

0000469c <__uClibc_init>:
    469c:	0000b797          	auipc	a5,0xb
    46a0:	72878793          	addi	a5,a5,1832 # fdc4 <__pagesize>
    46a4:	0007a703          	lw	a4,0(a5)
    46a8:	02071063          	bnez	a4,46c8 <.L1>
    46ac:	00002737          	lui	a4,0x2
    46b0:	00e7a023          	sw	a4,0(a5)
    46b4:	00008717          	auipc	a4,0x8
    46b8:	81c72703          	lw	a4,-2020(a4) # bed0 <.LLST21+0x1e>
    46bc:	00070793          	mv	a5,a4
    46c0:	00078463          	beqz	a5,46c8 <.L1>
    46c4:	00070067          	jr	a4

000046c8 <.L1>:
    46c8:	00008067          	ret

000046cc <__uClibc_fini>:
    46cc:	ff010113          	addi	sp,sp,-16
    46d0:	00812423          	sw	s0,8(sp)
    46d4:	00912223          	sw	s1,4(sp)
    46d8:	00009417          	auipc	s0,0x9
    46dc:	6ac40413          	addi	s0,s0,1708 # dd84 <__TMC_END__>
    46e0:	00009497          	auipc	s1,0x9
    46e4:	6a048493          	addi	s1,s1,1696 # dd80 <__do_global_dtors_aux_fini_array_entry>
    46e8:	40940433          	sub	s0,s0,s1
    46ec:	40245413          	srai	s0,s0,0x2
    46f0:	01212023          	sw	s2,0(sp)
    46f4:	00112623          	sw	ra,12(sp)
    46f8:	fff40413          	addi	s0,s0,-1
    46fc:	fff00913          	li	s2,-1

00004700 <.L9>:
    4700:	03241c63          	bne	s0,s2,4738 <.L10>
    4704:	0000b417          	auipc	s0,0xb
    4708:	6c040413          	addi	s0,s0,1728 # fdc4 <__pagesize>
    470c:	00442783          	lw	a5,4(s0)
    4710:	00078463          	beqz	a5,4718 <.L11>
    4714:	000780e7          	jalr	a5

00004718 <.L11>:
    4718:	00842783          	lw	a5,8(s0)
    471c:	02078a63          	beqz	a5,4750 <.L8>
    4720:	00812403          	lw	s0,8(sp)
    4724:	00c12083          	lw	ra,12(sp)
    4728:	00412483          	lw	s1,4(sp)
    472c:	00012903          	lw	s2,0(sp)
    4730:	01010113          	addi	sp,sp,16
    4734:	00078067          	jr	a5

00004738 <.L10>:
    4738:	00241793          	slli	a5,s0,0x2
    473c:	00f487b3          	add	a5,s1,a5
    4740:	0007a783          	lw	a5,0(a5)
    4744:	fff40413          	addi	s0,s0,-1
    4748:	000780e7          	jalr	a5
    474c:	fb5ff06f          	j	4700 <.L9>

00004750 <.L8>:
    4750:	00c12083          	lw	ra,12(sp)
    4754:	00812403          	lw	s0,8(sp)
    4758:	00412483          	lw	s1,4(sp)
    475c:	00012903          	lw	s2,0(sp)
    4760:	01010113          	addi	sp,sp,16
    4764:	00008067          	ret

00004768 <__uClibc_main>:
    4768:	f5010113          	addi	sp,sp,-176
    476c:	0a812423          	sw	s0,168(sp)
    4770:	0b212023          	sw	s2,160(sp)
    4774:	09312e23          	sw	s3,156(sp)
    4778:	09412c23          	sw	s4,152(sp)
    477c:	09512a23          	sw	s5,148(sp)
    4780:	09612823          	sw	s6,144(sp)
    4784:	09712623          	sw	s7,140(sp)
    4788:	0a112623          	sw	ra,172(sp)
    478c:	0a912223          	sw	s1,164(sp)
    4790:	09812423          	sw	s8,136(sp)
    4794:	09912223          	sw	s9,132(sp)
    4798:	09a12023          	sw	s10,128(sp)
    479c:	00070a93          	mv	s5,a4
    47a0:	0000bb17          	auipc	s6,0xb
    47a4:	624b0b13          	addi	s6,s6,1572 # fdc4 <__pagesize>
    47a8:	00007717          	auipc	a4,0x7
    47ac:	6e872703          	lw	a4,1768(a4) # be90 <_GLOBAL_OFFSET_TABLE_+0x8>
    47b0:	01072023          	sw	a6,0(a4)
    47b4:	00fb2423          	sw	a5,8(s6)
    47b8:	00158793          	addi	a5,a1,1
    47bc:	00068993          	mv	s3,a3
    47c0:	00279793          	slli	a5,a5,0x2
    47c4:	00062683          	lw	a3,0(a2)
    47c8:	00f60733          	add	a4,a2,a5
    47cc:	00007b97          	auipc	s7,0x7
    47d0:	6ccbab83          	lw	s7,1740(s7) # be98 <_GLOBAL_OFFSET_TABLE_+0x10>
    47d4:	00eba023          	sw	a4,0(s7)
    47d8:	00050a13          	mv	s4,a0
    47dc:	00058913          	mv	s2,a1
    47e0:	00060413          	mv	s0,a2
    47e4:	00d71863          	bne	a4,a3,47f4 <.L18>
    47e8:	ffc78793          	addi	a5,a5,-4
    47ec:	00f607b3          	add	a5,a2,a5
    47f0:	00fba023          	sw	a5,0(s7)

000047f4 <.L18>:
    47f4:	00810c93          	addi	s9,sp,8
    47f8:	07800613          	li	a2,120
    47fc:	00000593          	li	a1,0
    4800:	000c8513          	mv	a0,s9
    4804:	82cff0ef          	jal	ra,3830 <__GI_memset>
    4808:	000bac03          	lw	s8,0(s7)

0000480c <.L19>:
    480c:	000c2783          	lw	a5,0(s8)
    4810:	004c0c13          	addi	s8,s8,4
    4814:	fe079ce3          	bnez	a5,480c <.L19>
    4818:	00e00d13          	li	s10,14

0000481c <.L20>:
    481c:	000c2483          	lw	s1,0(s8)
    4820:	0c049a63          	bnez	s1,48f4 <.L22>
    4824:	000c8513          	mv	a0,s9
    4828:	120000ef          	jal	ra,4948 <_dl_aux_init>
    482c:	e71ff0ef          	jal	ra,469c <__uClibc_init>
    4830:	00042783          	lw	a5,0(s0)
    4834:	00009717          	auipc	a4,0x9
    4838:	52f72823          	sw	a5,1328(a4) # dd64 <__uclibc_progname>
    483c:	02078a63          	beqz	a5,4870 <.L23>
    4840:	00007717          	auipc	a4,0x7
    4844:	6a472703          	lw	a4,1700(a4) # bee4 <.LLST21+0x32>
    4848:	00f72023          	sw	a5,0(a4)
    484c:	00042503          	lw	a0,0(s0)
    4850:	02f00593          	li	a1,47
    4854:	49c020ef          	jal	ra,6cf0 <__GI_strrchr>
    4858:	00007797          	auipc	a5,0x7
    485c:	6587a783          	lw	a5,1624(a5) # beb0 <_GLOBAL_OFFSET_TABLE_+0x28>
    4860:	00a7a023          	sw	a0,0(a5)
    4864:	0a050863          	beqz	a0,4914 <.L24>
    4868:	00150513          	addi	a0,a0,1
    486c:	00a7a023          	sw	a0,0(a5)

00004870 <.L23>:
    4870:	015b2223          	sw	s5,4(s6)
    4874:	00009a97          	auipc	s5,0x9
    4878:	504a8a93          	addi	s5,s5,1284 # dd78 <__preinit_array_start>
    487c:	00009b17          	auipc	s6,0x9
    4880:	500b0b13          	addi	s6,s6,1280 # dd7c <__frame_dummy_init_array_entry>
    4884:	415b0b33          	sub	s6,s6,s5
    4888:	402b5b13          	srai	s6,s6,0x2
    488c:	00000c13          	li	s8,0

00004890 <.L25>:
    4890:	096c1863          	bne	s8,s6,4920 <.L26>
    4894:	00098463          	beqz	s3,489c <.L27>
    4898:	000980e7          	jalr	s3

0000489c <.L27>:
    489c:	00009997          	auipc	s3,0x9
    48a0:	4e098993          	addi	s3,s3,1248 # dd7c <__frame_dummy_init_array_entry>
    48a4:	00009a97          	auipc	s5,0x9
    48a8:	4dca8a93          	addi	s5,s5,1244 # dd80 <__do_global_dtors_aux_fini_array_entry>
    48ac:	413a8ab3          	sub	s5,s5,s3
    48b0:	402ada93          	srai	s5,s5,0x2

000048b4 <.L28>:
    48b4:	09549063          	bne	s1,s5,4934 <.L29>
    48b8:	00007797          	auipc	a5,0x7
    48bc:	6147a783          	lw	a5,1556(a5) # becc <.LLST21+0x1a>
    48c0:	00078663          	beqz	a5,48cc <.L30>
    48c4:	510000ef          	jal	ra,4dd4 <__errno_location>
    48c8:	00052023          	sw	zero,0(a0)

000048cc <.L30>:
    48cc:	00007797          	auipc	a5,0x7
    48d0:	5f07a783          	lw	a5,1520(a5) # bebc <.LLST21+0xa>
    48d4:	00078663          	beqz	a5,48e0 <.L31>
    48d8:	508000ef          	jal	ra,4de0 <__h_errno_location>
    48dc:	00052023          	sw	zero,0(a0)

000048e0 <.L31>:
    48e0:	000ba603          	lw	a2,0(s7)
    48e4:	00040593          	mv	a1,s0
    48e8:	00090513          	mv	a0,s2
    48ec:	000a00e7          	jalr	s4 # ffff0000 <_ebss+0xfffe01b0>
    48f0:	668020ef          	jal	ra,6f58 <__GI_exit>

000048f4 <.L22>:
    48f4:	009d6c63          	bltu	s10,s1,490c <.L21>
    48f8:	00349513          	slli	a0,s1,0x3
    48fc:	00800613          	li	a2,8
    4900:	000c0593          	mv	a1,s8
    4904:	00ac8533          	add	a0,s9,a0
    4908:	c81fe0ef          	jal	ra,3588 <__GI_memcpy>

0000490c <.L21>:
    490c:	008c0c13          	addi	s8,s8,8
    4910:	f0dff06f          	j	481c <.L20>

00004914 <.L24>:
    4914:	00042703          	lw	a4,0(s0)
    4918:	00e7a023          	sw	a4,0(a5)
    491c:	f55ff06f          	j	4870 <.L23>

00004920 <.L26>:
    4920:	000aa783          	lw	a5,0(s5)
    4924:	001c0c13          	addi	s8,s8,1
    4928:	004a8a93          	addi	s5,s5,4
    492c:	000780e7          	jalr	a5
    4930:	f61ff06f          	j	4890 <.L25>

00004934 <.L29>:
    4934:	0009a783          	lw	a5,0(s3)
    4938:	00148493          	addi	s1,s1,1
    493c:	00498993          	addi	s3,s3,4
    4940:	000780e7          	jalr	a5
    4944:	f71ff06f          	j	48b4 <.L28>

00004948 <_dl_aux_init>:
    4948:	01c52703          	lw	a4,28(a0)
    494c:	00007797          	auipc	a5,0x7
    4950:	5687a783          	lw	a5,1384(a5) # beb4 <.LLST21+0x2>
    4954:	00e7a023          	sw	a4,0(a5)
    4958:	02c52703          	lw	a4,44(a0)
    495c:	00007797          	auipc	a5,0x7
    4960:	56c7a783          	lw	a5,1388(a5) # bec8 <.LLST21+0x16>
    4964:	00e7a023          	sw	a4,0(a5)
    4968:	03452783          	lw	a5,52(a0)
    496c:	00079463          	bnez	a5,4974 <.L2>
    4970:	000027b7          	lui	a5,0x2

00004974 <.L2>:
    4974:	00007717          	auipc	a4,0x7
    4978:	56c72703          	lw	a4,1388(a4) # bee0 <.LLST21+0x2e>
    497c:	00f72023          	sw	a5,0(a4)
    4980:	00008067          	ret

00004984 <clock_gettime>:
    4984:	07100893          	li	a7,113
    4988:	00000073          	ecall
    498c:	fffff7b7          	lui	a5,0xfffff
    4990:	00a7fc63          	bgeu	a5,a0,49a8 <.L1>
    4994:	40a00533          	neg	a0,a0
    4998:	00007797          	auipc	a5,0x7
    499c:	4fc7a783          	lw	a5,1276(a5) # be94 <_GLOBAL_OFFSET_TABLE_+0xc>
    49a0:	00a7a023          	sw	a0,0(a5)
    49a4:	fff00513          	li	a0,-1

000049a8 <.L1>:
    49a8:	00008067          	ret

000049ac <__GI_clock_getres>:
    49ac:	07200893          	li	a7,114
    49b0:	00000073          	ecall
    49b4:	fffff7b7          	lui	a5,0xfffff
    49b8:	00a7fc63          	bgeu	a5,a0,49d0 <.L1>
    49bc:	40a00533          	neg	a0,a0
    49c0:	00007797          	auipc	a5,0x7
    49c4:	4d47a783          	lw	a5,1236(a5) # be94 <_GLOBAL_OFFSET_TABLE_+0xc>
    49c8:	00a7a023          	sw	a0,0(a5)
    49cc:	fff00513          	li	a0,-1

000049d0 <.L1>:
    49d0:	00008067          	ret

000049d4 <__GI_getdtablesize>:
    49d4:	fe010113          	addi	sp,sp,-32
    49d8:	00810593          	addi	a1,sp,8
    49dc:	00700513          	li	a0,7
    49e0:	00112e23          	sw	ra,28(sp)
    49e4:	02c000ef          	jal	ra,4a10 <__GI_getrlimit>
    49e8:	10000793          	li	a5,256
    49ec:	00054463          	bltz	a0,49f4 <.L1>
    49f0:	00812783          	lw	a5,8(sp)

000049f4 <.L1>:
    49f4:	01c12083          	lw	ra,28(sp)
    49f8:	00078513          	mv	a0,a5
    49fc:	02010113          	addi	sp,sp,32
    4a00:	00008067          	ret

00004a04 <__GI_getpagesize>:
    4a04:	0000b517          	auipc	a0,0xb
    4a08:	3c052503          	lw	a0,960(a0) # fdc4 <__pagesize>
    4a0c:	00008067          	ret

00004a10 <__GI_getrlimit>:
    4a10:	00058793          	mv	a5,a1
    4a14:	0a300893          	li	a7,163
    4a18:	00000073          	ecall
    4a1c:	fffff737          	lui	a4,0xfffff
    4a20:	00a77e63          	bgeu	a4,a0,4a3c <.L2>
    4a24:	40a00533          	neg	a0,a0
    4a28:	00007797          	auipc	a5,0x7
    4a2c:	46c7a783          	lw	a5,1132(a5) # be94 <_GLOBAL_OFFSET_TABLE_+0xc>
    4a30:	00a7a023          	sw	a0,0(a5)
    4a34:	fff00513          	li	a0,-1
    4a38:	00008067          	ret

00004a3c <.L2>:
    4a3c:	0005a683          	lw	a3,0(a1)
    4a40:	80000737          	lui	a4,0x80000
    4a44:	fff74713          	not	a4,a4
    4a48:	00e69663          	bne	a3,a4,4a54 <.L4>
    4a4c:	fff00713          	li	a4,-1
    4a50:	00e5a023          	sw	a4,0(a1)

00004a54 <.L4>:
    4a54:	0047a683          	lw	a3,4(a5)
    4a58:	80000737          	lui	a4,0x80000
    4a5c:	fff74713          	not	a4,a4
    4a60:	00e69663          	bne	a3,a4,4a6c <.L1>
    4a64:	fff00713          	li	a4,-1
    4a68:	00e7a223          	sw	a4,4(a5)

00004a6c <.L1>:
    4a6c:	00008067          	ret

00004a70 <__GI_ioctl>:
    4a70:	fd010113          	addi	sp,sp,-48
    4a74:	02f12223          	sw	a5,36(sp)
    4a78:	01810793          	addi	a5,sp,24
    4a7c:	03112623          	sw	a7,44(sp)
    4a80:	00c12c23          	sw	a2,24(sp)
    4a84:	00d12e23          	sw	a3,28(sp)
    4a88:	02e12023          	sw	a4,32(sp)
    4a8c:	03012423          	sw	a6,40(sp)
    4a90:	00f12623          	sw	a5,12(sp)
    4a94:	01d00893          	li	a7,29
    4a98:	00000073          	ecall
    4a9c:	fffff7b7          	lui	a5,0xfffff
    4aa0:	00a7fc63          	bgeu	a5,a0,4ab8 <.L1>
    4aa4:	40a00533          	neg	a0,a0
    4aa8:	00007797          	auipc	a5,0x7
    4aac:	3ec7a783          	lw	a5,1004(a5) # be94 <_GLOBAL_OFFSET_TABLE_+0xc>
    4ab0:	00a7a023          	sw	a0,0(a5)
    4ab4:	fff00513          	li	a0,-1

00004ab8 <.L1>:
    4ab8:	03010113          	addi	sp,sp,48
    4abc:	00008067          	ret

00004ac0 <__GI_mmap>:
    4ac0:	01379813          	slli	a6,a5,0x13
    4ac4:	00080e63          	beqz	a6,4ae0 <.L2>
    4ac8:	00007797          	auipc	a5,0x7
    4acc:	3cc7a783          	lw	a5,972(a5) # be94 <_GLOBAL_OFFSET_TABLE_+0xc>
    4ad0:	01600713          	li	a4,22
    4ad4:	00e7a023          	sw	a4,0(a5)

00004ad8 <.L5>:
    4ad8:	fff00513          	li	a0,-1

00004adc <.L1>:
    4adc:	00008067          	ret

00004ae0 <.L2>:
    4ae0:	00d7d793          	srli	a5,a5,0xd
    4ae4:	0de00893          	li	a7,222
    4ae8:	00000073          	ecall
    4aec:	fffff7b7          	lui	a5,0xfffff
    4af0:	fea7f6e3          	bgeu	a5,a0,4adc <.L1>
    4af4:	40a00533          	neg	a0,a0
    4af8:	00007797          	auipc	a5,0x7
    4afc:	39c7a783          	lw	a5,924(a5) # be94 <_GLOBAL_OFFSET_TABLE_+0xc>
    4b00:	00a7a023          	sw	a0,0(a5)
    4b04:	fd5ff06f          	j	4ad8 <.L5>

00004b08 <__GI_munmap>:
    4b08:	0d700893          	li	a7,215
    4b0c:	00000073          	ecall
    4b10:	fffff7b7          	lui	a5,0xfffff
    4b14:	00a7fc63          	bgeu	a5,a0,4b2c <.L1>
    4b18:	40a00533          	neg	a0,a0
    4b1c:	00007797          	auipc	a5,0x7
    4b20:	3787a783          	lw	a5,888(a5) # be94 <_GLOBAL_OFFSET_TABLE_+0xc>
    4b24:	00a7a023          	sw	a0,0(a5)
    4b28:	fff00513          	li	a0,-1

00004b2c <.L1>:
    4b2c:	00008067          	ret

00004b30 <sysinfo>:
    4b30:	0b300893          	li	a7,179
    4b34:	00000073          	ecall
    4b38:	fffff7b7          	lui	a5,0xfffff
    4b3c:	00a7fc63          	bgeu	a5,a0,4b54 <.L1>
    4b40:	40a00533          	neg	a0,a0
    4b44:	00007797          	auipc	a5,0x7
    4b48:	3507a783          	lw	a5,848(a5) # be94 <_GLOBAL_OFFSET_TABLE_+0xc>
    4b4c:	00a7a023          	sw	a0,0(a5)
    4b50:	fff00513          	li	a0,-1

00004b54 <.L1>:
    4b54:	00008067          	ret

00004b58 <__GI_closedir>:
    4b58:	ff010113          	addi	sp,sp,-16
    4b5c:	00912223          	sw	s1,4(sp)
    4b60:	00052483          	lw	s1,0(a0)
    4b64:	00112623          	sw	ra,12(sp)
    4b68:	00812423          	sw	s0,8(sp)
    4b6c:	fff00793          	li	a5,-1
    4b70:	02f48a63          	beq	s1,a5,4ba4 <.L5>
    4b74:	00050413          	mv	s0,a0
    4b78:	00f52023          	sw	a5,0(a0)
    4b7c:	00c52503          	lw	a0,12(a0)
    4b80:	c18ff0ef          	jal	ra,3f98 <free>
    4b84:	00040513          	mv	a0,s0
    4b88:	c10ff0ef          	jal	ra,3f98 <free>
    4b8c:	00812403          	lw	s0,8(sp)
    4b90:	00c12083          	lw	ra,12(sp)
    4b94:	00048513          	mv	a0,s1
    4b98:	00412483          	lw	s1,4(sp)
    4b9c:	01010113          	addi	sp,sp,16
    4ba0:	4b40206f          	j	7054 <__GI_close>

00004ba4 <.L5>:
    4ba4:	00c12083          	lw	ra,12(sp)
    4ba8:	00812403          	lw	s0,8(sp)
    4bac:	00007797          	auipc	a5,0x7
    4bb0:	2e87a783          	lw	a5,744(a5) # be94 <_GLOBAL_OFFSET_TABLE_+0xc>
    4bb4:	00900713          	li	a4,9
    4bb8:	00e7a023          	sw	a4,0(a5)
    4bbc:	00412483          	lw	s1,4(sp)
    4bc0:	fff00513          	li	a0,-1
    4bc4:	01010113          	addi	sp,sp,16
    4bc8:	00008067          	ret

00004bcc <fd_to_DIR>:
    4bcc:	ff010113          	addi	sp,sp,-16
    4bd0:	01212023          	sw	s2,0(sp)
    4bd4:	00050913          	mv	s2,a0
    4bd8:	01c00513          	li	a0,28
    4bdc:	00912223          	sw	s1,4(sp)
    4be0:	00112623          	sw	ra,12(sp)
    4be4:	00812423          	sw	s0,8(sp)
    4be8:	00058493          	mv	s1,a1
    4bec:	994ff0ef          	jal	ra,3d80 <malloc>
    4bf0:	04050263          	beqz	a0,4c34 <.L2>
    4bf4:	01252023          	sw	s2,0(a0)
    4bf8:	00052823          	sw	zero,16(a0)
    4bfc:	00052423          	sw	zero,8(a0)
    4c00:	00052223          	sw	zero,4(a0)
    4c04:	20000793          	li	a5,512
    4c08:	00050413          	mv	s0,a0
    4c0c:	00048593          	mv	a1,s1
    4c10:	00f4f463          	bgeu	s1,a5,4c18 <.L3>
    4c14:	20000593          	li	a1,512

00004c18 <.L3>:
    4c18:	00b42a23          	sw	a1,20(s0)
    4c1c:	00100513          	li	a0,1
    4c20:	178020ef          	jal	ra,6d98 <calloc>
    4c24:	00a42623          	sw	a0,12(s0)
    4c28:	00051863          	bnez	a0,4c38 <.L1>
    4c2c:	00040513          	mv	a0,s0
    4c30:	b68ff0ef          	jal	ra,3f98 <free>

00004c34 <.L2>:
    4c34:	00000413          	li	s0,0

00004c38 <.L1>:
    4c38:	00c12083          	lw	ra,12(sp)
    4c3c:	00040513          	mv	a0,s0
    4c40:	00812403          	lw	s0,8(sp)
    4c44:	00412483          	lw	s1,4(sp)
    4c48:	00012903          	lw	s2,0(sp)
    4c4c:	01010113          	addi	sp,sp,16
    4c50:	00008067          	ret

00004c54 <fdopendir>:
    4c54:	f8010113          	addi	sp,sp,-128
    4c58:	00810593          	addi	a1,sp,8
    4c5c:	06812c23          	sw	s0,120(sp)
    4c60:	06112e23          	sw	ra,124(sp)
    4c64:	00050413          	mv	s0,a0
    4c68:	4f8020ef          	jal	ra,7160 <__GI_fstat64>
    4c6c:	02051463          	bnez	a0,4c94 <.L11>
    4c70:	01812703          	lw	a4,24(sp)
    4c74:	0000f7b7          	lui	a5,0xf
    4c78:	00e7f7b3          	and	a5,a5,a4
    4c7c:	00004737          	lui	a4,0x4
    4c80:	02e78463          	beq	a5,a4,4ca8 <.L12>
    4c84:	00007797          	auipc	a5,0x7
    4c88:	2107a783          	lw	a5,528(a5) # be94 <_GLOBAL_OFFSET_TABLE_+0xc>
    4c8c:	01400713          	li	a4,20

00004c90 <.L17>:
    4c90:	00e7a023          	sw	a4,0(a5)

00004c94 <.L11>:
    4c94:	00000513          	li	a0,0

00004c98 <.L9>:
    4c98:	07c12083          	lw	ra,124(sp)
    4c9c:	07812403          	lw	s0,120(sp)
    4ca0:	08010113          	addi	sp,sp,128
    4ca4:	00008067          	ret

00004ca8 <.L12>:
    4ca8:	00300593          	li	a1,3
    4cac:	00040513          	mv	a0,s0
    4cb0:	328020ef          	jal	ra,6fd8 <__GI_fcntl>
    4cb4:	fff00793          	li	a5,-1
    4cb8:	fcf50ee3          	beq	a0,a5,4c94 <.L11>
    4cbc:	00357793          	andi	a5,a0,3
    4cc0:	00100713          	li	a4,1
    4cc4:	00e79a63          	bne	a5,a4,4cd8 <.L15>
    4cc8:	00007797          	auipc	a5,0x7
    4ccc:	1cc7a783          	lw	a5,460(a5) # be94 <_GLOBAL_OFFSET_TABLE_+0xc>
    4cd0:	01600713          	li	a4,22
    4cd4:	fbdff06f          	j	4c90 <.L17>

00004cd8 <.L15>:
    4cd8:	04012583          	lw	a1,64(sp)
    4cdc:	00040513          	mv	a0,s0
    4ce0:	eedff0ef          	jal	ra,4bcc <fd_to_DIR>
    4ce4:	fb5ff06f          	j	4c98 <.L9>

00004ce8 <__GI_opendir>:
    4ce8:	000915b7          	lui	a1,0x91
    4cec:	f8010113          	addi	sp,sp,-128
    4cf0:	80058593          	addi	a1,a1,-2048 # 90800 <_ebss+0x809b0>
    4cf4:	06112e23          	sw	ra,124(sp)
    4cf8:	06812c23          	sw	s0,120(sp)
    4cfc:	3e8020ef          	jal	ra,70e4 <__open2_nocancel>
    4d00:	00054e63          	bltz	a0,4d1c <.L19>
    4d04:	00810593          	addi	a1,sp,8
    4d08:	00050413          	mv	s0,a0
    4d0c:	454020ef          	jal	ra,7160 <__GI_fstat64>
    4d10:	02055063          	bgez	a0,4d30 <.L20>

00004d14 <.L23>:
    4d14:	00040513          	mv	a0,s0
    4d18:	364020ef          	jal	ra,707c <__close_nocancel_no_status>

00004d1c <.L19>:
    4d1c:	00000513          	li	a0,0

00004d20 <.L18>:
    4d20:	07c12083          	lw	ra,124(sp)
    4d24:	07812403          	lw	s0,120(sp)
    4d28:	08010113          	addi	sp,sp,128
    4d2c:	00008067          	ret

00004d30 <.L20>:
    4d30:	00200593          	li	a1,2
    4d34:	00100613          	li	a2,1
    4d38:	00040513          	mv	a0,s0
    4d3c:	260020ef          	jal	ra,6f9c <__fcntl_nocancel>
    4d40:	04012583          	lw	a1,64(sp)
    4d44:	00040513          	mv	a0,s0
    4d48:	e85ff0ef          	jal	ra,4bcc <fd_to_DIR>
    4d4c:	fc051ae3          	bnez	a0,4d20 <.L18>
    4d50:	fc5ff06f          	j	4d14 <.L23>

00004d54 <__GI_readdir64>:
    4d54:	ff010113          	addi	sp,sp,-16
    4d58:	00812423          	sw	s0,8(sp)
    4d5c:	00112623          	sw	ra,12(sp)
    4d60:	00050413          	mv	s0,a0

00004d64 <.L4>:
    4d64:	00842703          	lw	a4,8(s0)
    4d68:	00442783          	lw	a5,4(s0)
    4d6c:	00c42583          	lw	a1,12(s0)
    4d70:	00e7ee63          	bltu	a5,a4,4d8c <.L2>
    4d74:	01442603          	lw	a2,20(s0)
    4d78:	00042503          	lw	a0,0(s0)
    4d7c:	40c020ef          	jal	ra,7188 <__getdents>
    4d80:	04a05663          	blez	a0,4dcc <.L6>
    4d84:	00a42423          	sw	a0,8(s0)
    4d88:	00042223          	sw	zero,4(s0)

00004d8c <.L2>:
    4d8c:	00442703          	lw	a4,4(s0)
    4d90:	00c42503          	lw	a0,12(s0)
    4d94:	00e50533          	add	a0,a0,a4
    4d98:	01055783          	lhu	a5,16(a0)
    4d9c:	00e787b3          	add	a5,a5,a4
    4da0:	00f42223          	sw	a5,4(s0)
    4da4:	00852783          	lw	a5,8(a0)
    4da8:	00452703          	lw	a4,4(a0)
    4dac:	00f42823          	sw	a5,16(s0)
    4db0:	00052783          	lw	a5,0(a0)
    4db4:	00e7e7b3          	or	a5,a5,a4
    4db8:	fa0786e3          	beqz	a5,4d64 <.L4>

00004dbc <.L1>:
    4dbc:	00c12083          	lw	ra,12(sp)
    4dc0:	00812403          	lw	s0,8(sp)
    4dc4:	01010113          	addi	sp,sp,16
    4dc8:	00008067          	ret

00004dcc <.L6>:
    4dcc:	00000513          	li	a0,0
    4dd0:	fedff06f          	j	4dbc <.L1>

00004dd4 <__errno_location>:
    4dd4:	00007517          	auipc	a0,0x7
    4dd8:	0c052503          	lw	a0,192(a0) # be94 <_GLOBAL_OFFSET_TABLE_+0xc>
    4ddc:	00008067          	ret

00004de0 <__h_errno_location>:
    4de0:	00007517          	auipc	a0,0x7
    4de4:	0c052503          	lw	a0,192(a0) # bea0 <_GLOBAL_OFFSET_TABLE_+0x18>
    4de8:	00008067          	ret

00004dec <__GI_config_open>:
    4dec:	ff010113          	addi	sp,sp,-16
    4df0:	00009597          	auipc	a1,0x9
    4df4:	cf058593          	addi	a1,a1,-784 # dae0 <.LC0>
    4df8:	00112623          	sw	ra,12(sp)
    4dfc:	00812423          	sw	s0,8(sp)
    4e00:	49c000ef          	jal	ra,529c <__GI_fopen>
    4e04:	00051c63          	bnez	a0,4e1c <.L2>

00004e08 <.L4>:
    4e08:	00000513          	li	a0,0

00004e0c <.L1>:
    4e0c:	00c12083          	lw	ra,12(sp)
    4e10:	00812403          	lw	s0,8(sp)
    4e14:	01010113          	addi	sp,sp,16
    4e18:	00008067          	ret

00004e1c <.L2>:
    4e1c:	00050413          	mv	s0,a0
    4e20:	01800593          	li	a1,24
    4e24:	00100513          	li	a0,1
    4e28:	771010ef          	jal	ra,6d98 <calloc>
    4e2c:	fc050ee3          	beqz	a0,4e08 <.L4>
    4e30:	00852023          	sw	s0,0(a0)
    4e34:	fd9ff06f          	j	4e0c <.L1>

00004e38 <__GI_config_close>:
    4e38:	04050063          	beqz	a0,4e78 <.L9>
    4e3c:	ff010113          	addi	sp,sp,-16
    4e40:	00812423          	sw	s0,8(sp)
    4e44:	00050413          	mv	s0,a0
    4e48:	00052503          	lw	a0,0(a0)
    4e4c:	00112623          	sw	ra,12(sp)
    4e50:	35c000ef          	jal	ra,51ac <__GI_fclose>
    4e54:	01442783          	lw	a5,20(s0)
    4e58:	00078663          	beqz	a5,4e64 <.L11>
    4e5c:	00442503          	lw	a0,4(s0)
    4e60:	938ff0ef          	jal	ra,3f98 <free>

00004e64 <.L11>:
    4e64:	00040513          	mv	a0,s0
    4e68:	00812403          	lw	s0,8(sp)
    4e6c:	00c12083          	lw	ra,12(sp)
    4e70:	01010113          	addi	sp,sp,16
    4e74:	924ff06f          	j	3f98 <free>

00004e78 <.L9>:
    4e78:	00008067          	ret

00004e7c <__GI_config_read>:
    4e7c:	fa010113          	addi	sp,sp,-96
    4e80:	04112e23          	sw	ra,92(sp)
    4e84:	04812c23          	sw	s0,88(sp)
    4e88:	04912a23          	sw	s1,84(sp)
    4e8c:	05212823          	sw	s2,80(sp)
    4e90:	05312623          	sw	s3,76(sp)
    4e94:	05412423          	sw	s4,72(sp)
    4e98:	05512223          	sw	s5,68(sp)
    4e9c:	05612023          	sw	s6,64(sp)
    4ea0:	03712e23          	sw	s7,60(sp)
    4ea4:	03812c23          	sw	s8,56(sp)
    4ea8:	03912a23          	sw	s9,52(sp)
    4eac:	03a12823          	sw	s10,48(sp)
    4eb0:	03b12623          	sw	s11,44(sp)
    4eb4:	0e050063          	beqz	a0,4f94 <.L20>
    4eb8:	0ff67a13          	zext.b	s4,a2
    4ebc:	002a1793          	slli	a5,s4,0x2
    4ec0:	00865a93          	srli	s5,a2,0x8
    4ec4:	00f12623          	sw	a5,12(sp)
    4ec8:	000209b7          	lui	s3,0x20
    4ecc:	00178793          	addi	a5,a5,1
    4ed0:	00040b37          	lui	s6,0x40
    4ed4:	00010bb7          	lui	s7,0x10
    4ed8:	00050c93          	mv	s9,a0
    4edc:	00058913          	mv	s2,a1
    4ee0:	00060493          	mv	s1,a2
    4ee4:	00068413          	mv	s0,a3
    4ee8:	0ffafa93          	zext.b	s5,s5
    4eec:	00f12823          	sw	a5,16(sp)
    4ef0:	013679b3          	and	s3,a2,s3
    4ef4:	01667b33          	and	s6,a2,s6
    4ef8:	01767bb3          	and	s7,a2,s7

00004efc <.L21>:
    4efc:	004ca683          	lw	a3,4(s9)
    4f00:	010ca703          	lw	a4,16(s9)
    4f04:	04069263          	bnez	a3,4f48 <.L22>
    4f08:	00071663          	bnez	a4,4f14 <.L23>
    4f0c:	05100713          	li	a4,81
    4f10:	00eca823          	sw	a4,16(s9)

00004f14 <.L23>:
    4f14:	008ca703          	lw	a4,8(s9)
    4f18:	00071663          	bnez	a4,4f24 <.L24>
    4f1c:	01012783          	lw	a5,16(sp)
    4f20:	00fca423          	sw	a5,8(s9)

00004f24 <.L24>:
    4f24:	008ca503          	lw	a0,8(s9)
    4f28:	010ca703          	lw	a4,16(s9)
    4f2c:	00e50533          	add	a0,a0,a4
    4f30:	e51fe0ef          	jal	ra,3d80 <malloc>
    4f34:	00aca223          	sw	a0,4(s9)
    4f38:	04050e63          	beqz	a0,4f94 <.L20>
    4f3c:	014ca703          	lw	a4,20(s9)
    4f40:	00176713          	ori	a4,a4,1
    4f44:	00ecaa23          	sw	a4,20(s9)

00004f48 <.L22>:
    4f48:	004ca703          	lw	a4,4(s9)
    4f4c:	008ca683          	lw	a3,8(s9)
    4f50:	00000d93          	li	s11,0
    4f54:	00002c37          	lui	s8,0x2
    4f58:	00d70733          	add	a4,a4,a3
    4f5c:	00eca623          	sw	a4,12(s9)
    4f60:	05c00d13          	li	s10,92

00004f64 <.L26>:
    4f64:	010ca583          	lw	a1,16(s9)
    4f68:	00cca503          	lw	a0,12(s9)
    4f6c:	000ca603          	lw	a2,0(s9)
    4f70:	41b585b3          	sub	a1,a1,s11
    4f74:	01b50533          	add	a0,a0,s11
    4f78:	0ed010ef          	jal	ra,6864 <__GI_fgets>
    4f7c:	00cca703          	lw	a4,12(s9)
    4f80:	04051c63          	bnez	a0,4fd8 <.L27>
    4f84:	010ca603          	lw	a2,16(s9)
    4f88:	00000593          	li	a1,0
    4f8c:	00070513          	mv	a0,a4
    4f90:	8a1fe0ef          	jal	ra,3830 <__GI_memset>

00004f94 <.L20>:
    4f94:	00000d93          	li	s11,0

00004f98 <.L18>:
    4f98:	05c12083          	lw	ra,92(sp)
    4f9c:	05812403          	lw	s0,88(sp)
    4fa0:	05412483          	lw	s1,84(sp)
    4fa4:	05012903          	lw	s2,80(sp)
    4fa8:	04c12983          	lw	s3,76(sp)
    4fac:	04812a03          	lw	s4,72(sp)
    4fb0:	04412a83          	lw	s5,68(sp)
    4fb4:	04012b03          	lw	s6,64(sp)
    4fb8:	03c12b83          	lw	s7,60(sp)
    4fbc:	03812c03          	lw	s8,56(sp)
    4fc0:	03412c83          	lw	s9,52(sp)
    4fc4:	03012d03          	lw	s10,48(sp)
    4fc8:	000d8513          	mv	a0,s11
    4fcc:	02c12d83          	lw	s11,44(sp)
    4fd0:	06010113          	addi	sp,sp,96
    4fd4:	00008067          	ret

00004fd8 <.L27>:
    4fd8:	01b70533          	add	a0,a4,s11
    4fdc:	00e12a23          	sw	a4,20(sp)
    4fe0:	8f9fe0ef          	jal	ra,38d8 <__GI_strlen>
    4fe4:	01412703          	lw	a4,20(sp)
    4fe8:	00ad8db3          	add	s11,s11,a0
    4fec:	00a00593          	li	a1,10
    4ff0:	00070513          	mv	a0,a4
    4ff4:	311010ef          	jal	ra,6b04 <__GI_strchr>
    4ff8:	02050063          	beqz	a0,5018 <.L29>
    4ffc:	00054703          	lbu	a4,0(a0)
    5000:	fff70713          	addi	a4,a4,-1 # 3fff <.L6+0xb>
    5004:	0ff77713          	zext.b	a4,a4
    5008:	00e50023          	sb	a4,0(a0)
    500c:	0fa71c63          	bne	a4,s10,5104 <.L30>
    5010:	ffed8d93          	addi	s11,s11,-2
    5014:	f51ff06f          	j	4f64 <.L26>

00005018 <.L29>:
    5018:	014ca703          	lw	a4,20(s9)
    501c:	02071863          	bnez	a4,504c <.L72>
    5020:	fff00d13          	li	s10,-1
    5024:	00a00c13          	li	s8,10

00005028 <.L32>:
    5028:	000ca503          	lw	a0,0(s9)
    502c:	01052703          	lw	a4,16(a0)
    5030:	01852683          	lw	a3,24(a0)
    5034:	04d77463          	bgeu	a4,a3,507c <.L33>
    5038:	00170693          	addi	a3,a4,1
    503c:	00d52823          	sw	a3,16(a0)
    5040:	00074503          	lbu	a0,0(a4)

00005044 <.L34>:
    5044:	ff8512e3          	bne	a0,s8,5028 <.L32>
    5048:	03c0006f          	j	5084 <.L35>

0000504c <.L72>:
    504c:	010ca703          	lw	a4,16(s9)
    5050:	008ca583          	lw	a1,8(s9)
    5054:	004ca503          	lw	a0,4(s9)
    5058:	00ec0733          	add	a4,s8,a4
    505c:	00eca823          	sw	a4,16(s9)
    5060:	00b705b3          	add	a1,a4,a1
    5064:	599010ef          	jal	ra,6dfc <realloc>
    5068:	008ca703          	lw	a4,8(s9)
    506c:	00aca223          	sw	a0,4(s9)
    5070:	00e50533          	add	a0,a0,a4
    5074:	00aca623          	sw	a0,12(s9)
    5078:	eedff06f          	j	4f64 <.L26>

0000507c <.L33>:
    507c:	6dc010ef          	jal	ra,6758 <__GI___fgetc_unlocked>
    5080:	fda512e3          	bne	a0,s10,5044 <.L34>

00005084 <.L35>:
    5084:	fff00713          	li	a4,-1
    5088:	f0ed86e3          	beq	s11,a4,4f94 <.L20>
    508c:	00ccad03          	lw	s10,12(s9)
    5090:	00098a63          	beqz	s3,50a4 <.L37>
    5094:	000d0513          	mv	a0,s10
    5098:	00140593          	addi	a1,s0,1
    509c:	4c1010ef          	jal	ra,6d5c <__GI_strspn>
    50a0:	00ad0d33          	add	s10,s10,a0

000050a4 <.L37>:
    50a4:	000d4683          	lbu	a3,0(s10)
    50a8:	004ca503          	lw	a0,4(s9)
    50ac:	e40688e3          	beqz	a3,4efc <.L21>
    50b0:	00044603          	lbu	a2,0(s0)
    50b4:	e4d604e3          	beq	a2,a3,4efc <.L21>
    50b8:	00c12603          	lw	a2,12(sp)
    50bc:	00a92023          	sw	a0,0(s2)
    50c0:	00000593          	li	a1,0
    50c4:	f6cfe0ef          	jal	ra,3830 <__GI_memset>
    50c8:	fffa0793          	addi	a5,s4,-1
    50cc:	00f12c23          	sw	a5,24(sp)
    50d0:	00140793          	addi	a5,s0,1
    50d4:	00000d93          	li	s11,0
    50d8:	00f12e23          	sw	a5,28(sp)

000050dc <.L39>:
    50dc:	000d4603          	lbu	a2,0(s10)
    50e0:	00060863          	beqz	a2,50f0 <.L51>
    50e4:	00044583          	lbu	a1,0(s0)
    50e8:	00c58463          	beq	a1,a2,50f0 <.L51>
    50ec:	034dc063          	blt	s11,s4,510c <.L52>

000050f0 <.L51>:
    50f0:	eb5dd4e3          	bge	s11,s5,4f98 <.L18>
    50f4:	00100737          	lui	a4,0x100
    50f8:	00e4f733          	and	a4,s1,a4
    50fc:	e00700e3          	beqz	a4,4efc <.L21>
    5100:	e95ff06f          	j	4f94 <.L20>

00005104 <.L30>:
    5104:	fffd8d93          	addi	s11,s11,-1
    5108:	f7dff06f          	j	5084 <.L35>

0000510c <.L52>:
    510c:	00092603          	lw	a2,0(s2)
    5110:	002d9593          	slli	a1,s11,0x2
    5114:	01812783          	lw	a5,24(sp)
    5118:	00b60633          	add	a2,a2,a1
    511c:	01a62023          	sw	s10,0(a2)
    5120:	00044c03          	lbu	s8,0(s0)
    5124:	01b79463          	bne	a5,s11,512c <.L40>
    5128:	040b1063          	bnez	s6,5168 <.L41>

0000512c <.L40>:
    512c:	001c3593          	seqz	a1,s8
    5130:	000d0513          	mv	a0,s10
    5134:	00b405b3          	add	a1,s0,a1
    5138:	35d010ef          	jal	ra,6c94 <__GI_strcspn>
    513c:	00ad0d33          	add	s10,s10,a0

00005140 <.L43>:
    5140:	000d4603          	lbu	a2,0(s10)
    5144:	04cc1c63          	bne	s8,a2,519c <.L46>
    5148:	000d0023          	sb	zero,0(s10)

0000514c <.L49>:
    514c:	000b8a63          	beqz	s7,5160 <.L50>
    5150:	01c12583          	lw	a1,28(sp)
    5154:	000d0513          	mv	a0,s10
    5158:	405010ef          	jal	ra,6d5c <__GI_strspn>
    515c:	00ad0d33          	add	s10,s10,a0

00005160 <.L50>:
    5160:	001d8d93          	addi	s11,s11,1
    5164:	f79ff06f          	j	50dc <.L39>

00005168 <.L41>:
    5168:	000d0513          	mv	a0,s10
    516c:	000c0593          	mv	a1,s8
    5170:	251010ef          	jal	ra,6bc0 <__GI_strchrnul>
    5174:	00050d13          	mv	s10,a0
